

Microchip MPLAB XC8 Assembler V2.10 build 88905656 
                                                                                               Wed Feb 12 14:26:19 2020

Microchip MPLAB XC8 C Compiler v2.10 (Free license) build 20190730164152 Og1 
     1                           	processor	16F887
     2                           	opt	pw 120
     3                           	opt	flic
     4                           	psect	strings,global,class=STRING,delta=2
     5                           	psect	cinit,global,class=CODE,merge=1,delta=2
     6                           	psect	bssCOMMON,global,class=COMMON,space=1,delta=1
     7                           	psect	bssBANK0,global,class=BANK0,space=1,delta=1
     8                           	psect	bssBANK1,global,class=BANK1,space=1,delta=1
     9                           	psect	clrtext,global,class=CODE,delta=2
    10                           	psect	cstackCOMMON,global,class=COMMON,space=1,delta=1
    11                           	psect	cstackBANK0,global,class=BANK0,space=1,delta=1
    12                           	psect	maintext,global,class=CODE,split=1,delta=2
    13                           	psect	text1,local,class=CODE,merge=1,delta=2
    14                           	psect	text2,local,class=CODE,merge=1,delta=2,group=1
    15                           	psect	text3,local,class=CODE,merge=1,delta=2,group=1
    16                           	psect	text4,local,class=CODE,merge=1,delta=2,group=1
    17                           	psect	text5,local,class=CODE,merge=1,delta=2,group=1
    18                           	psect	text6,local,class=CODE,merge=1,delta=2,group=1
    19                           	psect	text7,local,class=CODE,merge=1,delta=2,group=1
    20                           	psect	text8,local,class=CODE,merge=1,delta=2,group=1
    21                           	psect	text9,local,class=CODE,merge=1,delta=2
    22                           	psect	text10,local,class=CODE,merge=1,delta=2
    23                           	psect	text11,local,class=CODE,merge=1,delta=2,group=1
    24                           	psect	text12,local,class=CODE,merge=1,delta=2,group=1
    25                           	psect	text13,local,class=CODE,merge=1,delta=2
    26                           	psect	text14,local,class=CODE,merge=1,delta=2
    27                           	psect	text15,local,class=CODE,merge=1,delta=2
    28                           	psect	text16,local,class=CODE,merge=1,delta=2
    29                           	psect	text17,local,class=CODE,merge=1,delta=2
    30                           	psect	text18,local,class=CODE,merge=1,delta=2
    31                           	psect	text19,local,class=CODE,merge=1,delta=2
    32                           	psect	text20,local,class=CODE,merge=1,delta=2
    33                           	psect	text21,local,class=CODE,merge=1,delta=2
    34                           	psect	intentry,global,class=CODE,delta=2
    35                           	dabs	1,0x7E,2
    36  0000                     
    37                           ; Version 2.10
    38                           ; Generated 31/07/2019 GMT
    39                           ; 
    40                           ; Copyright © 2019, Microchip Technology Inc. and its subsidiaries ("Microchip")
    41                           ; All rights reserved.
    42                           ; 
    43                           ; This software is developed by Microchip Technology Inc. and its subsidiaries ("Microch
      +                          ip").
    44                           ; 
    45                           ; Redistribution and use in source and binary forms, with or without modification, are
    46                           ; permitted provided that the following conditions are met:
    47                           ; 
    48                           ;     1. Redistributions of source code must retain the above copyright notice, this lis
      +                          t of
    49                           ;        conditions and the following disclaimer.
    50                           ; 
    51                           ;     2. Redistributions in binary form must reproduce the above copyright notice, this 
      +                          list
    52                           ;        of conditions and the following disclaimer in the documentation and/or other
    53                           ;        materials provided with the distribution.
    54                           ; 
    55                           ;     3. Microchip's name may not be used to endorse or promote products derived from th
      +                          is
    56                           ;        software without specific prior written permission.
    57                           ; 
    58                           ; THIS SOFTWARE IS PROVIDED BY MICROCHIP "AS IS" AND ANY EXPRESS OR IMPLIED WARRANTIES,
    59                           ; INCLUDING, BUT NOT LIMITED TO, THE IMPLIED WARRANTIES OF MERCHANTABILITY AND FITNESS F
      +                          OR
    60                           ; PURPOSE ARE DISCLAIMED.  IN NO EVENT SHALL MICROCHIP BE LIABLE FOR ANY DIRECT, INDIREC
      +                          T,
    61                           ; INCIDENTAL, SPECIAL, EXEMPLARY, OR CONSEQUENTIAL DAMAGES (INCLUDING BUT NOT LIMITED TO
    62                           ; PROCUREMENT OF SUBSTITUTE GOODS OR SERVICES; LOSS OF USE, DATA OR PROFITS; OR BUSINESS
    63                           ; INTERRUPTION) HOWSOEVER CAUSED AND ON ANY THEORY OF LIABILITY, WHETHER IN CONTRACT, ST
      +                          RICT
    64                           ; LIABILITY, OR TORT (INCLUDING NEGLIGENCE OR OTHERWISE) ARISING IN ANY WAY OUT OF THE U
      +                          SE OF
    65                           ; THIS SOFTWARE, EVEN IF ADVISED OF THE POSSIBILITY OF SUCH DAMAGE.
    66                           ; 
    67                           ; 
    68                           ; Code-generator required, PIC16F887 Definitions
    69                           ; 
    70                           ; SFR Addresses
    71  0000                     	;# 
    72  0001                     	;# 
    73  0002                     	;# 
    74  0003                     	;# 
    75  0004                     	;# 
    76  0005                     	;# 
    77  0006                     	;# 
    78  0007                     	;# 
    79  0008                     	;# 
    80  0009                     	;# 
    81  000A                     	;# 
    82  000B                     	;# 
    83  000C                     	;# 
    84  000D                     	;# 
    85  000E                     	;# 
    86  000E                     	;# 
    87  000F                     	;# 
    88  0010                     	;# 
    89  0011                     	;# 
    90  0012                     	;# 
    91  0013                     	;# 
    92  0014                     	;# 
    93  0015                     	;# 
    94  0015                     	;# 
    95  0016                     	;# 
    96  0017                     	;# 
    97  0018                     	;# 
    98  0019                     	;# 
    99  001A                     	;# 
   100  001B                     	;# 
   101  001B                     	;# 
   102  001C                     	;# 
   103  001D                     	;# 
   104  001E                     	;# 
   105  001F                     	;# 
   106  0081                     	;# 
   107  0085                     	;# 
   108  0086                     	;# 
   109  0087                     	;# 
   110  0088                     	;# 
   111  0089                     	;# 
   112  008C                     	;# 
   113  008D                     	;# 
   114  008E                     	;# 
   115  008F                     	;# 
   116  0090                     	;# 
   117  0091                     	;# 
   118  0092                     	;# 
   119  0093                     	;# 
   120  0093                     	;# 
   121  0093                     	;# 
   122  0094                     	;# 
   123  0095                     	;# 
   124  0096                     	;# 
   125  0097                     	;# 
   126  0098                     	;# 
   127  0099                     	;# 
   128  009A                     	;# 
   129  009B                     	;# 
   130  009C                     	;# 
   131  009D                     	;# 
   132  009E                     	;# 
   133  009F                     	;# 
   134  0105                     	;# 
   135  0107                     	;# 
   136  0108                     	;# 
   137  0109                     	;# 
   138  010C                     	;# 
   139  010C                     	;# 
   140  010D                     	;# 
   141  010E                     	;# 
   142  010F                     	;# 
   143  0185                     	;# 
   144  0187                     	;# 
   145  0188                     	;# 
   146  0189                     	;# 
   147  018C                     	;# 
   148  018D                     	;# 
   149  0000                     	;# 
   150  0001                     	;# 
   151  0002                     	;# 
   152  0003                     	;# 
   153  0004                     	;# 
   154  0005                     	;# 
   155  0006                     	;# 
   156  0007                     	;# 
   157  0008                     	;# 
   158  0009                     	;# 
   159  000A                     	;# 
   160  000B                     	;# 
   161  000C                     	;# 
   162  000D                     	;# 
   163  000E                     	;# 
   164  000E                     	;# 
   165  000F                     	;# 
   166  0010                     	;# 
   167  0011                     	;# 
   168  0012                     	;# 
   169  0013                     	;# 
   170  0014                     	;# 
   171  0015                     	;# 
   172  0015                     	;# 
   173  0016                     	;# 
   174  0017                     	;# 
   175  0018                     	;# 
   176  0019                     	;# 
   177  001A                     	;# 
   178  001B                     	;# 
   179  001B                     	;# 
   180  001C                     	;# 
   181  001D                     	;# 
   182  001E                     	;# 
   183  001F                     	;# 
   184  0081                     	;# 
   185  0085                     	;# 
   186  0086                     	;# 
   187  0087                     	;# 
   188  0088                     	;# 
   189  0089                     	;# 
   190  008C                     	;# 
   191  008D                     	;# 
   192  008E                     	;# 
   193  008F                     	;# 
   194  0090                     	;# 
   195  0091                     	;# 
   196  0092                     	;# 
   197  0093                     	;# 
   198  0093                     	;# 
   199  0093                     	;# 
   200  0094                     	;# 
   201  0095                     	;# 
   202  0096                     	;# 
   203  0097                     	;# 
   204  0098                     	;# 
   205  0099                     	;# 
   206  009A                     	;# 
   207  009B                     	;# 
   208  009C                     	;# 
   209  009D                     	;# 
   210  009E                     	;# 
   211  009F                     	;# 
   212  0105                     	;# 
   213  0107                     	;# 
   214  0108                     	;# 
   215  0109                     	;# 
   216  010C                     	;# 
   217  010C                     	;# 
   218  010D                     	;# 
   219  010E                     	;# 
   220  010F                     	;# 
   221  0185                     	;# 
   222  0187                     	;# 
   223  0188                     	;# 
   224  0189                     	;# 
   225  018C                     	;# 
   226  018D                     	;# 
   227  0000                     	;# 
   228  0001                     	;# 
   229  0002                     	;# 
   230  0003                     	;# 
   231  0004                     	;# 
   232  0005                     	;# 
   233  0006                     	;# 
   234  0007                     	;# 
   235  0008                     	;# 
   236  0009                     	;# 
   237  000A                     	;# 
   238  000B                     	;# 
   239  000C                     	;# 
   240  000D                     	;# 
   241  000E                     	;# 
   242  000E                     	;# 
   243  000F                     	;# 
   244  0010                     	;# 
   245  0011                     	;# 
   246  0012                     	;# 
   247  0013                     	;# 
   248  0014                     	;# 
   249  0015                     	;# 
   250  0015                     	;# 
   251  0016                     	;# 
   252  0017                     	;# 
   253  0018                     	;# 
   254  0019                     	;# 
   255  001A                     	;# 
   256  001B                     	;# 
   257  001B                     	;# 
   258  001C                     	;# 
   259  001D                     	;# 
   260  001E                     	;# 
   261  001F                     	;# 
   262  0081                     	;# 
   263  0085                     	;# 
   264  0086                     	;# 
   265  0087                     	;# 
   266  0088                     	;# 
   267  0089                     	;# 
   268  008C                     	;# 
   269  008D                     	;# 
   270  008E                     	;# 
   271  008F                     	;# 
   272  0090                     	;# 
   273  0091                     	;# 
   274  0092                     	;# 
   275  0093                     	;# 
   276  0093                     	;# 
   277  0093                     	;# 
   278  0094                     	;# 
   279  0095                     	;# 
   280  0096                     	;# 
   281  0097                     	;# 
   282  0098                     	;# 
   283  0099                     	;# 
   284  009A                     	;# 
   285  009B                     	;# 
   286  009C                     	;# 
   287  009D                     	;# 
   288  009E                     	;# 
   289  009F                     	;# 
   290  0105                     	;# 
   291  0107                     	;# 
   292  0108                     	;# 
   293  0109                     	;# 
   294  010C                     	;# 
   295  010C                     	;# 
   296  010D                     	;# 
   297  010E                     	;# 
   298  010F                     	;# 
   299  0185                     	;# 
   300  0187                     	;# 
   301  0188                     	;# 
   302  0189                     	;# 
   303  018C                     	;# 
   304  018D                     	;# 
   305  0000                     	;# 
   306  0001                     	;# 
   307  0002                     	;# 
   308  0003                     	;# 
   309  0004                     	;# 
   310  0005                     	;# 
   311  0006                     	;# 
   312  0007                     	;# 
   313  0008                     	;# 
   314  0009                     	;# 
   315  000A                     	;# 
   316  000B                     	;# 
   317  000C                     	;# 
   318  000D                     	;# 
   319  000E                     	;# 
   320  000E                     	;# 
   321  000F                     	;# 
   322  0010                     	;# 
   323  0011                     	;# 
   324  0012                     	;# 
   325  0013                     	;# 
   326  0014                     	;# 
   327  0015                     	;# 
   328  0015                     	;# 
   329  0016                     	;# 
   330  0017                     	;# 
   331  0018                     	;# 
   332  0019                     	;# 
   333  001A                     	;# 
   334  001B                     	;# 
   335  001B                     	;# 
   336  001C                     	;# 
   337  001D                     	;# 
   338  001E                     	;# 
   339  001F                     	;# 
   340  0081                     	;# 
   341  0085                     	;# 
   342  0086                     	;# 
   343  0087                     	;# 
   344  0088                     	;# 
   345  0089                     	;# 
   346  008C                     	;# 
   347  008D                     	;# 
   348  008E                     	;# 
   349  008F                     	;# 
   350  0090                     	;# 
   351  0091                     	;# 
   352  0092                     	;# 
   353  0093                     	;# 
   354  0093                     	;# 
   355  0093                     	;# 
   356  0094                     	;# 
   357  0095                     	;# 
   358  0096                     	;# 
   359  0097                     	;# 
   360  0098                     	;# 
   361  0099                     	;# 
   362  009A                     	;# 
   363  009B                     	;# 
   364  009C                     	;# 
   365  009D                     	;# 
   366  009E                     	;# 
   367  009F                     	;# 
   368  0105                     	;# 
   369  0107                     	;# 
   370  0108                     	;# 
   371  0109                     	;# 
   372  010C                     	;# 
   373  010C                     	;# 
   374  010D                     	;# 
   375  010E                     	;# 
   376  010F                     	;# 
   377  0185                     	;# 
   378  0187                     	;# 
   379  0188                     	;# 
   380  0189                     	;# 
   381  018C                     	;# 
   382  018D                     	;# 
   383  0000                     	;# 
   384  0001                     	;# 
   385  0002                     	;# 
   386  0003                     	;# 
   387  0004                     	;# 
   388  0005                     	;# 
   389  0006                     	;# 
   390  0007                     	;# 
   391  0008                     	;# 
   392  0009                     	;# 
   393  000A                     	;# 
   394  000B                     	;# 
   395  000C                     	;# 
   396  000D                     	;# 
   397  000E                     	;# 
   398  000E                     	;# 
   399  000F                     	;# 
   400  0010                     	;# 
   401  0011                     	;# 
   402  0012                     	;# 
   403  0013                     	;# 
   404  0014                     	;# 
   405  0015                     	;# 
   406  0015                     	;# 
   407  0016                     	;# 
   408  0017                     	;# 
   409  0018                     	;# 
   410  0019                     	;# 
   411  001A                     	;# 
   412  001B                     	;# 
   413  001B                     	;# 
   414  001C                     	;# 
   415  001D                     	;# 
   416  001E                     	;# 
   417  001F                     	;# 
   418  0081                     	;# 
   419  0085                     	;# 
   420  0086                     	;# 
   421  0087                     	;# 
   422  0088                     	;# 
   423  0089                     	;# 
   424  008C                     	;# 
   425  008D                     	;# 
   426  008E                     	;# 
   427  008F                     	;# 
   428  0090                     	;# 
   429  0091                     	;# 
   430  0092                     	;# 
   431  0093                     	;# 
   432  0093                     	;# 
   433  0093                     	;# 
   434  0094                     	;# 
   435  0095                     	;# 
   436  0096                     	;# 
   437  0097                     	;# 
   438  0098                     	;# 
   439  0099                     	;# 
   440  009A                     	;# 
   441  009B                     	;# 
   442  009C                     	;# 
   443  009D                     	;# 
   444  009E                     	;# 
   445  009F                     	;# 
   446  0105                     	;# 
   447  0107                     	;# 
   448  0108                     	;# 
   449  0109                     	;# 
   450  010C                     	;# 
   451  010C                     	;# 
   452  010D                     	;# 
   453  010E                     	;# 
   454  010F                     	;# 
   455  0185                     	;# 
   456  0187                     	;# 
   457  0188                     	;# 
   458  0189                     	;# 
   459  018C                     	;# 
   460  018D                     	;# 
   461                           
   462                           	psect	strings
   463  07C8                     __pstrings:	
   464  07C8                     stringtab:	
   465  07C8                     __stringtab:	
   466                           
   467                           ;	String table - string pointers are 1 byte each
   468  07C8  1BFF               	btfsc	btemp+1,7
   469  07C9  2FD2               	ljmp	stringcode
   470  07CA  1383               	bcf	3,7
   471  07CB  187F               	btfsc	btemp+1,0
   472  07CC  1783               	bsf	3,7
   473  07CD  0800               	movf	0,w
   474  07CE  0A84               	incf	4,f
   475  07CF  1903               	skipnz
   476  07D0  0AFF               	incf	btemp+1,f
   477  07D1  0008               	return
   478  07D2                     stringcode:	
   479  07D2                     stringdir:	
   480  07D2  3007               	movlw	high stringdir
   481  07D3  008A               	movwf	10
   482  07D4  0804               	movf	4,w
   483  07D5  0A84               	incf	4,f
   484  07D6  0782               	addwf	2,f
   485  07D7                     __stringbase:	
   486  07D7  3400               	retlw	0
   487  07D8                     __end_of__stringtab:	
   488  07D8                     _dpowers:	
   489  07D8  3401               	retlw	1
   490  07D9  3400               	retlw	0
   491  07DA  340A               	retlw	10
   492  07DB  3400               	retlw	0
   493  07DC  3464               	retlw	100
   494  07DD  3400               	retlw	0
   495  07DE  34E8               	retlw	232
   496  07DF  3403               	retlw	3
   497  07E0  3410               	retlw	16
   498  07E1  3427               	retlw	39
   499  07E2                     __end_of_dpowers:	
   500  0006                     _PORTBbits	set	6
   501  000B                     _INTCON	set	11
   502  0008                     _PORTD	set	8
   503  0007                     _PORTC	set	7
   504  0006                     _PORTB	set	6
   505  0005                     _PORTA	set	5
   506  001F                     _ADCON0bits	set	31
   507  001E                     _ADRESH	set	30
   508  000C                     _PIR1bits	set	12
   509  000B                     _INTCONbits	set	11
   510  008C                     _PIE1bits	set	140
   511  009F                     _ADCON1bits	set	159
   512  0085                     _TRISAbits	set	133
   513  0087                     _TRISC	set	135
   514  0088                     _TRISD	set	136
   515  0086                     _TRISB	set	134
   516  008F                     _OSCCONbits	set	143
   517  0188                     _ANSEL	set	392
   518  0189                     _ANSELH	set	393
   519  07E2                     STR_1:	
   520  07E2  3450               	retlw	80	;'P'
   521  07E3  344F               	retlw	79	;'O'
   522  07E4  3454               	retlw	84	;'T'
   523  07E5  3431               	retlw	49	;'1'
   524  07E6  3400               	retlw	0
   525  07E7                     STR_2:	
   526  07E7  3450               	retlw	80	;'P'
   527  07E8  344F               	retlw	79	;'O'
   528  07E9  3454               	retlw	84	;'T'
   529  07EA  3432               	retlw	50	;'2'
   530  07EB  3400               	retlw	0
   531  07EC                     STR_3:	
   532  07EC  3443               	retlw	67	;'C'
   533  07ED  344F               	retlw	79	;'O'
   534  07EE  344E               	retlw	78	;'N'
   535  07EF  3454               	retlw	84	;'T'
   536  07F0  3400               	retlw	0
   537  07F1                     STR_7:	
   538  07F1  3425               	retlw	37	;'%'
   539  07F2  3464               	retlw	100	;'d'
   540  07F3  3400               	retlw	0
   541  07F4                     STR_4:	
   542  07F4  342E               	retlw	46	;'.'
   543  07F5  3400               	retlw	0
   544  07F6                     STR_5:	
   545  07F6  3430               	retlw	48	;'0'
   546  07F7  3400               	retlw	0
   547  07F4                     
   548                           ; #config settings
   549  0000                     
   550                           	psect	cinit
   551  000F                     start_initialization:	
   552  000F                     __initialization:	
   553                           
   554                           ; Clear objects allocated to COMMON
   555  000F  01FA               	clrf	__pbssCOMMON& (0+127)
   556  0010  01FB               	clrf	(__pbssCOMMON+1)& (0+127)
   557                           
   558                           ; Clear objects allocated to BANK0
   559  0011  1283               	bcf	3,5	;RP0=0, select bank0
   560  0012  1303               	bcf	3,6	;RP1=0, select bank0
   561  0013  01EC               	clrf	__pbssBANK0& (0+127)
   562  0014  01ED               	clrf	(__pbssBANK0+1)& (0+127)
   563  0015  01EE               	clrf	(__pbssBANK0+2)& (0+127)
   564                           
   565                           ; Clear objects allocated to BANK1
   566  0016  1383               	bcf	3,7	;select IRP bank0
   567  0017  30A0               	movlw	low __pbssBANK1
   568  0018  0084               	movwf	4
   569  0019  30B0               	movlw	low (__pbssBANK1+16)
   570  001A  120A  118A  27F8  120A  118A  	fcall	clear_ram0
   571  001F                     end_of_initialization:	
   572                           ;End of C runtime variable initialization code
   573                           
   574  001F                     __end_of__initialization:	
   575  001F  0183               	clrf	3
   576  0020  120A  118A  2B84   	ljmp	_main	;jump to C main() function
   577                           
   578                           	psect	bssCOMMON
   579  007A                     __pbssCOMMON:	
   580  007A                     _dec1:	
   581  007A                     	ds	1
   582  007B                     _adc:	
   583  007B                     	ds	1
   584                           
   585                           	psect	bssBANK0
   586  006C                     __pbssBANK0:	
   587  006C                     _dec2:	
   588  006C                     	ds	1
   589  006D                     _ent2:	
   590  006D                     	ds	1
   591  006E                     _ent1:	
   592  006E                     	ds	1
   593                           
   594                           	psect	bssBANK1
   595  00A0                     __pbssBANK1:	
   596  00A0                     _deci2:	
   597  00A0                     	ds	4
   598  00A4                     _deci1:	
   599  00A4                     	ds	4
   600  00A8                     _pot2:	
   601  00A8                     	ds	4
   602  00AC                     _pot1:	
   603  00AC                     	ds	4
   604                           
   605                           	psect	clrtext
   606  07F8                     clear_ram0:	
   607                           ;	Called with FSR containing the base address, and
   608                           ;	W with the last address+1
   609                           
   610  07F8  0064               	clrwdt	;clear the watchdog before getting into this loop
   611  07F9                     clrloop0:	
   612  07F9  0180               	clrf	0	;clear RAM location pointed to by FSR
   613  07FA  0A84               	incf	4,f	;increment pointer
   614  07FB  0604               	xorwf	4,w	;XOR with final address
   615  07FC  1903               	btfsc	3,2	;have we reached the end yet?
   616  07FD  3400               	retlw	0	;all done for this memory range, return
   617  07FE  0604               	xorwf	4,w	;XOR again to restore value
   618  07FF  2FF9               	goto	clrloop0	;do the next byte
   619                           
   620                           	psect	cstackCOMMON
   621  0070                     __pcstackCOMMON:	
   622  0070                     ?_init:	
   623  0070                     ?_Lcd_Init:	
   624                           ; 1 bytes @ 0x0
   625                           
   626  0070                     ?_Lcd_Clear:	
   627                           ; 1 bytes @ 0x0
   628                           
   629  0070                     ?_ADC1:	
   630                           ; 1 bytes @ 0x0
   631                           
   632  0070                     ?_Lcd_Write_Number:	
   633                           ; 1 bytes @ 0x0
   634                           
   635  0070                     ?_Lcd_Write_Char:	
   636                           ; 1 bytes @ 0x0
   637                           
   638  0070                     ?_ADC2:	
   639                           ; 1 bytes @ 0x0
   640                           
   641  0070                     ?_ISR:	
   642                           ; 1 bytes @ 0x0
   643                           
   644  0070                     ??_ISR:	
   645                           ; 1 bytes @ 0x0
   646                           
   647  0070                     ?_main:	
   648                           ; 1 bytes @ 0x0
   649                           
   650  0070                     ?_Lcd_Cmd:	
   651                           ; 1 bytes @ 0x0
   652                           
   653                           
   654                           ; 1 bytes @ 0x0
   655  0070                     	ds	2
   656  0072                     ??_init:	
   657  0072                     ??_ADC1:	
   658                           ; 1 bytes @ 0x2
   659                           
   660  0072                     ??_Lcd_Write_Char:	
   661                           ; 1 bytes @ 0x2
   662                           
   663  0072                     ??_ADC2:	
   664                           ; 1 bytes @ 0x2
   665                           
   666  0072                     ??_Lcd_Cmd:	
   667                           ; 1 bytes @ 0x2
   668                           
   669  0072                     ?__Umul8_16:	
   670                           ; 1 bytes @ 0x2
   671                           
   672  0072                     ?___lwdiv:	
   673                           ; 2 bytes @ 0x2
   674                           
   675  0072                     ?___fltol:	
   676                           ; 2 bytes @ 0x2
   677                           
   678  0072                     ?___fladd:	
   679                           ; 4 bytes @ 0x2
   680                           
   681  0072                     ?___xxtofl:	
   682                           ; 4 bytes @ 0x2
   683                           
   684  0072                     __Umul8_16@multiplicand:	
   685                           ; 4 bytes @ 0x2
   686                           
   687  0072                     ___lwdiv@divisor:	
   688                           ; 1 bytes @ 0x2
   689                           
   690  0072                     ___fltol@f1:	
   691                           ; 2 bytes @ 0x2
   692                           
   693  0072                     ___fladd@b:	
   694                           ; 4 bytes @ 0x2
   695                           
   696  0072                     ___xxtofl@val:	
   697                           ; 4 bytes @ 0x2
   698                           
   699                           
   700                           ; 4 bytes @ 0x2
   701  0072                     	ds	1
   702  0073                     Lcd_Write_Char@a:	
   703                           
   704                           ; 1 bytes @ 0x3
   705  0073                     	ds	1
   706  0074                     ?_Lcd_Write_String:	
   707  0074                     ??__Umul8_16:	
   708                           ; 1 bytes @ 0x4
   709                           
   710  0074                     Lcd_Cmd@z:	
   711                           ; 1 bytes @ 0x4
   712                           
   713  0074                     Lcd_Write_String@a:	
   714                           ; 1 bytes @ 0x4
   715                           
   716  0074                     ___lwdiv@dividend:	
   717                           ; 2 bytes @ 0x4
   718                           
   719                           
   720                           ; 2 bytes @ 0x4
   721  0074                     	ds	1
   722  0075                     ??_Lcd_Init:	
   723  0075                     ??_Lcd_Clear:	
   724                           ; 1 bytes @ 0x5
   725                           
   726  0075                     ?_Lcd_Set_Cursor:	
   727                           ; 1 bytes @ 0x5
   728                           
   729  0075                     Lcd_Set_Cursor@y:	
   730                           ; 1 bytes @ 0x5
   731                           
   732                           
   733                           ; 1 bytes @ 0x5
   734  0075                     	ds	1
   735  0076                     ??_Lcd_Set_Cursor:	
   736  0076                     ??_Lcd_Write_String:	
   737                           ; 1 bytes @ 0x6
   738                           
   739  0076                     ??___lwdiv:	
   740                           ; 1 bytes @ 0x6
   741                           
   742  0076                     ??___xxtofl:	
   743                           ; 1 bytes @ 0x6
   744                           
   745  0076                     ___fltol@sign1:	
   746                           ; 1 bytes @ 0x6
   747                           
   748  0076                     ___fladd@a:	
   749                           ; 1 bytes @ 0x6
   750                           
   751                           
   752                           ; 4 bytes @ 0x6
   753  0076                     	ds	1
   754  0077                     Lcd_Set_Cursor@x:	
   755  0077                     ___fltol@exp1:	
   756                           ; 1 bytes @ 0x7
   757                           
   758  0077                     ___lwdiv@quotient:	
   759                           ; 1 bytes @ 0x7
   760                           
   761                           
   762                           ; 2 bytes @ 0x7
   763  0077                     	ds	1
   764  0078                     Lcd_Set_Cursor@temp:	
   765                           
   766                           ; 1 bytes @ 0x8
   767  0078                     	ds	1
   768  0079                     ___lwdiv@counter:	
   769                           
   770                           ; 1 bytes @ 0x9
   771  0079                     	ds	1
   772  007A                     ??___flsub:	
   773                           
   774                           	psect	cstackBANK0
   775  0020                     __pcstackBANK0:	
   776                           ; 1 bytes @ 0xA
   777                           
   778  0020                     ??___fltol:	
   779  0020                     ??___fladd:	
   780                           ; 1 bytes @ 0x0
   781                           
   782  0020                     ?___lwmod:	
   783                           ; 1 bytes @ 0x0
   784                           
   785  0020                     ___xxtofl@sign:	
   786                           ; 2 bytes @ 0x0
   787                           
   788  0020                     Lcd_Write_String@i:	
   789                           ; 1 bytes @ 0x0
   790                           
   791  0020                     ___lwmod@divisor:	
   792                           ; 2 bytes @ 0x0
   793                           
   794  0020                     __Umul8_16@product:	
   795                           ; 2 bytes @ 0x0
   796                           
   797                           
   798                           ; 2 bytes @ 0x0
   799  0020                     	ds	1
   800  0021                     ___xxtofl@exp:	
   801                           
   802                           ; 1 bytes @ 0x1
   803  0021                     	ds	1
   804  0022                     ___lwmod@dividend:	
   805  0022                     __Umul8_16@word_mpld:	
   806                           ; 2 bytes @ 0x2
   807                           
   808  0022                     ___xxtofl@arg:	
   809                           ; 2 bytes @ 0x2
   810                           
   811                           
   812                           ; 4 bytes @ 0x2
   813  0022                     	ds	2
   814  0024                     ??___lwmod:	
   815  0024                     __Umul8_16@multiplier:	
   816                           ; 1 bytes @ 0x4
   817                           
   818                           
   819                           ; 1 bytes @ 0x4
   820  0024                     	ds	1
   821  0025                     ___lwmod@counter:	
   822                           
   823                           ; 1 bytes @ 0x5
   824  0025                     	ds	1
   825  0026                     ?_sprintf:	
   826  0026                     sprintf@f:	
   827                           ; 2 bytes @ 0x6
   828                           
   829                           
   830                           ; 1 bytes @ 0x6
   831  0026                     	ds	2
   832  0028                     ___fladd@signs:	
   833                           
   834                           ; 1 bytes @ 0x8
   835  0028                     	ds	1
   836  0029                     ??_sprintf:	
   837  0029                     ___fladd@aexp:	
   838                           ; 1 bytes @ 0x9
   839                           
   840                           
   841                           ; 1 bytes @ 0x9
   842  0029                     	ds	1
   843  002A                     ___fladd@bexp:	
   844                           
   845                           ; 1 bytes @ 0xA
   846  002A                     	ds	1
   847  002B                     ___fladd@grs:	
   848                           
   849                           ; 1 bytes @ 0xB
   850  002B                     	ds	1
   851  002C                     ?___flsub:	
   852  002C                     sprintf@ap:	
   853                           ; 4 bytes @ 0xC
   854                           
   855  002C                     ___flsub@a:	
   856                           ; 1 bytes @ 0xC
   857                           
   858                           
   859                           ; 4 bytes @ 0xC
   860  002C                     	ds	1
   861  002D                     sprintf@flag:	
   862                           
   863                           ; 1 bytes @ 0xD
   864  002D                     	ds	1
   865  002E                     sprintf@prec:	
   866                           
   867                           ; 1 bytes @ 0xE
   868  002E                     	ds	1
   869  002F                     sprintf@val:	
   870                           
   871                           ; 2 bytes @ 0xF
   872  002F                     	ds	1
   873  0030                     ___flsub@b:	
   874                           
   875                           ; 4 bytes @ 0x10
   876  0030                     	ds	1
   877  0031                     sprintf@sp:	
   878                           
   879                           ; 1 bytes @ 0x11
   880  0031                     	ds	1
   881  0032                     sprintf@c:	
   882                           
   883                           ; 1 bytes @ 0x12
   884  0032                     	ds	1
   885  0033                     ??_Lcd_Write_Number:	
   886                           
   887                           ; 1 bytes @ 0x13
   888  0033                     	ds	1
   889  0034                     ?___flmul:	
   890  0034                     ___flmul@b:	
   891                           ; 4 bytes @ 0x14
   892                           
   893                           
   894                           ; 4 bytes @ 0x14
   895  0034                     	ds	2
   896  0036                     Lcd_Write_Number@str:	
   897                           
   898                           ; 4 bytes @ 0x16
   899  0036                     	ds	2
   900  0038                     ___flmul@a:	
   901                           
   902                           ; 4 bytes @ 0x18
   903  0038                     	ds	2
   904  003A                     Lcd_Write_Number@var:	
   905                           
   906                           ; 1 bytes @ 0x1A
   907  003A                     	ds	2
   908  003C                     ??___flmul:	
   909                           
   910                           ; 1 bytes @ 0x1C
   911  003C                     	ds	5
   912  0041                     ___flmul@sign:	
   913                           
   914                           ; 1 bytes @ 0x21
   915  0041                     	ds	1
   916  0042                     ___flmul@aexp:	
   917                           
   918                           ; 1 bytes @ 0x22
   919  0042                     	ds	1
   920  0043                     ___flmul@grs:	
   921                           
   922                           ; 4 bytes @ 0x23
   923  0043                     	ds	4
   924  0047                     ___flmul@bexp:	
   925                           
   926                           ; 1 bytes @ 0x27
   927  0047                     	ds	1
   928  0048                     ___flmul@prod:	
   929                           
   930                           ; 4 bytes @ 0x28
   931  0048                     	ds	4
   932  004C                     ___flmul@temp:	
   933                           
   934                           ; 2 bytes @ 0x2C
   935  004C                     	ds	2
   936  004E                     ?___fldiv:	
   937  004E                     ___fldiv@a:	
   938                           ; 4 bytes @ 0x2E
   939                           
   940                           
   941                           ; 4 bytes @ 0x2E
   942  004E                     	ds	4
   943  0052                     ___fldiv@b:	
   944                           
   945                           ; 4 bytes @ 0x32
   946  0052                     	ds	4
   947  0056                     ??___fldiv:	
   948                           
   949                           ; 1 bytes @ 0x36
   950  0056                     	ds	5
   951  005B                     ___fldiv@rem:	
   952                           
   953                           ; 4 bytes @ 0x3B
   954  005B                     	ds	4
   955  005F                     ___fldiv@sign:	
   956                           
   957                           ; 1 bytes @ 0x3F
   958  005F                     	ds	1
   959  0060                     ___fldiv@new_exp:	
   960                           
   961                           ; 2 bytes @ 0x40
   962  0060                     	ds	2
   963  0062                     ___fldiv@grs:	
   964                           
   965                           ; 4 bytes @ 0x42
   966  0062                     	ds	4
   967  0066                     ___fldiv@bexp:	
   968                           
   969                           ; 1 bytes @ 0x46
   970  0066                     	ds	1
   971  0067                     ___fldiv@aexp:	
   972                           
   973                           ; 1 bytes @ 0x47
   974  0067                     	ds	1
   975  0068                     ??_main:	
   976                           
   977                           ; 1 bytes @ 0x48
   978  0068                     	ds	4
   979                           
   980                           	psect	maintext
   981  0384                     __pmaintext:	
   982 ;;
   983 ;;Main: autosize = 0, tempsize = 4, incstack = 0, save=0
   984 ;;
   985 ;; *************** function _main *****************
   986 ;; Defined at:
   987 ;;		line 72 in file "main.c"
   988 ;; Parameters:    Size  Location     Type
   989 ;;		None
   990 ;; Auto vars:     Size  Location     Type
   991 ;;		None
   992 ;; Return value:  Size  Location     Type
   993 ;;                  1    wreg      void 
   994 ;; Registers used:
   995 ;;		wreg, fsr0l, fsr0h, status,2, status,0, btemp+1, pclath, cstack
   996 ;; Tracked objects:
   997 ;;		On entry : B00/0
   998 ;;		On exit  : 0/0
   999 ;;		Unchanged: 0/0
  1000 ;; Data sizes:     COMMON   BANK0   BANK1   BANK3   BANK2
  1001 ;;      Params:         0       0       0       0       0
  1002 ;;      Locals:         0       0       0       0       0
  1003 ;;      Temps:          0       4       0       0       0
  1004 ;;      Totals:         0       4       0       0       0
  1005 ;;Total ram usage:        4 bytes
  1006 ;; Hardware stack levels required when called:    4
  1007 ;; This function calls:
  1008 ;;		_ADC1
  1009 ;;		_ADC2
  1010 ;;		_Lcd_Clear
  1011 ;;		_Lcd_Init
  1012 ;;		_Lcd_Set_Cursor
  1013 ;;		_Lcd_Write_Char
  1014 ;;		_Lcd_Write_Number
  1015 ;;		_Lcd_Write_String
  1016 ;;		___fldiv
  1017 ;;		___flmul
  1018 ;;		___flsub
  1019 ;;		___fltol
  1020 ;;		___xxtofl
  1021 ;;		_init
  1022 ;; This function is called by:
  1023 ;;		Startup code after reset
  1024 ;; This function uses a non-reentrant model
  1025 ;;
  1026                           
  1027                           
  1028                           ;psect for function _main
  1029  0384                     _main:	
  1030  0384                     l2894:	
  1031                           ;incstack = 0
  1032                           ; Regs used in _main: [wreg-fsr0h+status,2+status,0+btemp+1+pclath+cstack]
  1033                           
  1034                           
  1035                           ;main.c: 75:     init();
  1036  0384  120A  158A  2121  120A  118A  	fcall	_init
  1037                           
  1038                           ;main.c: 76:     Lcd_Init();
  1039  0389  120A  158A  2291  120A  118A  	fcall	_Lcd_Init
  1040                           
  1041                           ;main.c: 77:     Lcd_Clear();
  1042  038E  120A  158A  20AD  120A  118A  	fcall	_Lcd_Clear
  1043                           
  1044                           ;main.c: 78:     Lcd_Set_Cursor(1, 1);
  1045  0393  01F5               	clrf	Lcd_Set_Cursor@y
  1046  0394  0AF5               	incf	Lcd_Set_Cursor@y,f
  1047  0395  3001               	movlw	1
  1048  0396  120A  158A  215A  120A  118A  	fcall	_Lcd_Set_Cursor
  1049  039B                     l2896:	
  1050                           
  1051                           ;main.c: 79:     Lcd_Write_String("POT1");
  1052  039B  300B               	movlw	(low ((STR_1-__stringbase)| (0+32768)))& (0+255)
  1053  039C  00F4               	movwf	Lcd_Write_String@a
  1054  039D  3080               	movlw	128
  1055  039E  00F5               	movwf	Lcd_Write_String@a+1
  1056  039F  120A  158A  224B  120A  118A  	fcall	_Lcd_Write_String
  1057  03A4                     l2898:	
  1058                           
  1059                           ;main.c: 80:     Lcd_Set_Cursor(1, 6);
  1060  03A4  3006               	movlw	6
  1061  03A5  1283               	bcf	3,5	;RP0=0, select bank0
  1062  03A6  1303               	bcf	3,6	;RP1=0, select bank0
  1063  03A7  00E8               	movwf	??_main
  1064  03A8  0868               	movf	??_main,w
  1065  03A9  00F5               	movwf	Lcd_Set_Cursor@y
  1066  03AA  3001               	movlw	1
  1067  03AB  120A  158A  215A  120A  118A  	fcall	_Lcd_Set_Cursor
  1068                           
  1069                           ;main.c: 81:     Lcd_Write_String("POT2");
  1070  03B0  3010               	movlw	(low ((STR_2-__stringbase)| (0+32768)))& (0+255)
  1071  03B1  00F4               	movwf	Lcd_Write_String@a
  1072  03B2  3080               	movlw	128
  1073  03B3  00F5               	movwf	Lcd_Write_String@a+1
  1074  03B4  120A  158A  224B  120A  118A  	fcall	_Lcd_Write_String
  1075  03B9                     l2900:	
  1076                           
  1077                           ;main.c: 82:     Lcd_Set_Cursor(1, 11);
  1078  03B9  300B               	movlw	11
  1079  03BA  1283               	bcf	3,5	;RP0=0, select bank0
  1080  03BB  1303               	bcf	3,6	;RP1=0, select bank0
  1081  03BC  00E8               	movwf	??_main
  1082  03BD  0868               	movf	??_main,w
  1083  03BE  00F5               	movwf	Lcd_Set_Cursor@y
  1084  03BF  3001               	movlw	1
  1085  03C0  120A  158A  215A  120A  118A  	fcall	_Lcd_Set_Cursor
  1086  03C5                     l2902:	
  1087                           
  1088                           ;main.c: 83:     Lcd_Write_String("CONT");
  1089  03C5  3015               	movlw	(low ((STR_3-__stringbase)| (0+32768)))& (0+255)
  1090  03C6  00F4               	movwf	Lcd_Write_String@a
  1091  03C7  3080               	movlw	128
  1092  03C8  00F5               	movwf	Lcd_Write_String@a+1
  1093  03C9  120A  158A  224B  120A  118A  	fcall	_Lcd_Write_String
  1094  03CE                     l81:	
  1095                           ;main.c: 85:     while(1){
  1096                           
  1097                           
  1098                           ;main.c: 86:         ADC1();
  1099  03CE  120A  158A  20F1  120A  118A  	fcall	_ADC1
  1100  03D3                     l2904:	
  1101                           
  1102                           ;main.c: 87:         if(adc == 1){
  1103  03D3  037B               	decf	_adc,w
  1104  03D4  1D03               	btfss	3,2
  1105  03D5  2BD7               	goto	u4021
  1106  03D6  2BD8               	goto	u4020
  1107  03D7                     u4021:	
  1108  03D7  2BFB               	goto	l2912
  1109  03D8                     u4020:	
  1110  03D8                     l2906:	
  1111                           
  1112                           ;main.c: 88:             pot1 = ADRESH;
  1113  03D8  1283               	bcf	3,5	;RP0=0, select bank0
  1114  03D9  1303               	bcf	3,6	;RP1=0, select bank0
  1115  03DA  081E               	movf	30,w	;volatile
  1116  03DB  00E8               	movwf	??_main
  1117  03DC  01E9               	clrf	??_main+1
  1118  03DD  01EA               	clrf	??_main+2
  1119  03DE  01EB               	clrf	??_main+3
  1120  03DF  086B               	movf	??_main+3,w
  1121  03E0  00F5               	movwf	___xxtofl@val+3
  1122  03E1  086A               	movf	??_main+2,w
  1123  03E2  00F4               	movwf	___xxtofl@val+2
  1124  03E3  0869               	movf	??_main+1,w
  1125  03E4  00F3               	movwf	___xxtofl@val+1
  1126  03E5  0868               	movf	??_main,w
  1127  03E6  00F2               	movwf	___xxtofl@val
  1128  03E7  3000               	movlw	0
  1129  03E8  120A  158A  22DF  120A  118A  	fcall	___xxtofl
  1130  03ED  0875               	movf	?___xxtofl+3,w
  1131  03EE  1683               	bsf	3,5	;RP0=1, select bank1
  1132  03EF  1303               	bcf	3,6	;RP1=0, select bank1
  1133  03F0  00AF               	movwf	(_pot1+3)^(0+128)
  1134  03F1  0874               	movf	?___xxtofl+2,w
  1135  03F2  00AE               	movwf	(_pot1+2)^(0+128)
  1136  03F3  0873               	movf	?___xxtofl+1,w
  1137  03F4  00AD               	movwf	(_pot1+1)^(0+128)
  1138  03F5  0872               	movf	?___xxtofl,w
  1139  03F6  00AC               	movwf	_pot1^(0+128)
  1140  03F7                     l2908:	
  1141                           
  1142                           ;main.c: 89:             adc = 0;
  1143  03F7  01FB               	clrf	_adc
  1144  03F8                     l2910:	
  1145                           
  1146                           ;main.c: 90:             ADCON0bits.GO_DONE = 1;
  1147  03F8  1283               	bcf	3,5	;RP0=0, select bank0
  1148  03F9  1303               	bcf	3,6	;RP1=0, select bank0
  1149  03FA  149F               	bsf	31,1	;volatile
  1150  03FB                     l2912:	
  1151                           
  1152                           ;main.c: 92:         pot1 = (pot1)* 5/255;
  1153  03FB  3043               	movlw	67
  1154  03FC  1283               	bcf	3,5	;RP0=0, select bank0
  1155  03FD  1303               	bcf	3,6	;RP1=0, select bank0
  1156  03FE  00D1               	movwf	___fldiv@a+3
  1157  03FF  307F               	movlw	127
  1158  0400  00D0               	movwf	___fldiv@a+2
  1159  0401  3000               	movlw	0
  1160  0402  00CF               	movwf	___fldiv@a+1
  1161  0403  3000               	movlw	0
  1162  0404  00CE               	movwf	___fldiv@a
  1163  0405  3040               	movlw	64
  1164  0406  00B7               	movwf	___flmul@b+3
  1165  0407  30A0               	movlw	160
  1166  0408  00B6               	movwf	___flmul@b+2
  1167  0409  3000               	movlw	0
  1168  040A  00B5               	movwf	___flmul@b+1
  1169  040B  3000               	movlw	0
  1170  040C  00B4               	movwf	___flmul@b
  1171  040D  1683               	bsf	3,5	;RP0=1, select bank1
  1172  040E  1303               	bcf	3,6	;RP1=0, select bank1
  1173  040F  082F               	movf	(_pot1+3)^(0+128),w
  1174  0410  1283               	bcf	3,5	;RP0=0, select bank0
  1175  0411  1303               	bcf	3,6	;RP1=0, select bank0
  1176  0412  00BB               	movwf	___flmul@a+3
  1177  0413  1683               	bsf	3,5	;RP0=1, select bank1
  1178  0414  1303               	bcf	3,6	;RP1=0, select bank1
  1179  0415  082E               	movf	(_pot1+2)^(0+128),w
  1180  0416  1283               	bcf	3,5	;RP0=0, select bank0
  1181  0417  1303               	bcf	3,6	;RP1=0, select bank0
  1182  0418  00BA               	movwf	___flmul@a+2
  1183  0419  1683               	bsf	3,5	;RP0=1, select bank1
  1184  041A  1303               	bcf	3,6	;RP1=0, select bank1
  1185  041B  082D               	movf	(_pot1+1)^(0+128),w
  1186  041C  1283               	bcf	3,5	;RP0=0, select bank0
  1187  041D  1303               	bcf	3,6	;RP1=0, select bank0
  1188  041E  00B9               	movwf	___flmul@a+1
  1189  041F  1683               	bsf	3,5	;RP0=1, select bank1
  1190  0420  1303               	bcf	3,6	;RP1=0, select bank1
  1191  0421  082C               	movf	_pot1^(0+128),w
  1192  0422  1283               	bcf	3,5	;RP0=0, select bank0
  1193  0423  1303               	bcf	3,6	;RP1=0, select bank0
  1194  0424  00B8               	movwf	___flmul@a
  1195  0425  120A  118A  2023  120A  118A  	fcall	___flmul
  1196  042A  1283               	bcf	3,5	;RP0=0, select bank0
  1197  042B  1303               	bcf	3,6	;RP1=0, select bank0
  1198  042C  0837               	movf	?___flmul+3,w
  1199  042D  00D5               	movwf	___fldiv@b+3
  1200  042E  0836               	movf	?___flmul+2,w
  1201  042F  00D4               	movwf	___fldiv@b+2
  1202  0430  0835               	movf	?___flmul+1,w
  1203  0431  00D3               	movwf	___fldiv@b+1
  1204  0432  0834               	movf	?___flmul,w
  1205  0433  00D2               	movwf	___fldiv@b
  1206  0434  120A  158A  239B  120A  118A  	fcall	___fldiv
  1207  0439  1283               	bcf	3,5	;RP0=0, select bank0
  1208  043A  1303               	bcf	3,6	;RP1=0, select bank0
  1209  043B  0851               	movf	?___fldiv+3,w
  1210  043C  1683               	bsf	3,5	;RP0=1, select bank1
  1211  043D  1303               	bcf	3,6	;RP1=0, select bank1
  1212  043E  00AF               	movwf	(_pot1+3)^(0+128)
  1213  043F  1283               	bcf	3,5	;RP0=0, select bank0
  1214  0440  1303               	bcf	3,6	;RP1=0, select bank0
  1215  0441  0850               	movf	?___fldiv+2,w
  1216  0442  1683               	bsf	3,5	;RP0=1, select bank1
  1217  0443  1303               	bcf	3,6	;RP1=0, select bank1
  1218  0444  00AE               	movwf	(_pot1+2)^(0+128)
  1219  0445  1283               	bcf	3,5	;RP0=0, select bank0
  1220  0446  1303               	bcf	3,6	;RP1=0, select bank0
  1221  0447  084F               	movf	?___fldiv+1,w
  1222  0448  1683               	bsf	3,5	;RP0=1, select bank1
  1223  0449  1303               	bcf	3,6	;RP1=0, select bank1
  1224  044A  00AD               	movwf	(_pot1+1)^(0+128)
  1225  044B  1283               	bcf	3,5	;RP0=0, select bank0
  1226  044C  1303               	bcf	3,6	;RP1=0, select bank0
  1227  044D  084E               	movf	?___fldiv,w
  1228  044E  1683               	bsf	3,5	;RP0=1, select bank1
  1229  044F  1303               	bcf	3,6	;RP1=0, select bank1
  1230  0450  00AC               	movwf	_pot1^(0+128)
  1231  0451                     l2914:	
  1232                           
  1233                           ;main.c: 93:         ent1 = pot1;
  1234  0451  082F               	movf	(_pot1+3)^(0+128),w
  1235  0452  00F5               	movwf	___fltol@f1+3
  1236  0453  082E               	movf	(_pot1+2)^(0+128),w
  1237  0454  00F4               	movwf	___fltol@f1+2
  1238  0455  082D               	movf	(_pot1+1)^(0+128),w
  1239  0456  00F3               	movwf	___fltol@f1+1
  1240  0457  082C               	movf	_pot1^(0+128),w
  1241  0458  00F2               	movwf	___fltol@f1
  1242  0459  120A  118A  274C  120A  118A  	fcall	___fltol
  1243  045E  0872               	movf	?___fltol,w
  1244  045F  1283               	bcf	3,5	;RP0=0, select bank0
  1245  0460  1303               	bcf	3,6	;RP1=0, select bank0
  1246  0461  00E8               	movwf	??_main
  1247  0462  0868               	movf	??_main,w
  1248  0463  00EE               	movwf	_ent1
  1249  0464                     l2916:	
  1250                           
  1251                           ;main.c: 94:         deci1 = (pot1 - ent1) * 100;
  1252  0464  3042               	movlw	66
  1253  0465  00B7               	movwf	___flmul@b+3
  1254  0466  30C8               	movlw	200
  1255  0467  00B6               	movwf	___flmul@b+2
  1256  0468  3000               	movlw	0
  1257  0469  00B5               	movwf	___flmul@b+1
  1258  046A  3000               	movlw	0
  1259  046B  00B4               	movwf	___flmul@b
  1260  046C  086E               	movf	_ent1,w
  1261  046D  00E8               	movwf	??_main
  1262  046E  01E9               	clrf	??_main+1
  1263  046F  01EA               	clrf	??_main+2
  1264  0470  01EB               	clrf	??_main+3
  1265  0471  086B               	movf	??_main+3,w
  1266  0472  00F5               	movwf	___xxtofl@val+3
  1267  0473  086A               	movf	??_main+2,w
  1268  0474  00F4               	movwf	___xxtofl@val+2
  1269  0475  0869               	movf	??_main+1,w
  1270  0476  00F3               	movwf	___xxtofl@val+1
  1271  0477  0868               	movf	??_main,w
  1272  0478  00F2               	movwf	___xxtofl@val
  1273  0479  3001               	movlw	1
  1274  047A  120A  158A  22DF  120A  118A  	fcall	___xxtofl
  1275  047F  0875               	movf	?___xxtofl+3,w
  1276  0480  1283               	bcf	3,5	;RP0=0, select bank0
  1277  0481  1303               	bcf	3,6	;RP1=0, select bank0
  1278  0482  00AF               	movwf	___flsub@a+3
  1279  0483  0874               	movf	?___xxtofl+2,w
  1280  0484  00AE               	movwf	___flsub@a+2
  1281  0485  0873               	movf	?___xxtofl+1,w
  1282  0486  00AD               	movwf	___flsub@a+1
  1283  0487  0872               	movf	?___xxtofl,w
  1284  0488  00AC               	movwf	___flsub@a
  1285  0489  1683               	bsf	3,5	;RP0=1, select bank1
  1286  048A  1303               	bcf	3,6	;RP1=0, select bank1
  1287  048B  082F               	movf	(_pot1+3)^(0+128),w
  1288  048C  1283               	bcf	3,5	;RP0=0, select bank0
  1289  048D  1303               	bcf	3,6	;RP1=0, select bank0
  1290  048E  00B3               	movwf	___flsub@b+3
  1291  048F  1683               	bsf	3,5	;RP0=1, select bank1
  1292  0490  1303               	bcf	3,6	;RP1=0, select bank1
  1293  0491  082E               	movf	(_pot1+2)^(0+128),w
  1294  0492  1283               	bcf	3,5	;RP0=0, select bank0
  1295  0493  1303               	bcf	3,6	;RP1=0, select bank0
  1296  0494  00B2               	movwf	___flsub@b+2
  1297  0495  1683               	bsf	3,5	;RP0=1, select bank1
  1298  0496  1303               	bcf	3,6	;RP1=0, select bank1
  1299  0497  082D               	movf	(_pot1+1)^(0+128),w
  1300  0498  1283               	bcf	3,5	;RP0=0, select bank0
  1301  0499  1303               	bcf	3,6	;RP1=0, select bank0
  1302  049A  00B1               	movwf	___flsub@b+1
  1303  049B  1683               	bsf	3,5	;RP0=1, select bank1
  1304  049C  1303               	bcf	3,6	;RP1=0, select bank1
  1305  049D  082C               	movf	_pot1^(0+128),w
  1306  049E  1283               	bcf	3,5	;RP0=0, select bank0
  1307  049F  1303               	bcf	3,6	;RP1=0, select bank0
  1308  04A0  00B0               	movwf	___flsub@b
  1309  04A1  120A  158A  217E  120A  118A  	fcall	___flsub
  1310  04A6  1283               	bcf	3,5	;RP0=0, select bank0
  1311  04A7  1303               	bcf	3,6	;RP1=0, select bank0
  1312  04A8  082F               	movf	?___flsub+3,w
  1313  04A9  00BB               	movwf	___flmul@a+3
  1314  04AA  082E               	movf	?___flsub+2,w
  1315  04AB  00BA               	movwf	___flmul@a+2
  1316  04AC  082D               	movf	?___flsub+1,w
  1317  04AD  00B9               	movwf	___flmul@a+1
  1318  04AE  082C               	movf	?___flsub,w
  1319  04AF  00B8               	movwf	___flmul@a
  1320  04B0  120A  118A  2023  120A  118A  	fcall	___flmul
  1321  04B5  1283               	bcf	3,5	;RP0=0, select bank0
  1322  04B6  1303               	bcf	3,6	;RP1=0, select bank0
  1323  04B7  0837               	movf	?___flmul+3,w
  1324  04B8  1683               	bsf	3,5	;RP0=1, select bank1
  1325  04B9  1303               	bcf	3,6	;RP1=0, select bank1
  1326  04BA  00A7               	movwf	(_deci1+3)^(0+128)
  1327  04BB  1283               	bcf	3,5	;RP0=0, select bank0
  1328  04BC  1303               	bcf	3,6	;RP1=0, select bank0
  1329  04BD  0836               	movf	?___flmul+2,w
  1330  04BE  1683               	bsf	3,5	;RP0=1, select bank1
  1331  04BF  1303               	bcf	3,6	;RP1=0, select bank1
  1332  04C0  00A6               	movwf	(_deci1+2)^(0+128)
  1333  04C1  1283               	bcf	3,5	;RP0=0, select bank0
  1334  04C2  1303               	bcf	3,6	;RP1=0, select bank0
  1335  04C3  0835               	movf	?___flmul+1,w
  1336  04C4  1683               	bsf	3,5	;RP0=1, select bank1
  1337  04C5  1303               	bcf	3,6	;RP1=0, select bank1
  1338  04C6  00A5               	movwf	(_deci1+1)^(0+128)
  1339  04C7  1283               	bcf	3,5	;RP0=0, select bank0
  1340  04C8  1303               	bcf	3,6	;RP1=0, select bank0
  1341  04C9  0834               	movf	?___flmul,w
  1342  04CA  1683               	bsf	3,5	;RP0=1, select bank1
  1343  04CB  1303               	bcf	3,6	;RP1=0, select bank1
  1344  04CC  00A4               	movwf	_deci1^(0+128)
  1345  04CD                     l2918:	
  1346                           
  1347                           ;main.c: 95:         dec1 = deci1;
  1348  04CD  0827               	movf	(_deci1+3)^(0+128),w
  1349  04CE  00F5               	movwf	___fltol@f1+3
  1350  04CF  0826               	movf	(_deci1+2)^(0+128),w
  1351  04D0  00F4               	movwf	___fltol@f1+2
  1352  04D1  0825               	movf	(_deci1+1)^(0+128),w
  1353  04D2  00F3               	movwf	___fltol@f1+1
  1354  04D3  0824               	movf	_deci1^(0+128),w
  1355  04D4  00F2               	movwf	___fltol@f1
  1356  04D5  120A  118A  274C  120A  118A  	fcall	___fltol
  1357  04DA  0872               	movf	?___fltol,w
  1358  04DB  1283               	bcf	3,5	;RP0=0, select bank0
  1359  04DC  1303               	bcf	3,6	;RP1=0, select bank0
  1360  04DD  00E8               	movwf	??_main
  1361  04DE  0868               	movf	??_main,w
  1362  04DF  00FA               	movwf	_dec1
  1363  04E0                     l2920:	
  1364                           
  1365                           ;main.c: 97:         Lcd_Set_Cursor(2, 1);
  1366  04E0  01F5               	clrf	Lcd_Set_Cursor@y
  1367  04E1  0AF5               	incf	Lcd_Set_Cursor@y,f
  1368  04E2  3002               	movlw	2
  1369  04E3  120A  158A  215A  120A  118A  	fcall	_Lcd_Set_Cursor
  1370  04E8                     l2922:	
  1371                           
  1372                           ;main.c: 98:         Lcd_Write_Number(ent1);
  1373  04E8  1283               	bcf	3,5	;RP0=0, select bank0
  1374  04E9  1303               	bcf	3,6	;RP1=0, select bank0
  1375  04EA  086E               	movf	_ent1,w
  1376  04EB  120A  158A  213C  120A  118A  	fcall	_Lcd_Write_Number
  1377  04F0                     l2924:	
  1378                           
  1379                           ;main.c: 99:         Lcd_Write_Char(".");
  1380  04F0  301D               	movlw	(low ((STR_4-__stringbase)| (0+32768)))& (0+255)
  1381  04F1  120A  158A  20BA  120A  118A  	fcall	_Lcd_Write_Char
  1382  04F6                     l2926:	
  1383                           
  1384                           ;main.c: 100:         Lcd_Write_Number(dec1);
  1385  04F6  087A               	movf	_dec1,w
  1386  04F7  120A  158A  213C  120A  118A  	fcall	_Lcd_Write_Number
  1387  04FC                     l2928:	
  1388                           
  1389                           ;main.c: 101:         if(dec1 >= 10){
  1390  04FC  300A               	movlw	10
  1391  04FD  027A               	subwf	_dec1,w
  1392  04FE  1C03               	skipc
  1393  04FF  2D01               	goto	u4031
  1394  0500  2D02               	goto	u4030
  1395  0501                     u4031:	
  1396  0501  2D09               	goto	l2932
  1397  0502                     u4030:	
  1398  0502                     l2930:	
  1399                           
  1400                           ;main.c: 102:             Lcd_Write_Number(dec1);
  1401  0502  087A               	movf	_dec1,w
  1402  0503  120A  158A  213C  120A  118A  	fcall	_Lcd_Write_Number
  1403                           
  1404                           ;main.c: 103:         }else{
  1405  0508  2D18               	goto	l2934
  1406  0509                     l2932:	
  1407                           
  1408                           ;main.c: 104:             Lcd_Write_String("0");
  1409  0509  301F               	movlw	(low ((STR_5-__stringbase)| (0+32768)))& (0+255)
  1410  050A  00F4               	movwf	Lcd_Write_String@a
  1411  050B  3080               	movlw	128
  1412  050C  00F5               	movwf	Lcd_Write_String@a+1
  1413  050D  120A  158A  224B  120A  118A  	fcall	_Lcd_Write_String
  1414                           
  1415                           ;main.c: 105:             Lcd_Write_Number(dec1);
  1416  0512  087A               	movf	_dec1,w
  1417  0513  120A  158A  213C  120A  118A  	fcall	_Lcd_Write_Number
  1418  0518                     l2934:	
  1419                           
  1420                           ;main.c: 107:         _delay((unsigned long)((10)*(4000000/4000.0)));
  1421  0518  300D               	movlw	13
  1422  0519  1283               	bcf	3,5	;RP0=0, select bank0
  1423  051A  1303               	bcf	3,6	;RP1=0, select bank0
  1424  051B  00E9               	movwf	??_main+1
  1425  051C  30FB               	movlw	251
  1426  051D  00E8               	movwf	??_main
  1427  051E                     u4057:	
  1428  051E  0BE8               	decfsz	??_main,f
  1429  051F  2D1E               	goto	u4057
  1430  0520  0BE9               	decfsz	??_main+1,f
  1431  0521  2D1E               	goto	u4057
  1432  0522                     l2936:	
  1433                           
  1434                           ;main.c: 109:         ADC2();
  1435  0522  120A  158A  2109  120A  118A  	fcall	_ADC2
  1436  0527                     l2938:	
  1437                           
  1438                           ;main.c: 110:          if(adc == 1){
  1439  0527  037B               	decf	_adc,w
  1440  0528  1D03               	btfss	3,2
  1441  0529  2D2B               	goto	u4041
  1442  052A  2D2C               	goto	u4040
  1443  052B                     u4041:	
  1444  052B  2D4F               	goto	l2946
  1445  052C                     u4040:	
  1446  052C                     l2940:	
  1447                           
  1448                           ;main.c: 111:             pot2 = ADRESH;
  1449  052C  1283               	bcf	3,5	;RP0=0, select bank0
  1450  052D  1303               	bcf	3,6	;RP1=0, select bank0
  1451  052E  081E               	movf	30,w	;volatile
  1452  052F  00E8               	movwf	??_main
  1453  0530  01E9               	clrf	??_main+1
  1454  0531  01EA               	clrf	??_main+2
  1455  0532  01EB               	clrf	??_main+3
  1456  0533  086B               	movf	??_main+3,w
  1457  0534  00F5               	movwf	___xxtofl@val+3
  1458  0535  086A               	movf	??_main+2,w
  1459  0536  00F4               	movwf	___xxtofl@val+2
  1460  0537  0869               	movf	??_main+1,w
  1461  0538  00F3               	movwf	___xxtofl@val+1
  1462  0539  0868               	movf	??_main,w
  1463  053A  00F2               	movwf	___xxtofl@val
  1464  053B  3000               	movlw	0
  1465  053C  120A  158A  22DF  120A  118A  	fcall	___xxtofl
  1466  0541  0875               	movf	?___xxtofl+3,w
  1467  0542  1683               	bsf	3,5	;RP0=1, select bank1
  1468  0543  1303               	bcf	3,6	;RP1=0, select bank1
  1469  0544  00AB               	movwf	(_pot2+3)^(0+128)
  1470  0545  0874               	movf	?___xxtofl+2,w
  1471  0546  00AA               	movwf	(_pot2+2)^(0+128)
  1472  0547  0873               	movf	?___xxtofl+1,w
  1473  0548  00A9               	movwf	(_pot2+1)^(0+128)
  1474  0549  0872               	movf	?___xxtofl,w
  1475  054A  00A8               	movwf	_pot2^(0+128)
  1476  054B                     l2942:	
  1477                           
  1478                           ;main.c: 112:             adc = 0;
  1479  054B  01FB               	clrf	_adc
  1480  054C                     l2944:	
  1481                           
  1482                           ;main.c: 113:             ADCON0bits.GO_DONE = 1;
  1483  054C  1283               	bcf	3,5	;RP0=0, select bank0
  1484  054D  1303               	bcf	3,6	;RP1=0, select bank0
  1485  054E  149F               	bsf	31,1	;volatile
  1486  054F                     l2946:	
  1487                           
  1488                           ;main.c: 115:         pot2 = (pot2)* 5/255;
  1489  054F  3043               	movlw	67
  1490  0550  1283               	bcf	3,5	;RP0=0, select bank0
  1491  0551  1303               	bcf	3,6	;RP1=0, select bank0
  1492  0552  00D1               	movwf	___fldiv@a+3
  1493  0553  307F               	movlw	127
  1494  0554  00D0               	movwf	___fldiv@a+2
  1495  0555  3000               	movlw	0
  1496  0556  00CF               	movwf	___fldiv@a+1
  1497  0557  3000               	movlw	0
  1498  0558  00CE               	movwf	___fldiv@a
  1499  0559  3040               	movlw	64
  1500  055A  00B7               	movwf	___flmul@b+3
  1501  055B  30A0               	movlw	160
  1502  055C  00B6               	movwf	___flmul@b+2
  1503  055D  3000               	movlw	0
  1504  055E  00B5               	movwf	___flmul@b+1
  1505  055F  3000               	movlw	0
  1506  0560  00B4               	movwf	___flmul@b
  1507  0561  1683               	bsf	3,5	;RP0=1, select bank1
  1508  0562  1303               	bcf	3,6	;RP1=0, select bank1
  1509  0563  082B               	movf	(_pot2+3)^(0+128),w
  1510  0564  1283               	bcf	3,5	;RP0=0, select bank0
  1511  0565  1303               	bcf	3,6	;RP1=0, select bank0
  1512  0566  00BB               	movwf	___flmul@a+3
  1513  0567  1683               	bsf	3,5	;RP0=1, select bank1
  1514  0568  1303               	bcf	3,6	;RP1=0, select bank1
  1515  0569  082A               	movf	(_pot2+2)^(0+128),w
  1516  056A  1283               	bcf	3,5	;RP0=0, select bank0
  1517  056B  1303               	bcf	3,6	;RP1=0, select bank0
  1518  056C  00BA               	movwf	___flmul@a+2
  1519  056D  1683               	bsf	3,5	;RP0=1, select bank1
  1520  056E  1303               	bcf	3,6	;RP1=0, select bank1
  1521  056F  0829               	movf	(_pot2+1)^(0+128),w
  1522  0570  1283               	bcf	3,5	;RP0=0, select bank0
  1523  0571  1303               	bcf	3,6	;RP1=0, select bank0
  1524  0572  00B9               	movwf	___flmul@a+1
  1525  0573  1683               	bsf	3,5	;RP0=1, select bank1
  1526  0574  1303               	bcf	3,6	;RP1=0, select bank1
  1527  0575  0828               	movf	_pot2^(0+128),w
  1528  0576  1283               	bcf	3,5	;RP0=0, select bank0
  1529  0577  1303               	bcf	3,6	;RP1=0, select bank0
  1530  0578  00B8               	movwf	___flmul@a
  1531  0579  120A  118A  2023  120A  118A  	fcall	___flmul
  1532  057E  1283               	bcf	3,5	;RP0=0, select bank0
  1533  057F  1303               	bcf	3,6	;RP1=0, select bank0
  1534  0580  0837               	movf	?___flmul+3,w
  1535  0581  00D5               	movwf	___fldiv@b+3
  1536  0582  0836               	movf	?___flmul+2,w
  1537  0583  00D4               	movwf	___fldiv@b+2
  1538  0584  0835               	movf	?___flmul+1,w
  1539  0585  00D3               	movwf	___fldiv@b+1
  1540  0586  0834               	movf	?___flmul,w
  1541  0587  00D2               	movwf	___fldiv@b
  1542  0588  120A  158A  239B  120A  118A  	fcall	___fldiv
  1543  058D  1283               	bcf	3,5	;RP0=0, select bank0
  1544  058E  1303               	bcf	3,6	;RP1=0, select bank0
  1545  058F  0851               	movf	?___fldiv+3,w
  1546  0590  1683               	bsf	3,5	;RP0=1, select bank1
  1547  0591  1303               	bcf	3,6	;RP1=0, select bank1
  1548  0592  00AB               	movwf	(_pot2+3)^(0+128)
  1549  0593  1283               	bcf	3,5	;RP0=0, select bank0
  1550  0594  1303               	bcf	3,6	;RP1=0, select bank0
  1551  0595  0850               	movf	?___fldiv+2,w
  1552  0596  1683               	bsf	3,5	;RP0=1, select bank1
  1553  0597  1303               	bcf	3,6	;RP1=0, select bank1
  1554  0598  00AA               	movwf	(_pot2+2)^(0+128)
  1555  0599  1283               	bcf	3,5	;RP0=0, select bank0
  1556  059A  1303               	bcf	3,6	;RP1=0, select bank0
  1557  059B  084F               	movf	?___fldiv+1,w
  1558  059C  1683               	bsf	3,5	;RP0=1, select bank1
  1559  059D  1303               	bcf	3,6	;RP1=0, select bank1
  1560  059E  00A9               	movwf	(_pot2+1)^(0+128)
  1561  059F  1283               	bcf	3,5	;RP0=0, select bank0
  1562  05A0  1303               	bcf	3,6	;RP1=0, select bank0
  1563  05A1  084E               	movf	?___fldiv,w
  1564  05A2  1683               	bsf	3,5	;RP0=1, select bank1
  1565  05A3  1303               	bcf	3,6	;RP1=0, select bank1
  1566  05A4  00A8               	movwf	_pot2^(0+128)
  1567  05A5                     l2948:	
  1568                           
  1569                           ;main.c: 116:         ent2 = pot2;
  1570  05A5  082B               	movf	(_pot2+3)^(0+128),w
  1571  05A6  00F5               	movwf	___fltol@f1+3
  1572  05A7  082A               	movf	(_pot2+2)^(0+128),w
  1573  05A8  00F4               	movwf	___fltol@f1+2
  1574  05A9  0829               	movf	(_pot2+1)^(0+128),w
  1575  05AA  00F3               	movwf	___fltol@f1+1
  1576  05AB  0828               	movf	_pot2^(0+128),w
  1577  05AC  00F2               	movwf	___fltol@f1
  1578  05AD  120A  118A  274C  120A  118A  	fcall	___fltol
  1579  05B2  0872               	movf	?___fltol,w
  1580  05B3  1283               	bcf	3,5	;RP0=0, select bank0
  1581  05B4  1303               	bcf	3,6	;RP1=0, select bank0
  1582  05B5  00E8               	movwf	??_main
  1583  05B6  0868               	movf	??_main,w
  1584  05B7  00ED               	movwf	_ent2
  1585  05B8                     l2950:	
  1586                           
  1587                           ;main.c: 117:         deci2 = (pot2 - ent2) * 100;
  1588  05B8  3042               	movlw	66
  1589  05B9  00B7               	movwf	___flmul@b+3
  1590  05BA  30C8               	movlw	200
  1591  05BB  00B6               	movwf	___flmul@b+2
  1592  05BC  3000               	movlw	0
  1593  05BD  00B5               	movwf	___flmul@b+1
  1594  05BE  3000               	movlw	0
  1595  05BF  00B4               	movwf	___flmul@b
  1596  05C0  086D               	movf	_ent2,w
  1597  05C1  00E8               	movwf	??_main
  1598  05C2  01E9               	clrf	??_main+1
  1599  05C3  01EA               	clrf	??_main+2
  1600  05C4  01EB               	clrf	??_main+3
  1601  05C5  086B               	movf	??_main+3,w
  1602  05C6  00F5               	movwf	___xxtofl@val+3
  1603  05C7  086A               	movf	??_main+2,w
  1604  05C8  00F4               	movwf	___xxtofl@val+2
  1605  05C9  0869               	movf	??_main+1,w
  1606  05CA  00F3               	movwf	___xxtofl@val+1
  1607  05CB  0868               	movf	??_main,w
  1608  05CC  00F2               	movwf	___xxtofl@val
  1609  05CD  3001               	movlw	1
  1610  05CE  120A  158A  22DF  120A  118A  	fcall	___xxtofl
  1611  05D3  0875               	movf	?___xxtofl+3,w
  1612  05D4  1283               	bcf	3,5	;RP0=0, select bank0
  1613  05D5  1303               	bcf	3,6	;RP1=0, select bank0
  1614  05D6  00AF               	movwf	___flsub@a+3
  1615  05D7  0874               	movf	?___xxtofl+2,w
  1616  05D8  00AE               	movwf	___flsub@a+2
  1617  05D9  0873               	movf	?___xxtofl+1,w
  1618  05DA  00AD               	movwf	___flsub@a+1
  1619  05DB  0872               	movf	?___xxtofl,w
  1620  05DC  00AC               	movwf	___flsub@a
  1621  05DD  1683               	bsf	3,5	;RP0=1, select bank1
  1622  05DE  1303               	bcf	3,6	;RP1=0, select bank1
  1623  05DF  082B               	movf	(_pot2+3)^(0+128),w
  1624  05E0  1283               	bcf	3,5	;RP0=0, select bank0
  1625  05E1  1303               	bcf	3,6	;RP1=0, select bank0
  1626  05E2  00B3               	movwf	___flsub@b+3
  1627  05E3  1683               	bsf	3,5	;RP0=1, select bank1
  1628  05E4  1303               	bcf	3,6	;RP1=0, select bank1
  1629  05E5  082A               	movf	(_pot2+2)^(0+128),w
  1630  05E6  1283               	bcf	3,5	;RP0=0, select bank0
  1631  05E7  1303               	bcf	3,6	;RP1=0, select bank0
  1632  05E8  00B2               	movwf	___flsub@b+2
  1633  05E9  1683               	bsf	3,5	;RP0=1, select bank1
  1634  05EA  1303               	bcf	3,6	;RP1=0, select bank1
  1635  05EB  0829               	movf	(_pot2+1)^(0+128),w
  1636  05EC  1283               	bcf	3,5	;RP0=0, select bank0
  1637  05ED  1303               	bcf	3,6	;RP1=0, select bank0
  1638  05EE  00B1               	movwf	___flsub@b+1
  1639  05EF  1683               	bsf	3,5	;RP0=1, select bank1
  1640  05F0  1303               	bcf	3,6	;RP1=0, select bank1
  1641  05F1  0828               	movf	_pot2^(0+128),w
  1642  05F2  1283               	bcf	3,5	;RP0=0, select bank0
  1643  05F3  1303               	bcf	3,6	;RP1=0, select bank0
  1644  05F4  00B0               	movwf	___flsub@b
  1645  05F5  120A  158A  217E  120A  118A  	fcall	___flsub
  1646  05FA  1283               	bcf	3,5	;RP0=0, select bank0
  1647  05FB  1303               	bcf	3,6	;RP1=0, select bank0
  1648  05FC  082F               	movf	?___flsub+3,w
  1649  05FD  00BB               	movwf	___flmul@a+3
  1650  05FE  082E               	movf	?___flsub+2,w
  1651  05FF  00BA               	movwf	___flmul@a+2
  1652  0600  082D               	movf	?___flsub+1,w
  1653  0601  00B9               	movwf	___flmul@a+1
  1654  0602  082C               	movf	?___flsub,w
  1655  0603  00B8               	movwf	___flmul@a
  1656  0604  120A  118A  2023  120A  118A  	fcall	___flmul
  1657  0609  1283               	bcf	3,5	;RP0=0, select bank0
  1658  060A  1303               	bcf	3,6	;RP1=0, select bank0
  1659  060B  0837               	movf	?___flmul+3,w
  1660  060C  1683               	bsf	3,5	;RP0=1, select bank1
  1661  060D  1303               	bcf	3,6	;RP1=0, select bank1
  1662  060E  00A3               	movwf	(_deci2+3)^(0+128)
  1663  060F  1283               	bcf	3,5	;RP0=0, select bank0
  1664  0610  1303               	bcf	3,6	;RP1=0, select bank0
  1665  0611  0836               	movf	?___flmul+2,w
  1666  0612  1683               	bsf	3,5	;RP0=1, select bank1
  1667  0613  1303               	bcf	3,6	;RP1=0, select bank1
  1668  0614  00A2               	movwf	(_deci2+2)^(0+128)
  1669  0615  1283               	bcf	3,5	;RP0=0, select bank0
  1670  0616  1303               	bcf	3,6	;RP1=0, select bank0
  1671  0617  0835               	movf	?___flmul+1,w
  1672  0618  1683               	bsf	3,5	;RP0=1, select bank1
  1673  0619  1303               	bcf	3,6	;RP1=0, select bank1
  1674  061A  00A1               	movwf	(_deci2+1)^(0+128)
  1675  061B  1283               	bcf	3,5	;RP0=0, select bank0
  1676  061C  1303               	bcf	3,6	;RP1=0, select bank0
  1677  061D  0834               	movf	?___flmul,w
  1678  061E  1683               	bsf	3,5	;RP0=1, select bank1
  1679  061F  1303               	bcf	3,6	;RP1=0, select bank1
  1680  0620  00A0               	movwf	_deci2^(0+128)
  1681  0621                     l2952:	
  1682                           
  1683                           ;main.c: 118:         dec2 = deci2;
  1684  0621  0823               	movf	(_deci2+3)^(0+128),w
  1685  0622  00F5               	movwf	___fltol@f1+3
  1686  0623  0822               	movf	(_deci2+2)^(0+128),w
  1687  0624  00F4               	movwf	___fltol@f1+2
  1688  0625  0821               	movf	(_deci2+1)^(0+128),w
  1689  0626  00F3               	movwf	___fltol@f1+1
  1690  0627  0820               	movf	_deci2^(0+128),w
  1691  0628  00F2               	movwf	___fltol@f1
  1692  0629  120A  118A  274C  120A  118A  	fcall	___fltol
  1693  062E  0872               	movf	?___fltol,w
  1694  062F  1283               	bcf	3,5	;RP0=0, select bank0
  1695  0630  1303               	bcf	3,6	;RP1=0, select bank0
  1696  0631  00E8               	movwf	??_main
  1697  0632  0868               	movf	??_main,w
  1698  0633  00EC               	movwf	_dec2
  1699  0634                     l2954:	
  1700                           
  1701                           ;main.c: 119:         Lcd_Set_Cursor(2, 7);
  1702  0634  3007               	movlw	7
  1703  0635  00E8               	movwf	??_main
  1704  0636  0868               	movf	??_main,w
  1705  0637  00F5               	movwf	Lcd_Set_Cursor@y
  1706  0638  3002               	movlw	2
  1707  0639  120A  158A  215A  120A  118A  	fcall	_Lcd_Set_Cursor
  1708  063E                     l2956:	
  1709                           
  1710                           ;main.c: 120:         Lcd_Write_Number(ent2);
  1711  063E  1283               	bcf	3,5	;RP0=0, select bank0
  1712  063F  1303               	bcf	3,6	;RP1=0, select bank0
  1713  0640  086D               	movf	_ent2,w
  1714  0641  120A  158A  213C  120A  118A  	fcall	_Lcd_Write_Number
  1715  0646                     l2958:	
  1716                           
  1717                           ;main.c: 121:         Lcd_Write_Char(".");
  1718  0646  301D               	movlw	(low ((STR_4-__stringbase)| (0+32768)))& (0+255)
  1719  0647  120A  158A  20BA  120A  118A  	fcall	_Lcd_Write_Char
  1720  064C                     l2960:	
  1721                           
  1722                           ;main.c: 122:         Lcd_Write_Number(dec2);
  1723  064C  1283               	bcf	3,5	;RP0=0, select bank0
  1724  064D  1303               	bcf	3,6	;RP1=0, select bank0
  1725  064E  086C               	movf	_dec2,w
  1726  064F  120A  158A  213C  120A  118A  	fcall	_Lcd_Write_Number
  1727  0654                     l2962:	
  1728                           
  1729                           ;main.c: 123:         _delay((unsigned long)((10)*(4000000/4000.0)));
  1730  0654  300D               	movlw	13
  1731  0655  1283               	bcf	3,5	;RP0=0, select bank0
  1732  0656  1303               	bcf	3,6	;RP1=0, select bank0
  1733  0657  00E9               	movwf	??_main+1
  1734  0658  30FB               	movlw	251
  1735  0659  00E8               	movwf	??_main
  1736  065A                     u4067:	
  1737  065A  0BE8               	decfsz	??_main,f
  1738  065B  2E5A               	goto	u4067
  1739  065C  0BE9               	decfsz	??_main+1,f
  1740  065D  2E5A               	goto	u4067
  1741  065E  2BCE               	goto	l81
  1742  065F  120A  118A  280C   	ljmp	start
  1743  0662                     __end_of_main:	
  1744                           
  1745                           	psect	text1
  1746  0921                     __ptext1:	
  1747 ;; *************** function _init *****************
  1748 ;; Defined at:
  1749 ;;		line 138 in file "main.c"
  1750 ;; Parameters:    Size  Location     Type
  1751 ;;		None
  1752 ;; Auto vars:     Size  Location     Type
  1753 ;;		None
  1754 ;; Return value:  Size  Location     Type
  1755 ;;                  1    wreg      void 
  1756 ;; Registers used:
  1757 ;;		wreg, status,2, status,0
  1758 ;; Tracked objects:
  1759 ;;		On entry : 0/0
  1760 ;;		On exit  : 0/0
  1761 ;;		Unchanged: 0/0
  1762 ;; Data sizes:     COMMON   BANK0   BANK1   BANK3   BANK2
  1763 ;;      Params:         0       0       0       0       0
  1764 ;;      Locals:         0       0       0       0       0
  1765 ;;      Temps:          0       0       0       0       0
  1766 ;;      Totals:         0       0       0       0       0
  1767 ;;Total ram usage:        0 bytes
  1768 ;; Hardware stack levels used:    1
  1769 ;; Hardware stack levels required when called:    1
  1770 ;; This function calls:
  1771 ;;		Nothing
  1772 ;; This function is called by:
  1773 ;;		_main
  1774 ;; This function uses a non-reentrant model
  1775 ;;
  1776                           
  1777                           
  1778                           ;psect for function _init
  1779  0921                     _init:	
  1780  0921                     l2026:	
  1781                           ;incstack = 0
  1782                           ; Regs used in _init: [wreg+status,2+status,0]
  1783                           
  1784                           
  1785                           ;main.c: 139:     OSCCONbits.IRCF = 0b110;
  1786  0921  1683               	bsf	3,5	;RP0=1, select bank1
  1787  0922  1303               	bcf	3,6	;RP1=0, select bank1
  1788  0923  080F               	movf	15,w	;volatile
  1789  0924  398F               	andlw	-113
  1790  0925  3860               	iorlw	96
  1791  0926  008F               	movwf	15	;volatile
  1792  0927                     l2028:	
  1793                           
  1794                           ;main.c: 140:     OSCCONbits.SCS = 1;
  1795  0927  140F               	bsf	15,0	;volatile
  1796  0928                     l2030:	
  1797                           
  1798                           ;main.c: 141:     TRISB = 0;
  1799  0928  0186               	clrf	6	;volatile
  1800  0929                     l2032:	
  1801                           
  1802                           ;main.c: 142:     TRISD = 0;
  1803  0929  0188               	clrf	8	;volatile
  1804  092A                     l2034:	
  1805                           
  1806                           ;main.c: 143:     TRISC = 0;
  1807  092A  0187               	clrf	7	;volatile
  1808  092B                     l2036:	
  1809                           
  1810                           ;main.c: 144:     TRISAbits.TRISA0 = 1;
  1811  092B  1405               	bsf	5,0	;volatile
  1812  092C                     l2038:	
  1813                           
  1814                           ;main.c: 145:     TRISAbits.TRISA1 = 1;
  1815  092C  1485               	bsf	5,1	;volatile
  1816  092D                     l2040:	
  1817                           
  1818                           ;main.c: 146:     ANSELH = 0;
  1819  092D  1683               	bsf	3,5	;RP0=1, select bank3
  1820  092E  1703               	bsf	3,6	;RP1=1, select bank3
  1821  092F  0189               	clrf	9	;volatile
  1822  0930                     l2042:	
  1823                           
  1824                           ;main.c: 147:     ANSEL = 0b00000011;
  1825  0930  3003               	movlw	3
  1826  0931  0088               	movwf	8	;volatile
  1827  0932                     l2044:	
  1828                           
  1829                           ;main.c: 148:     PORTA = 0;
  1830  0932  1283               	bcf	3,5	;RP0=0, select bank0
  1831  0933  1303               	bcf	3,6	;RP1=0, select bank0
  1832  0934  0185               	clrf	5	;volatile
  1833  0935                     l2046:	
  1834                           
  1835                           ;main.c: 149:     PORTB = 0;
  1836  0935  0186               	clrf	6	;volatile
  1837  0936                     l2048:	
  1838                           
  1839                           ;main.c: 150:     PORTC = 0;
  1840  0936  0187               	clrf	7	;volatile
  1841  0937                     l2050:	
  1842                           
  1843                           ;main.c: 151:     PORTD = 0;
  1844  0937  0188               	clrf	8	;volatile
  1845  0938                     l2052:	
  1846                           
  1847                           ;main.c: 152:     INTCON=0;
  1848  0938  018B               	clrf	11	;volatile
  1849  0939                     l2054:	
  1850                           
  1851                           ;main.c: 153:     INTCONbits.GIE = 1;
  1852  0939  178B               	bsf	11,7	;volatile
  1853  093A                     l2056:	
  1854                           
  1855                           ;main.c: 154:     INTCONbits.RBIF = 0;
  1856  093A  100B               	bcf	11,0	;volatile
  1857  093B                     l91:	
  1858  093B  0008               	return
  1859  093C                     __end_of_init:	
  1860                           
  1861                           	psect	text2
  1862  0ADF                     __ptext2:	
  1863 ;; *************** function ___xxtofl *****************
  1864 ;; Defined at:
  1865 ;;		line 10 in file "C:\Program Files (x86)\Microchip\xc8\v2.10\pic\sources\c90\common\xxtofl.c"
  1866 ;; Parameters:    Size  Location     Type
  1867 ;;  sign            1    wreg     unsigned char 
  1868 ;;  val             4    2[COMMON] long 
  1869 ;; Auto vars:     Size  Location     Type
  1870 ;;  sign            1    0[BANK0 ] unsigned char 
  1871 ;;  arg             4    2[BANK0 ] unsigned long 
  1872 ;;  exp             1    1[BANK0 ] unsigned char 
  1873 ;; Return value:  Size  Location     Type
  1874 ;;                  4    2[COMMON] unsigned char 
  1875 ;; Registers used:
  1876 ;;		wreg, status,2, status,0
  1877 ;; Tracked objects:
  1878 ;;		On entry : 0/0
  1879 ;;		On exit  : 0/0
  1880 ;;		Unchanged: 0/0
  1881 ;; Data sizes:     COMMON   BANK0   BANK1   BANK3   BANK2
  1882 ;;      Params:         4       0       0       0       0
  1883 ;;      Locals:         0       6       0       0       0
  1884 ;;      Temps:          4       0       0       0       0
  1885 ;;      Totals:         8       6       0       0       0
  1886 ;;Total ram usage:       14 bytes
  1887 ;; Hardware stack levels used:    1
  1888 ;; Hardware stack levels required when called:    1
  1889 ;; This function calls:
  1890 ;;		Nothing
  1891 ;; This function is called by:
  1892 ;;		_main
  1893 ;; This function uses a non-reentrant model
  1894 ;;
  1895                           
  1896                           
  1897                           ;psect for function ___xxtofl
  1898  0ADF                     ___xxtofl:	
  1899                           
  1900                           ;incstack = 0
  1901                           ; Regs used in ___xxtofl: [wreg+status,2+status,0]
  1902                           ;___xxtofl@sign stored from wreg
  1903  0ADF  1283               	bcf	3,5	;RP0=0, select bank0
  1904  0AE0  1303               	bcf	3,6	;RP1=0, select bank0
  1905  0AE1  00A0               	movwf	___xxtofl@sign
  1906  0AE2                     l2468:	
  1907  0AE2  0820               	movf	___xxtofl@sign,w
  1908  0AE3  1903               	btfsc	3,2
  1909  0AE4  2AE6               	goto	u3191
  1910  0AE5  2AE7               	goto	u3190
  1911  0AE6                     u3191:	
  1912  0AE6  2AFB               	goto	l2474
  1913  0AE7                     u3190:	
  1914  0AE7                     l2470:	
  1915  0AE7  1FF5               	btfss	___xxtofl@val+3,7
  1916  0AE8  2AEA               	goto	u3201
  1917  0AE9  2AEB               	goto	u3200
  1918  0AEA                     u3201:	
  1919  0AEA  2AFB               	goto	l2474
  1920  0AEB                     u3200:	
  1921  0AEB                     l2472:	
  1922  0AEB  0972               	comf	___xxtofl@val,w
  1923  0AEC  00A2               	movwf	___xxtofl@arg
  1924  0AED  0973               	comf	___xxtofl@val+1,w
  1925  0AEE  00A3               	movwf	___xxtofl@arg+1
  1926  0AEF  0974               	comf	___xxtofl@val+2,w
  1927  0AF0  00A4               	movwf	___xxtofl@arg+2
  1928  0AF1  0975               	comf	___xxtofl@val+3,w
  1929  0AF2  00A5               	movwf	___xxtofl@arg+3
  1930  0AF3  0AA2               	incf	___xxtofl@arg,f
  1931  0AF4  1903               	skipnz
  1932  0AF5  0AA3               	incf	___xxtofl@arg+1,f
  1933  0AF6  1903               	skipnz
  1934  0AF7  0AA4               	incf	___xxtofl@arg+2,f
  1935  0AF8  1903               	skipnz
  1936  0AF9  0AA5               	incf	___xxtofl@arg+3,f
  1937  0AFA  2B03               	goto	l683
  1938  0AFB                     l2474:	
  1939  0AFB  0875               	movf	___xxtofl@val+3,w
  1940  0AFC  00A5               	movwf	___xxtofl@arg+3
  1941  0AFD  0874               	movf	___xxtofl@val+2,w
  1942  0AFE  00A4               	movwf	___xxtofl@arg+2
  1943  0AFF  0873               	movf	___xxtofl@val+1,w
  1944  0B00  00A3               	movwf	___xxtofl@arg+1
  1945  0B01  0872               	movf	___xxtofl@val,w
  1946  0B02  00A2               	movwf	___xxtofl@arg
  1947  0B03                     l683:	
  1948  0B03  0875               	movf	___xxtofl@val+3,w
  1949  0B04  0474               	iorwf	___xxtofl@val+2,w
  1950  0B05  0473               	iorwf	___xxtofl@val+1,w
  1951  0B06  0472               	iorwf	___xxtofl@val,w
  1952  0B07  1D03               	skipz
  1953  0B08  2B0A               	goto	u3211
  1954  0B09  2B0B               	goto	u3210
  1955  0B0A                     u3211:	
  1956  0B0A  2B14               	goto	l2480
  1957  0B0B                     u3210:	
  1958  0B0B                     l2476:	
  1959  0B0B  3000               	movlw	0
  1960  0B0C  00F5               	movwf	?___xxtofl+3
  1961  0B0D  3000               	movlw	0
  1962  0B0E  00F4               	movwf	?___xxtofl+2
  1963  0B0F  3000               	movlw	0
  1964  0B10  00F3               	movwf	?___xxtofl+1
  1965  0B11  3000               	movlw	0
  1966  0B12  00F2               	movwf	?___xxtofl
  1967  0B13  2B9A               	goto	l685
  1968  0B14                     l2480:	
  1969  0B14  3096               	movlw	150
  1970  0B15  00F6               	movwf	??___xxtofl
  1971  0B16  0876               	movf	??___xxtofl,w
  1972  0B17  00A1               	movwf	___xxtofl@exp
  1973  0B18  2B26               	goto	l2484
  1974  0B19                     l2482:	
  1975  0B19  3001               	movlw	1
  1976  0B1A  00F6               	movwf	??___xxtofl
  1977  0B1B  0876               	movf	??___xxtofl,w
  1978  0B1C  07A1               	addwf	___xxtofl@exp,f
  1979  0B1D  3001               	movlw	1
  1980  0B1E                     u3225:	
  1981  0B1E  1003               	clrc
  1982  0B1F  0CA5               	rrf	___xxtofl@arg+3,f
  1983  0B20  0CA4               	rrf	___xxtofl@arg+2,f
  1984  0B21  0CA3               	rrf	___xxtofl@arg+1,f
  1985  0B22  0CA2               	rrf	___xxtofl@arg,f
  1986  0B23  3EFF               	addlw	-1
  1987  0B24  1D03               	skipz
  1988  0B25  2B1E               	goto	u3225
  1989  0B26                     l2484:	
  1990  0B26  30FE               	movlw	254
  1991  0B27  0525               	andwf	___xxtofl@arg+3,w
  1992  0B28  1D03               	btfss	3,2
  1993  0B29  2B2B               	goto	u3231
  1994  0B2A  2B2C               	goto	u3230
  1995  0B2B                     u3231:	
  1996  0B2B  2B19               	goto	l2482
  1997  0B2C                     u3230:	
  1998  0B2C  2B48               	goto	l689
  1999  0B2D                     l2486:	
  2000  0B2D  3001               	movlw	1
  2001  0B2E  00F6               	movwf	??___xxtofl
  2002  0B2F  0876               	movf	??___xxtofl,w
  2003  0B30  07A1               	addwf	___xxtofl@exp,f
  2004  0B31                     l2488:	
  2005  0B31  3001               	movlw	1
  2006  0B32  07A2               	addwf	___xxtofl@arg,f
  2007  0B33  3000               	movlw	0
  2008  0B34  1803               	skipnc
  2009  0B35  3001               	movlw	1
  2010  0B36  07A3               	addwf	___xxtofl@arg+1,f
  2011  0B37  3000               	movlw	0
  2012  0B38  1803               	skipnc
  2013  0B39  3001               	movlw	1
  2014  0B3A  07A4               	addwf	___xxtofl@arg+2,f
  2015  0B3B  3000               	movlw	0
  2016  0B3C  1803               	skipnc
  2017  0B3D  3001               	movlw	1
  2018  0B3E  07A5               	addwf	___xxtofl@arg+3,f
  2019  0B3F                     l2490:	
  2020  0B3F  3001               	movlw	1
  2021  0B40                     u3245:	
  2022  0B40  1003               	clrc
  2023  0B41  0CA5               	rrf	___xxtofl@arg+3,f
  2024  0B42  0CA4               	rrf	___xxtofl@arg+2,f
  2025  0B43  0CA3               	rrf	___xxtofl@arg+1,f
  2026  0B44  0CA2               	rrf	___xxtofl@arg,f
  2027  0B45  3EFF               	addlw	-1
  2028  0B46  1D03               	skipz
  2029  0B47  2B40               	goto	u3245
  2030  0B48                     l689:	
  2031  0B48  30FF               	movlw	255
  2032  0B49  0525               	andwf	___xxtofl@arg+3,w
  2033  0B4A  1D03               	btfss	3,2
  2034  0B4B  2B4D               	goto	u3251
  2035  0B4C  2B4E               	goto	u3250
  2036  0B4D                     u3251:	
  2037  0B4D  2B2D               	goto	l2486
  2038  0B4E                     u3250:	
  2039  0B4E  2B5A               	goto	l2494
  2040  0B4F                     l2492:	
  2041  0B4F  3001               	movlw	1
  2042  0B50  02A1               	subwf	___xxtofl@exp,f
  2043  0B51  3001               	movlw	1
  2044  0B52  00F6               	movwf	??___xxtofl
  2045  0B53                     u3265:	
  2046  0B53  1003               	clrc
  2047  0B54  0DA2               	rlf	___xxtofl@arg,f
  2048  0B55  0DA3               	rlf	___xxtofl@arg+1,f
  2049  0B56  0DA4               	rlf	___xxtofl@arg+2,f
  2050  0B57  0DA5               	rlf	___xxtofl@arg+3,f
  2051  0B58  0BF6               	decfsz	??___xxtofl,f
  2052  0B59  2B53               	goto	u3265
  2053  0B5A                     l2494:	
  2054  0B5A  1BA4               	btfsc	___xxtofl@arg+2,7
  2055  0B5B  2B5D               	goto	u3271
  2056  0B5C  2B5E               	goto	u3270
  2057  0B5D                     u3271:	
  2058  0B5D  2B64               	goto	l696
  2059  0B5E                     u3270:	
  2060  0B5E                     l2496:	
  2061  0B5E  3002               	movlw	2
  2062  0B5F  0221               	subwf	___xxtofl@exp,w
  2063  0B60  1803               	skipnc
  2064  0B61  2B63               	goto	u3281
  2065  0B62  2B64               	goto	u3280
  2066  0B63                     u3281:	
  2067  0B63  2B4F               	goto	l2492
  2068  0B64                     u3280:	
  2069  0B64                     l696:	
  2070  0B64  1821               	btfsc	___xxtofl@exp,0
  2071  0B65  2B67               	goto	u3291
  2072  0B66  2B68               	goto	u3290
  2073  0B67                     u3291:	
  2074  0B67  2B70               	goto	l697
  2075  0B68                     u3290:	
  2076  0B68                     l2498:	
  2077  0B68  30FF               	movlw	255
  2078  0B69  05A2               	andwf	___xxtofl@arg,f
  2079  0B6A  30FF               	movlw	255
  2080  0B6B  05A3               	andwf	___xxtofl@arg+1,f
  2081  0B6C  307F               	movlw	127
  2082  0B6D  05A4               	andwf	___xxtofl@arg+2,f
  2083  0B6E  30FF               	movlw	255
  2084  0B6F  05A5               	andwf	___xxtofl@arg+3,f
  2085  0B70                     l697:	
  2086  0B70  1003               	clrc
  2087  0B71  0CA1               	rrf	___xxtofl@exp,f
  2088  0B72                     l2500:	
  2089  0B72  0821               	movf	___xxtofl@exp,w
  2090  0B73  00F6               	movwf	??___xxtofl
  2091  0B74  01F7               	clrf	??___xxtofl+1
  2092  0B75  01F8               	clrf	??___xxtofl+2
  2093  0B76  01F9               	clrf	??___xxtofl+3
  2094  0B77  3018               	movlw	24
  2095  0B78                     u3305:	
  2096  0B78  1003               	clrc
  2097  0B79  0DF6               	rlf	??___xxtofl,f
  2098  0B7A  0DF7               	rlf	??___xxtofl+1,f
  2099  0B7B  0DF8               	rlf	??___xxtofl+2,f
  2100  0B7C  0DF9               	rlf	??___xxtofl+3,f
  2101  0B7D                     u3300:	
  2102  0B7D  3EFF               	addlw	-1
  2103  0B7E  1D03               	skipz
  2104  0B7F  2B78               	goto	u3305
  2105  0B80  0876               	movf	??___xxtofl,w
  2106  0B81  04A2               	iorwf	___xxtofl@arg,f
  2107  0B82  0877               	movf	??___xxtofl+1,w
  2108  0B83  04A3               	iorwf	___xxtofl@arg+1,f
  2109  0B84  0878               	movf	??___xxtofl+2,w
  2110  0B85  04A4               	iorwf	___xxtofl@arg+2,f
  2111  0B86  0879               	movf	??___xxtofl+3,w
  2112  0B87  04A5               	iorwf	___xxtofl@arg+3,f
  2113  0B88                     l2502:	
  2114  0B88  0820               	movf	___xxtofl@sign,w
  2115  0B89  1903               	btfsc	3,2
  2116  0B8A  2B8C               	goto	u3311
  2117  0B8B  2B8D               	goto	u3310
  2118  0B8C                     u3311:	
  2119  0B8C  2B92               	goto	l2508
  2120  0B8D                     u3310:	
  2121  0B8D                     l2504:	
  2122  0B8D  1FF5               	btfss	___xxtofl@val+3,7
  2123  0B8E  2B90               	goto	u3321
  2124  0B8F  2B91               	goto	u3320
  2125  0B90                     u3321:	
  2126  0B90  2B92               	goto	l2508
  2127  0B91                     u3320:	
  2128  0B91                     l2506:	
  2129  0B91  17A5               	bsf	___xxtofl@arg+3,7
  2130  0B92                     l2508:	
  2131  0B92  0825               	movf	___xxtofl@arg+3,w
  2132  0B93  00F5               	movwf	?___xxtofl+3
  2133  0B94  0824               	movf	___xxtofl@arg+2,w
  2134  0B95  00F4               	movwf	?___xxtofl+2
  2135  0B96  0823               	movf	___xxtofl@arg+1,w
  2136  0B97  00F3               	movwf	?___xxtofl+1
  2137  0B98  0822               	movf	___xxtofl@arg,w
  2138  0B99  00F2               	movwf	?___xxtofl
  2139  0B9A                     l685:	
  2140  0B9A  0008               	return
  2141  0B9B                     __end_of___xxtofl:	
  2142                           
  2143                           	psect	text3
  2144  074C                     __ptext3:	
  2145 ;; *************** function ___fltol *****************
  2146 ;; Defined at:
  2147 ;;		line 43 in file "C:\Program Files (x86)\Microchip\xc8\v2.10\pic\sources\c90\common\fltol.c"
  2148 ;; Parameters:    Size  Location     Type
  2149 ;;  f1              4    2[COMMON] unsigned char 
  2150 ;; Auto vars:     Size  Location     Type
  2151 ;;  exp1            1    7[COMMON] unsigned char 
  2152 ;;  sign1           1    6[COMMON] unsigned char 
  2153 ;; Return value:  Size  Location     Type
  2154 ;;                  4    2[COMMON] long 
  2155 ;; Registers used:
  2156 ;;		wreg, status,2, status,0
  2157 ;; Tracked objects:
  2158 ;;		On entry : 0/0
  2159 ;;		On exit  : 0/0
  2160 ;;		Unchanged: 0/0
  2161 ;; Data sizes:     COMMON   BANK0   BANK1   BANK3   BANK2
  2162 ;;      Params:         4       0       0       0       0
  2163 ;;      Locals:         2       0       0       0       0
  2164 ;;      Temps:          0       5       0       0       0
  2165 ;;      Totals:         6       5       0       0       0
  2166 ;;Total ram usage:       11 bytes
  2167 ;; Hardware stack levels used:    1
  2168 ;; Hardware stack levels required when called:    1
  2169 ;; This function calls:
  2170 ;;		Nothing
  2171 ;; This function is called by:
  2172 ;;		_main
  2173 ;; This function uses a non-reentrant model
  2174 ;;
  2175                           
  2176                           
  2177                           ;psect for function ___fltol
  2178  074C                     ___fltol:	
  2179  074C                     l2718:	
  2180                           ;incstack = 0
  2181                           ; Regs used in ___fltol: [wreg+status,2+status,0]
  2182                           
  2183  074C  1003               	clrc
  2184  074D  0D74               	rlf	___fltol@f1+2,w
  2185  074E  0D75               	rlf	___fltol@f1+3,w
  2186  074F  1283               	bcf	3,5	;RP0=0, select bank0
  2187  0750  1303               	bcf	3,6	;RP1=0, select bank0
  2188  0751  00A0               	movwf	??___fltol
  2189  0752  0820               	movf	??___fltol,w
  2190  0753  00F7               	movwf	___fltol@exp1
  2191  0754  0877               	movf	___fltol@exp1,w
  2192  0755  1D03               	btfss	3,2
  2193  0756  2F58               	goto	u3551
  2194  0757  2F59               	goto	u3550
  2195  0758                     u3551:	
  2196  0758  2F62               	goto	l2724
  2197  0759                     u3550:	
  2198  0759                     l2720:	
  2199  0759  3000               	movlw	0
  2200  075A  00F5               	movwf	?___fltol+3
  2201  075B  3000               	movlw	0
  2202  075C  00F4               	movwf	?___fltol+2
  2203  075D  3000               	movlw	0
  2204  075E  00F3               	movwf	?___fltol+1
  2205  075F  3000               	movlw	0
  2206  0760  00F2               	movwf	?___fltol
  2207  0761  2FC7               	goto	l442
  2208  0762                     l2724:	
  2209  0762  0872               	movf	___fltol@f1,w
  2210  0763  00A0               	movwf	??___fltol
  2211  0764  0873               	movf	___fltol@f1+1,w
  2212  0765  00A1               	movwf	??___fltol+1
  2213  0766  0874               	movf	___fltol@f1+2,w
  2214  0767  00A2               	movwf	??___fltol+2
  2215  0768  0875               	movf	___fltol@f1+3,w
  2216  0769  00A3               	movwf	??___fltol+3
  2217  076A  301F               	movlw	31
  2218  076B                     u3565:	
  2219  076B  1003               	clrc
  2220  076C  0CA3               	rrf	??___fltol+3,f
  2221  076D  0CA2               	rrf	??___fltol+2,f
  2222  076E  0CA1               	rrf	??___fltol+1,f
  2223  076F  0CA0               	rrf	??___fltol,f
  2224  0770                     u3560:	
  2225  0770  3EFF               	addlw	-1
  2226  0771  1D03               	skipz
  2227  0772  2F6B               	goto	u3565
  2228  0773  0820               	movf	??___fltol,w
  2229  0774  00A4               	movwf	??___fltol+4
  2230  0775  0824               	movf	??___fltol+4,w
  2231  0776  00F6               	movwf	___fltol@sign1
  2232  0777                     l2726:	
  2233  0777  17F4               	bsf	___fltol@f1+2,7
  2234  0778                     l2728:	
  2235  0778  30FF               	movlw	255
  2236  0779  05F2               	andwf	___fltol@f1,f
  2237  077A  30FF               	movlw	255
  2238  077B  05F3               	andwf	___fltol@f1+1,f
  2239  077C  30FF               	movlw	255
  2240  077D  05F4               	andwf	___fltol@f1+2,f
  2241  077E  3000               	movlw	0
  2242  077F  05F5               	andwf	___fltol@f1+3,f
  2243  0780                     l2730:	
  2244  0780  3096               	movlw	150
  2245  0781  02F7               	subwf	___fltol@exp1,f
  2246  0782                     l2732:	
  2247  0782  1FF7               	btfss	___fltol@exp1,7
  2248  0783  2F85               	goto	u3571
  2249  0784  2F86               	goto	u3570
  2250  0785                     u3571:	
  2251  0785  2FA0               	goto	l2742
  2252  0786                     u3570:	
  2253  0786                     l2734:	
  2254  0786  0877               	movf	___fltol@exp1,w
  2255  0787  3A80               	xorlw	128
  2256  0788  3E97               	addlw	151
  2257  0789  1803               	skipnc
  2258  078A  2F8C               	goto	u3581
  2259  078B  2F8D               	goto	u3580
  2260  078C                     u3581:	
  2261  078C  2F8E               	goto	l2740
  2262  078D                     u3580:	
  2263  078D  2F59               	goto	l2720
  2264  078E                     l2740:	
  2265  078E  3001               	movlw	1
  2266  078F                     u3595:	
  2267  078F  1003               	clrc
  2268  0790  0CF5               	rrf	___fltol@f1+3,f
  2269  0791  0CF4               	rrf	___fltol@f1+2,f
  2270  0792  0CF3               	rrf	___fltol@f1+1,f
  2271  0793  0CF2               	rrf	___fltol@f1,f
  2272  0794  3EFF               	addlw	-1
  2273  0795  1D03               	skipz
  2274  0796  2F8F               	goto	u3595
  2275  0797  3001               	movlw	1
  2276  0798  00A0               	movwf	??___fltol
  2277  0799  0820               	movf	??___fltol,w
  2278  079A  07F7               	addwf	___fltol@exp1,f
  2279  079B  1D03               	btfss	3,2
  2280  079C  2F9E               	goto	u3601
  2281  079D  2F9F               	goto	u3600
  2282  079E                     u3601:	
  2283  079E  2F8E               	goto	l2740
  2284  079F                     u3600:	
  2285  079F  2FB7               	goto	l2750
  2286  07A0                     l2742:	
  2287  07A0  3020               	movlw	32
  2288  07A1  0277               	subwf	___fltol@exp1,w
  2289  07A2  1C03               	skipc
  2290  07A3  2FA5               	goto	u3611
  2291  07A4  2FA6               	goto	u3610
  2292  07A5                     u3611:	
  2293  07A5  2FB2               	goto	l449
  2294  07A6                     u3610:	
  2295  07A6  2F59               	goto	l2720
  2296  07A7                     l2748:	
  2297  07A7  3001               	movlw	1
  2298  07A8  00A0               	movwf	??___fltol
  2299  07A9                     u3625:	
  2300  07A9  1003               	clrc
  2301  07AA  0DF2               	rlf	___fltol@f1,f
  2302  07AB  0DF3               	rlf	___fltol@f1+1,f
  2303  07AC  0DF4               	rlf	___fltol@f1+2,f
  2304  07AD  0DF5               	rlf	___fltol@f1+3,f
  2305  07AE  0BA0               	decfsz	??___fltol,f
  2306  07AF  2FA9               	goto	u3625
  2307  07B0  3001               	movlw	1
  2308  07B1  02F7               	subwf	___fltol@exp1,f
  2309  07B2                     l449:	
  2310  07B2  0877               	movf	___fltol@exp1,w
  2311  07B3  1D03               	btfss	3,2
  2312  07B4  2FB6               	goto	u3631
  2313  07B5  2FB7               	goto	u3630
  2314  07B6                     u3631:	
  2315  07B6  2FA7               	goto	l2748
  2316  07B7                     u3630:	
  2317  07B7                     l2750:	
  2318  07B7  0876               	movf	___fltol@sign1,w
  2319  07B8  1903               	btfsc	3,2
  2320  07B9  2FBB               	goto	u3641
  2321  07BA  2FBC               	goto	u3640
  2322  07BB                     u3641:	
  2323  07BB  2FC7               	goto	l452
  2324  07BC                     u3640:	
  2325  07BC                     l2752:	
  2326  07BC  09F2               	comf	___fltol@f1,f
  2327  07BD  09F3               	comf	___fltol@f1+1,f
  2328  07BE  09F4               	comf	___fltol@f1+2,f
  2329  07BF  09F5               	comf	___fltol@f1+3,f
  2330  07C0  0AF2               	incf	___fltol@f1,f
  2331  07C1  1903               	skipnz
  2332  07C2  0AF3               	incf	___fltol@f1+1,f
  2333  07C3  1903               	skipnz
  2334  07C4  0AF4               	incf	___fltol@f1+2,f
  2335  07C5  1903               	skipnz
  2336  07C6  0AF5               	incf	___fltol@f1+3,f
  2337  07C7                     l452:	
  2338  07C7                     l442:	
  2339  07C7  0008               	return
  2340  07C8                     __end_of___fltol:	
  2341                           
  2342                           	psect	text4
  2343  097E                     __ptext4:	
  2344 ;; *************** function ___flsub *****************
  2345 ;; Defined at:
  2346 ;;		line 242 in file "C:\Program Files (x86)\Microchip\xc8\v2.10\pic\sources\c90\common\sprcadd.c"
  2347 ;; Parameters:    Size  Location     Type
  2348 ;;  a               4   12[BANK0 ] long 
  2349 ;;  b               4   16[BANK0 ] long 
  2350 ;; Auto vars:     Size  Location     Type
  2351 ;;		None
  2352 ;; Return value:  Size  Location     Type
  2353 ;;                  4   12[BANK0 ] long 
  2354 ;; Registers used:
  2355 ;;		wreg, status,2, status,0, btemp+1, pclath, cstack
  2356 ;; Tracked objects:
  2357 ;;		On entry : 0/0
  2358 ;;		On exit  : 0/0
  2359 ;;		Unchanged: 0/0
  2360 ;; Data sizes:     COMMON   BANK0   BANK1   BANK3   BANK2
  2361 ;;      Params:         0       8       0       0       0
  2362 ;;      Locals:         0       0       0       0       0
  2363 ;;      Temps:          0       0       0       0       0
  2364 ;;      Totals:         0       8       0       0       0
  2365 ;;Total ram usage:        8 bytes
  2366 ;; Hardware stack levels used:    1
  2367 ;; Hardware stack levels required when called:    2
  2368 ;; This function calls:
  2369 ;;		___fladd
  2370 ;; This function is called by:
  2371 ;;		_main
  2372 ;; This function uses a non-reentrant model
  2373 ;;
  2374                           
  2375                           
  2376                           ;psect for function ___flsub
  2377  097E                     ___flsub:	
  2378  097E                     l2180:	
  2379                           ;incstack = 0
  2380                           ; Regs used in ___flsub: [wreg+status,2+status,0+btemp+1+pclath+cstack]
  2381                           
  2382  097E  3080               	movlw	128
  2383  097F  1283               	bcf	3,5	;RP0=0, select bank0
  2384  0980  1303               	bcf	3,6	;RP1=0, select bank0
  2385  0981  06AF               	xorwf	___flsub@a+3,f
  2386  0982                     l2182:	
  2387  0982  0833               	movf	___flsub@b+3,w
  2388  0983  00F5               	movwf	___fladd@b+3
  2389  0984  0832               	movf	___flsub@b+2,w
  2390  0985  00F4               	movwf	___fladd@b+2
  2391  0986  0831               	movf	___flsub@b+1,w
  2392  0987  00F3               	movwf	___fladd@b+1
  2393  0988  0830               	movf	___flsub@b,w
  2394  0989  00F2               	movwf	___fladd@b
  2395  098A  082F               	movf	___flsub@a+3,w
  2396  098B  00F9               	movwf	___fladd@a+3
  2397  098C  082E               	movf	___flsub@a+2,w
  2398  098D  00F8               	movwf	___fladd@a+2
  2399  098E  082D               	movf	___flsub@a+1,w
  2400  098F  00F7               	movwf	___fladd@a+1
  2401  0990  082C               	movf	___flsub@a,w
  2402  0991  00F6               	movwf	___fladd@a
  2403  0992  120A  158A  2578  120A  158A  	fcall	___fladd
  2404  0997  0875               	movf	?___fladd+3,w
  2405  0998  1283               	bcf	3,5	;RP0=0, select bank0
  2406  0999  1303               	bcf	3,6	;RP1=0, select bank0
  2407  099A  00AF               	movwf	?___flsub+3
  2408  099B  0874               	movf	?___fladd+2,w
  2409  099C  00AE               	movwf	?___flsub+2
  2410  099D  0873               	movf	?___fladd+1,w
  2411  099E  00AD               	movwf	?___flsub+1
  2412  099F  0872               	movf	?___fladd,w
  2413  09A0  00AC               	movwf	?___flsub
  2414  09A1                     l595:	
  2415  09A1  0008               	return
  2416  09A2                     __end_of___flsub:	
  2417                           
  2418                           	psect	text5
  2419  0D78                     __ptext5:	
  2420 ;; *************** function ___fladd *****************
  2421 ;; Defined at:
  2422 ;;		line 10 in file "C:\Program Files (x86)\Microchip\xc8\v2.10\pic\sources\c90\common\sprcadd.c"
  2423 ;; Parameters:    Size  Location     Type
  2424 ;;  b               4    2[COMMON] long 
  2425 ;;  a               4    6[COMMON] long 
  2426 ;; Auto vars:     Size  Location     Type
  2427 ;;  grs             1   11[BANK0 ] unsigned char 
  2428 ;;  bexp            1   10[BANK0 ] unsigned char 
  2429 ;;  aexp            1    9[BANK0 ] unsigned char 
  2430 ;;  signs           1    8[BANK0 ] unsigned char 
  2431 ;; Return value:  Size  Location     Type
  2432 ;;                  4    2[COMMON] unsigned char 
  2433 ;; Registers used:
  2434 ;;		wreg, status,2, status,0, btemp+1
  2435 ;; Tracked objects:
  2436 ;;		On entry : 0/0
  2437 ;;		On exit  : 0/0
  2438 ;;		Unchanged: 0/0
  2439 ;; Data sizes:     COMMON   BANK0   BANK1   BANK3   BANK2
  2440 ;;      Params:         8       0       0       0       0
  2441 ;;      Locals:         0       4       0       0       0
  2442 ;;      Temps:          0       8       0       0       0
  2443 ;;      Totals:         8      12       0       0       0
  2444 ;;Total ram usage:       20 bytes
  2445 ;; Hardware stack levels used:    1
  2446 ;; Hardware stack levels required when called:    1
  2447 ;; This function calls:
  2448 ;;		Nothing
  2449 ;; This function is called by:
  2450 ;;		___flsub
  2451 ;; This function uses a non-reentrant model
  2452 ;;
  2453                           
  2454                           
  2455                           ;psect for function ___fladd
  2456  0D78                     ___fladd:	
  2457  0D78                     l1818:	
  2458                           ;incstack = 0
  2459                           ; Regs used in ___fladd: [wreg+status,2+status,0+btemp+1]
  2460                           
  2461  0D78  0875               	movf	___fladd@b+3,w
  2462  0D79  3980               	andlw	128
  2463  0D7A  1283               	bcf	3,5	;RP0=0, select bank0
  2464  0D7B  1303               	bcf	3,6	;RP1=0, select bank0
  2465  0D7C  00A0               	movwf	??___fladd
  2466  0D7D  0820               	movf	??___fladd,w
  2467  0D7E  00A8               	movwf	___fladd@signs
  2468  0D7F                     l1820:	
  2469  0D7F  0875               	movf	___fladd@b+3,w
  2470  0D80  00A0               	movwf	??___fladd
  2471  0D81  0720               	addwf	??___fladd,w
  2472  0D82  00A1               	movwf	??___fladd+1
  2473  0D83  0821               	movf	??___fladd+1,w
  2474  0D84  00AA               	movwf	___fladd@bexp
  2475  0D85                     l1822:	
  2476  0D85  1FF4               	btfss	___fladd@b+2,7
  2477  0D86  2D88               	goto	u1921
  2478  0D87  2D89               	goto	u1920
  2479  0D88                     u1921:	
  2480  0D88  2D8A               	goto	l1826
  2481  0D89                     u1920:	
  2482  0D89                     l1824:	
  2483  0D89  142A               	bsf	___fladd@bexp,0
  2484  0D8A                     l1826:	
  2485  0D8A  082A               	movf	___fladd@bexp,w
  2486  0D8B  1903               	btfsc	3,2
  2487  0D8C  2D8E               	goto	u1931
  2488  0D8D  2D8F               	goto	u1930
  2489  0D8E                     u1931:	
  2490  0D8E  2D9F               	goto	l1836
  2491  0D8F                     u1930:	
  2492  0D8F                     l1828:	
  2493  0D8F  0A2A               	incf	___fladd@bexp,w
  2494  0D90  1D03               	btfss	3,2
  2495  0D91  2D93               	goto	u1941
  2496  0D92  2D94               	goto	u1940
  2497  0D93                     u1941:	
  2498  0D93  2D9C               	goto	l1832
  2499  0D94                     u1940:	
  2500  0D94                     l1830:	
  2501  0D94  3000               	movlw	0
  2502  0D95  00F5               	movwf	___fladd@b+3
  2503  0D96  3000               	movlw	0
  2504  0D97  00F4               	movwf	___fladd@b+2
  2505  0D98  3000               	movlw	0
  2506  0D99  00F3               	movwf	___fladd@b+1
  2507  0D9A  3000               	movlw	0
  2508  0D9B  00F2               	movwf	___fladd@b
  2509  0D9C                     l1832:	
  2510  0D9C  17F4               	bsf	___fladd@b+2,7
  2511  0D9D                     l1834:	
  2512  0D9D  01F5               	clrf	___fladd@b+3
  2513  0D9E  2DA7               	goto	l1838
  2514  0D9F                     l1836:	
  2515  0D9F  3000               	movlw	0
  2516  0DA0  00F5               	movwf	___fladd@b+3
  2517  0DA1  3000               	movlw	0
  2518  0DA2  00F4               	movwf	___fladd@b+2
  2519  0DA3  3000               	movlw	0
  2520  0DA4  00F3               	movwf	___fladd@b+1
  2521  0DA5  3000               	movlw	0
  2522  0DA6  00F2               	movwf	___fladd@b
  2523  0DA7                     l1838:	
  2524  0DA7  0879               	movf	___fladd@a+3,w
  2525  0DA8  3980               	andlw	128
  2526  0DA9  00A0               	movwf	??___fladd
  2527  0DAA  0820               	movf	??___fladd,w
  2528  0DAB  00A9               	movwf	___fladd@aexp
  2529  0DAC                     l1840:	
  2530  0DAC  0829               	movf	___fladd@aexp,w
  2531  0DAD  0628               	xorwf	___fladd@signs,w
  2532  0DAE  1903               	skipnz
  2533  0DAF  2DB1               	goto	u1951
  2534  0DB0  2DB2               	goto	u1950
  2535  0DB1                     u1951:	
  2536  0DB1  2DB3               	goto	l1844
  2537  0DB2                     u1950:	
  2538  0DB2                     l1842:	
  2539  0DB2  1728               	bsf	___fladd@signs,6
  2540  0DB3                     l1844:	
  2541  0DB3  0879               	movf	___fladd@a+3,w
  2542  0DB4  00A0               	movwf	??___fladd
  2543  0DB5  0720               	addwf	??___fladd,w
  2544  0DB6  00A1               	movwf	??___fladd+1
  2545  0DB7  0821               	movf	??___fladd+1,w
  2546  0DB8  00A9               	movwf	___fladd@aexp
  2547  0DB9                     l1846:	
  2548  0DB9  1FF8               	btfss	___fladd@a+2,7
  2549  0DBA  2DBC               	goto	u1961
  2550  0DBB  2DBD               	goto	u1960
  2551  0DBC                     u1961:	
  2552  0DBC  2DBE               	goto	l1850
  2553  0DBD                     u1960:	
  2554  0DBD                     l1848:	
  2555  0DBD  1429               	bsf	___fladd@aexp,0
  2556  0DBE                     l1850:	
  2557  0DBE  0829               	movf	___fladd@aexp,w
  2558  0DBF  1903               	btfsc	3,2
  2559  0DC0  2DC2               	goto	u1971
  2560  0DC1  2DC3               	goto	u1970
  2561  0DC2                     u1971:	
  2562  0DC2  2DD3               	goto	l1860
  2563  0DC3                     u1970:	
  2564  0DC3                     l1852:	
  2565  0DC3  0A29               	incf	___fladd@aexp,w
  2566  0DC4  1D03               	btfss	3,2
  2567  0DC5  2DC7               	goto	u1981
  2568  0DC6  2DC8               	goto	u1980
  2569  0DC7                     u1981:	
  2570  0DC7  2DD0               	goto	l1856
  2571  0DC8                     u1980:	
  2572  0DC8                     l1854:	
  2573  0DC8  3000               	movlw	0
  2574  0DC9  00F9               	movwf	___fladd@a+3
  2575  0DCA  3000               	movlw	0
  2576  0DCB  00F8               	movwf	___fladd@a+2
  2577  0DCC  3000               	movlw	0
  2578  0DCD  00F7               	movwf	___fladd@a+1
  2579  0DCE  3000               	movlw	0
  2580  0DCF  00F6               	movwf	___fladd@a
  2581  0DD0                     l1856:	
  2582  0DD0  17F8               	bsf	___fladd@a+2,7
  2583  0DD1                     l1858:	
  2584  0DD1  01F9               	clrf	___fladd@a+3
  2585  0DD2  2DDB               	goto	l549
  2586  0DD3                     l1860:	
  2587  0DD3  3000               	movlw	0
  2588  0DD4  00F9               	movwf	___fladd@a+3
  2589  0DD5  3000               	movlw	0
  2590  0DD6  00F8               	movwf	___fladd@a+2
  2591  0DD7  3000               	movlw	0
  2592  0DD8  00F7               	movwf	___fladd@a+1
  2593  0DD9  3000               	movlw	0
  2594  0DDA  00F6               	movwf	___fladd@a
  2595  0DDB                     l549:	
  2596  0DDB  082A               	movf	___fladd@bexp,w
  2597  0DDC  0229               	subwf	___fladd@aexp,w
  2598  0DDD  1803               	skipnc
  2599  0DDE  2DE0               	goto	u1991
  2600  0DDF  2DE1               	goto	u1990
  2601  0DE0                     u1991:	
  2602  0DE0  2E25               	goto	l1896
  2603  0DE1                     u1990:	
  2604  0DE1                     l1862:	
  2605  0DE1  1F28               	btfss	___fladd@signs,6
  2606  0DE2  2DE4               	goto	u2001
  2607  0DE3  2DE5               	goto	u2000
  2608  0DE4                     u2001:	
  2609  0DE4  2DE9               	goto	l1866
  2610  0DE5                     u2000:	
  2611  0DE5                     l1864:	
  2612  0DE5  3080               	movlw	128
  2613  0DE6  00A0               	movwf	??___fladd
  2614  0DE7  0820               	movf	??___fladd,w
  2615  0DE8  06A8               	xorwf	___fladd@signs,f
  2616  0DE9                     l1866:	
  2617  0DE9  082A               	movf	___fladd@bexp,w
  2618  0DEA  00A0               	movwf	??___fladd
  2619  0DEB  0820               	movf	??___fladd,w
  2620  0DEC  00AB               	movwf	___fladd@grs
  2621  0DED                     l1868:	
  2622  0DED  0829               	movf	___fladd@aexp,w
  2623  0DEE  00A0               	movwf	??___fladd
  2624  0DEF  0820               	movf	??___fladd,w
  2625  0DF0  00AA               	movwf	___fladd@bexp
  2626  0DF1                     l1870:	
  2627  0DF1  082B               	movf	___fladd@grs,w
  2628  0DF2  00A0               	movwf	??___fladd
  2629  0DF3  0820               	movf	??___fladd,w
  2630  0DF4  00A9               	movwf	___fladd@aexp
  2631  0DF5                     l1872:	
  2632  0DF5  0872               	movf	___fladd@b,w
  2633  0DF6  00A0               	movwf	??___fladd
  2634  0DF7  0820               	movf	??___fladd,w
  2635  0DF8  00AB               	movwf	___fladd@grs
  2636  0DF9                     l1874:	
  2637  0DF9  0876               	movf	___fladd@a,w
  2638  0DFA  00A0               	movwf	??___fladd
  2639  0DFB  0820               	movf	??___fladd,w
  2640  0DFC  00F2               	movwf	___fladd@b
  2641  0DFD                     l1876:	
  2642  0DFD  082B               	movf	___fladd@grs,w
  2643  0DFE  00A0               	movwf	??___fladd
  2644  0DFF  0820               	movf	??___fladd,w
  2645  0E00  00F6               	movwf	___fladd@a
  2646  0E01                     l1878:	
  2647  0E01  0873               	movf	___fladd@b+1,w
  2648  0E02  00A0               	movwf	??___fladd
  2649  0E03  0820               	movf	??___fladd,w
  2650  0E04  00AB               	movwf	___fladd@grs
  2651  0E05                     l1880:	
  2652  0E05  0877               	movf	___fladd@a+1,w
  2653  0E06  00A0               	movwf	??___fladd
  2654  0E07  0820               	movf	??___fladd,w
  2655  0E08  00F3               	movwf	___fladd@b+1
  2656  0E09                     l1882:	
  2657  0E09  082B               	movf	___fladd@grs,w
  2658  0E0A  00A0               	movwf	??___fladd
  2659  0E0B  0820               	movf	??___fladd,w
  2660  0E0C  00F7               	movwf	___fladd@a+1
  2661  0E0D                     l1884:	
  2662  0E0D  0874               	movf	___fladd@b+2,w
  2663  0E0E  00A0               	movwf	??___fladd
  2664  0E0F  0820               	movf	??___fladd,w
  2665  0E10  00AB               	movwf	___fladd@grs
  2666  0E11                     l1886:	
  2667  0E11  0878               	movf	___fladd@a+2,w
  2668  0E12  00A0               	movwf	??___fladd
  2669  0E13  0820               	movf	??___fladd,w
  2670  0E14  00F4               	movwf	___fladd@b+2
  2671  0E15                     l1888:	
  2672  0E15  082B               	movf	___fladd@grs,w
  2673  0E16  00A0               	movwf	??___fladd
  2674  0E17  0820               	movf	??___fladd,w
  2675  0E18  00F8               	movwf	___fladd@a+2
  2676  0E19                     l1890:	
  2677  0E19  0875               	movf	___fladd@b+3,w
  2678  0E1A  00A0               	movwf	??___fladd
  2679  0E1B  0820               	movf	??___fladd,w
  2680  0E1C  00AB               	movwf	___fladd@grs
  2681  0E1D                     l1892:	
  2682  0E1D  0879               	movf	___fladd@a+3,w
  2683  0E1E  00A0               	movwf	??___fladd
  2684  0E1F  0820               	movf	??___fladd,w
  2685  0E20  00F5               	movwf	___fladd@b+3
  2686  0E21                     l1894:	
  2687  0E21  082B               	movf	___fladd@grs,w
  2688  0E22  00A0               	movwf	??___fladd
  2689  0E23  0820               	movf	??___fladd,w
  2690  0E24  00F9               	movwf	___fladd@a+3
  2691  0E25                     l1896:	
  2692  0E25  01AB               	clrf	___fladd@grs
  2693  0E26                     l1898:	
  2694  0E26  0829               	movf	___fladd@aexp,w
  2695  0E27  00A0               	movwf	??___fladd
  2696  0E28  01A1               	clrf	??___fladd+1
  2697  0E29  0821               	movf	??___fladd+1,w
  2698  0E2A  00A3               	movwf	??___fladd+3
  2699  0E2B  082A               	movf	___fladd@bexp,w
  2700  0E2C  0220               	subwf	??___fladd,w
  2701  0E2D  00A2               	movwf	??___fladd+2
  2702  0E2E  1C03               	skipc
  2703  0E2F  03A3               	decf	??___fladd+3,f
  2704  0E30  0823               	movf	??___fladd+3,w
  2705  0E31  3A80               	xorlw	128
  2706  0E32  00FF               	movwf	btemp+1
  2707  0E33  3080               	movlw	128
  2708  0E34  027F               	subwf	btemp+1,w
  2709  0E35  1D03               	skipz
  2710  0E36  2E39               	goto	u2015
  2711  0E37  301A               	movlw	26
  2712  0E38  0222               	subwf	??___fladd+2,w
  2713  0E39                     u2015:	
  2714  0E39  1C03               	skipc
  2715  0E3A  2E3C               	goto	u2011
  2716  0E3B  2E3D               	goto	u2010
  2717  0E3C                     u2011:	
  2718  0E3C  2E7A               	goto	l1914
  2719  0E3D                     u2010:	
  2720  0E3D                     l1900:	
  2721  0E3D  0875               	movf	___fladd@b+3,w
  2722  0E3E  0474               	iorwf	___fladd@b+2,w
  2723  0E3F  0473               	iorwf	___fladd@b+1,w
  2724  0E40  0472               	iorwf	___fladd@b,w
  2725  0E41  1D03               	skipz
  2726  0E42  2E44               	goto	u2021
  2727  0E43  2E46               	goto	u2020
  2728  0E44                     u2021:	
  2729  0E44  3001               	movlw	1
  2730  0E45  2E47               	goto	u2030
  2731  0E46                     u2020:	
  2732  0E46  3000               	movlw	0
  2733  0E47                     u2030:	
  2734  0E47  1283               	bcf	3,5	;RP0=0, select bank0
  2735  0E48  1303               	bcf	3,6	;RP1=0, select bank0
  2736  0E49  00A0               	movwf	??___fladd
  2737  0E4A  0820               	movf	??___fladd,w
  2738  0E4B  00AB               	movwf	___fladd@grs
  2739  0E4C  3000               	movlw	0
  2740  0E4D  00F5               	movwf	___fladd@b+3
  2741  0E4E  3000               	movlw	0
  2742  0E4F  00F4               	movwf	___fladd@b+2
  2743  0E50  3000               	movlw	0
  2744  0E51  00F3               	movwf	___fladd@b+1
  2745  0E52  3000               	movlw	0
  2746  0E53  00F2               	movwf	___fladd@b
  2747  0E54  0829               	movf	___fladd@aexp,w
  2748  0E55  00A0               	movwf	??___fladd
  2749  0E56  0820               	movf	??___fladd,w
  2750  0E57  00AA               	movwf	___fladd@bexp
  2751  0E58  2E82               	goto	l553
  2752  0E59                     l555:	
  2753  0E59  1C2B               	btfss	___fladd@grs,0
  2754  0E5A  2E5C               	goto	u2041
  2755  0E5B  2E5D               	goto	u2040
  2756  0E5C                     u2041:	
  2757  0E5C  2E66               	goto	l1904
  2758  0E5D                     u2040:	
  2759  0E5D                     l1902:	
  2760  0E5D  082B               	movf	___fladd@grs,w
  2761  0E5E  00A0               	movwf	??___fladd
  2762  0E5F  1003               	clrc
  2763  0E60  0C20               	rrf	??___fladd,w
  2764  0E61  3801               	iorlw	1
  2765  0E62  00A1               	movwf	??___fladd+1
  2766  0E63  0821               	movf	??___fladd+1,w
  2767  0E64  00AB               	movwf	___fladd@grs
  2768  0E65  2E68               	goto	l1906
  2769  0E66                     l1904:	
  2770  0E66  1003               	clrc
  2771  0E67  0CAB               	rrf	___fladd@grs,f
  2772  0E68                     l1906:	
  2773  0E68  1C72               	btfss	___fladd@b,0
  2774  0E69  2E6B               	goto	u2051
  2775  0E6A  2E6C               	goto	u2050
  2776  0E6B                     u2051:	
  2777  0E6B  2E6D               	goto	l1910
  2778  0E6C                     u2050:	
  2779  0E6C                     l1908:	
  2780  0E6C  17AB               	bsf	___fladd@grs,7
  2781  0E6D                     l1910:	
  2782  0E6D  3001               	movlw	1
  2783  0E6E  00A0               	movwf	??___fladd
  2784  0E6F                     u2065:	
  2785  0E6F  0D75               	rlf	___fladd@b+3,w
  2786  0E70  0CF5               	rrf	___fladd@b+3,f
  2787  0E71  0CF4               	rrf	___fladd@b+2,f
  2788  0E72  0CF3               	rrf	___fladd@b+1,f
  2789  0E73  0CF2               	rrf	___fladd@b,f
  2790  0E74  0BA0               	decfsz	??___fladd& (0+127),f
  2791  0E75  2E6F               	goto	u2065
  2792  0E76                     l1912:	
  2793  0E76  3001               	movlw	1
  2794  0E77  00A0               	movwf	??___fladd
  2795  0E78  0820               	movf	??___fladd,w
  2796  0E79  07AA               	addwf	___fladd@bexp,f
  2797  0E7A                     l1914:	
  2798  0E7A  1283               	bcf	3,5	;RP0=0, select bank0
  2799  0E7B  1303               	bcf	3,6	;RP1=0, select bank0
  2800  0E7C  0829               	movf	___fladd@aexp,w
  2801  0E7D  022A               	subwf	___fladd@bexp,w
  2802  0E7E  1C03               	skipc
  2803  0E7F  2E81               	goto	u2071
  2804  0E80  2E82               	goto	u2070
  2805  0E81                     u2071:	
  2806  0E81  2E59               	goto	l555
  2807  0E82                     u2070:	
  2808  0E82                     l553:	
  2809  0E82  1B28               	btfsc	___fladd@signs,6
  2810  0E83  2E85               	goto	u2081
  2811  0E84  2E86               	goto	u2080
  2812  0E85                     u2081:	
  2813  0E85  2ED1               	goto	l1940
  2814  0E86                     u2080:	
  2815  0E86                     l1916:	
  2816  0E86  082A               	movf	___fladd@bexp,w
  2817  0E87  1D03               	btfss	3,2
  2818  0E88  2E8A               	goto	u2091
  2819  0E89  2E8B               	goto	u2090
  2820  0E8A                     u2091:	
  2821  0E8A  2E94               	goto	l1922
  2822  0E8B                     u2090:	
  2823  0E8B                     l1918:	
  2824  0E8B  3000               	movlw	0
  2825  0E8C  00F5               	movwf	?___fladd+3
  2826  0E8D  3000               	movlw	0
  2827  0E8E  00F4               	movwf	?___fladd+2
  2828  0E8F  3000               	movlw	0
  2829  0E90  00F3               	movwf	?___fladd+1
  2830  0E91  3000               	movlw	0
  2831  0E92  00F2               	movwf	?___fladd
  2832  0E93  2FFF               	goto	l562
  2833  0E94                     l1922:	
  2834  0E94  0876               	movf	___fladd@a,w
  2835  0E95  07F2               	addwf	___fladd@b,f
  2836  0E96  0877               	movf	___fladd@a+1,w
  2837  0E97  1103               	clrz
  2838  0E98  1803               	skipnc
  2839  0E99  3E01               	addlw	1
  2840  0E9A  1903               	skipnz
  2841  0E9B  2E9D               	goto	u2101
  2842  0E9C  07F3               	addwf	___fladd@b+1,f
  2843  0E9D                     u2101:	
  2844  0E9D  0878               	movf	___fladd@a+2,w
  2845  0E9E  1103               	clrz
  2846  0E9F  1803               	skipnc
  2847  0EA0  3E01               	addlw	1
  2848  0EA1  1903               	skipnz
  2849  0EA2  2EA4               	goto	u2102
  2850  0EA3  07F4               	addwf	___fladd@b+2,f
  2851  0EA4                     u2102:	
  2852  0EA4  0879               	movf	___fladd@a+3,w
  2853  0EA5  1103               	clrz
  2854  0EA6  1803               	skipnc
  2855  0EA7  3E01               	addlw	1
  2856  0EA8  1903               	skipnz
  2857  0EA9  2EAB               	goto	u2103
  2858  0EAA  07F5               	addwf	___fladd@b+3,f
  2859  0EAB                     u2103:	
  2860  0EAB                     l1924:	
  2861  0EAB  1C75               	btfss	___fladd@b+3,0
  2862  0EAC  2EAE               	goto	u2111
  2863  0EAD  2EAF               	goto	u2110
  2864  0EAE                     u2111:	
  2865  0EAE  2F85               	goto	l1974
  2866  0EAF                     u2110:	
  2867  0EAF                     l1926:	
  2868  0EAF  1C2B               	btfss	___fladd@grs,0
  2869  0EB0  2EB2               	goto	u2121
  2870  0EB1  2EB3               	goto	u2120
  2871  0EB2                     u2121:	
  2872  0EB2  2EBC               	goto	l1930
  2873  0EB3                     u2120:	
  2874  0EB3                     l1928:	
  2875  0EB3  082B               	movf	___fladd@grs,w
  2876  0EB4  00A0               	movwf	??___fladd
  2877  0EB5  1003               	clrc
  2878  0EB6  0C20               	rrf	??___fladd,w
  2879  0EB7  3801               	iorlw	1
  2880  0EB8  00A1               	movwf	??___fladd+1
  2881  0EB9  0821               	movf	??___fladd+1,w
  2882  0EBA  00AB               	movwf	___fladd@grs
  2883  0EBB  2EBE               	goto	l1932
  2884  0EBC                     l1930:	
  2885  0EBC  1003               	clrc
  2886  0EBD  0CAB               	rrf	___fladd@grs,f
  2887  0EBE                     l1932:	
  2888  0EBE  1C72               	btfss	___fladd@b,0
  2889  0EBF  2EC1               	goto	u2131
  2890  0EC0  2EC2               	goto	u2130
  2891  0EC1                     u2131:	
  2892  0EC1  2EC3               	goto	l1936
  2893  0EC2                     u2130:	
  2894  0EC2                     l1934:	
  2895  0EC2  17AB               	bsf	___fladd@grs,7
  2896  0EC3                     l1936:	
  2897  0EC3  3001               	movlw	1
  2898  0EC4  00A0               	movwf	??___fladd
  2899  0EC5                     u2145:	
  2900  0EC5  0D75               	rlf	___fladd@b+3,w
  2901  0EC6  0CF5               	rrf	___fladd@b+3,f
  2902  0EC7  0CF4               	rrf	___fladd@b+2,f
  2903  0EC8  0CF3               	rrf	___fladd@b+1,f
  2904  0EC9  0CF2               	rrf	___fladd@b,f
  2905  0ECA  0BA0               	decfsz	??___fladd& (0+127),f
  2906  0ECB  2EC5               	goto	u2145
  2907  0ECC                     l1938:	
  2908  0ECC  3001               	movlw	1
  2909  0ECD  00A0               	movwf	??___fladd
  2910  0ECE  0820               	movf	??___fladd,w
  2911  0ECF  07AA               	addwf	___fladd@bexp,f
  2912  0ED0  2F85               	goto	l1974
  2913  0ED1                     l1940:	
  2914  0ED1  0875               	movf	___fladd@b+3,w
  2915  0ED2  3A80               	xorlw	128
  2916  0ED3  00FF               	movwf	btemp+1
  2917  0ED4  0879               	movf	___fladd@a+3,w
  2918  0ED5  3A80               	xorlw	128
  2919  0ED6  027F               	subwf	btemp+1,w
  2920  0ED7  1D03               	skipz
  2921  0ED8  2EE3               	goto	u2153
  2922  0ED9  0878               	movf	___fladd@a+2,w
  2923  0EDA  0274               	subwf	___fladd@b+2,w
  2924  0EDB  1D03               	skipz
  2925  0EDC  2EE3               	goto	u2153
  2926  0EDD  0877               	movf	___fladd@a+1,w
  2927  0EDE  0273               	subwf	___fladd@b+1,w
  2928  0EDF  1D03               	skipz
  2929  0EE0  2EE3               	goto	u2153
  2930  0EE1  0876               	movf	___fladd@a,w
  2931  0EE2  0272               	subwf	___fladd@b,w
  2932  0EE3                     u2153:	
  2933  0EE3  1803               	skipnc
  2934  0EE4  2EE6               	goto	u2151
  2935  0EE5  2EE7               	goto	u2150
  2936  0EE6                     u2151:	
  2937  0EE6  2F3F               	goto	l1950
  2938  0EE7                     u2150:	
  2939  0EE7                     l1942:	
  2940  0EE7  30FF               	movlw	255
  2941  0EE8  00A0               	movwf	??___fladd
  2942  0EE9  30FF               	movlw	255
  2943  0EEA  00A1               	movwf	??___fladd+1
  2944  0EEB  30FF               	movlw	255
  2945  0EEC  00A2               	movwf	??___fladd+2
  2946  0EED  30FF               	movlw	255
  2947  0EEE  00A3               	movwf	??___fladd+3
  2948  0EEF  0876               	movf	___fladd@a,w
  2949  0EF0  00A4               	movwf	??___fladd+4
  2950  0EF1  0877               	movf	___fladd@a+1,w
  2951  0EF2  00A5               	movwf	??___fladd+5
  2952  0EF3  0878               	movf	___fladd@a+2,w
  2953  0EF4  00A6               	movwf	??___fladd+6
  2954  0EF5  0879               	movf	___fladd@a+3,w
  2955  0EF6  00A7               	movwf	??___fladd+7
  2956  0EF7  0872               	movf	___fladd@b,w
  2957  0EF8  02A4               	subwf	??___fladd+4,f
  2958  0EF9  0873               	movf	___fladd@b+1,w
  2959  0EFA  1C03               	skipc
  2960  0EFB  0F73               	incfsz	___fladd@b+1,w
  2961  0EFC  2EFE               	goto	u2161
  2962  0EFD  2EFF               	goto	u2162
  2963  0EFE                     u2161:	
  2964  0EFE  02A5               	subwf	??___fladd+5,f
  2965  0EFF                     u2162:	
  2966  0EFF  0874               	movf	___fladd@b+2,w
  2967  0F00  1C03               	skipc
  2968  0F01  0F74               	incfsz	___fladd@b+2,w
  2969  0F02  2F04               	goto	u2163
  2970  0F03  2F05               	goto	u2164
  2971  0F04                     u2163:	
  2972  0F04  02A6               	subwf	??___fladd+6,f
  2973  0F05                     u2164:	
  2974  0F05  0875               	movf	___fladd@b+3,w
  2975  0F06  1C03               	skipc
  2976  0F07  0F75               	incfsz	___fladd@b+3,w
  2977  0F08  2F0A               	goto	u2165
  2978  0F09  2F0B               	goto	u2166
  2979  0F0A                     u2165:	
  2980  0F0A  02A7               	subwf	??___fladd+7,f
  2981  0F0B                     u2166:	
  2982  0F0B  0824               	movf	??___fladd+4,w
  2983  0F0C  07A0               	addwf	??___fladd,f
  2984  0F0D  0825               	movf	??___fladd+5,w
  2985  0F0E  1803               	skipnc
  2986  0F0F  0F25               	incfsz	??___fladd+5,w
  2987  0F10  2F12               	goto	u2170
  2988  0F11  2F13               	goto	u2171
  2989  0F12                     u2170:	
  2990  0F12  07A1               	addwf	??___fladd+1,f
  2991  0F13                     u2171:	
  2992  0F13  0826               	movf	??___fladd+6,w
  2993  0F14  1803               	skipnc
  2994  0F15  0F26               	incfsz	??___fladd+6,w
  2995  0F16  2F18               	goto	u2172
  2996  0F17  2F19               	goto	u2173
  2997  0F18                     u2172:	
  2998  0F18  07A2               	addwf	??___fladd+2,f
  2999  0F19                     u2173:	
  3000  0F19  0827               	movf	??___fladd+7,w
  3001  0F1A  1803               	skipnc
  3002  0F1B  0A27               	incf	??___fladd+7,w
  3003  0F1C  07A3               	addwf	??___fladd+3,f
  3004  0F1D  0823               	movf	??___fladd+3,w
  3005  0F1E  00F5               	movwf	___fladd@b+3
  3006  0F1F  0822               	movf	??___fladd+2,w
  3007  0F20  00F4               	movwf	___fladd@b+2
  3008  0F21  0821               	movf	??___fladd+1,w
  3009  0F22  00F3               	movwf	___fladd@b+1
  3010  0F23  0820               	movf	??___fladd,w
  3011  0F24  00F2               	movwf	___fladd@b
  3012  0F25                     l1944:	
  3013  0F25  3080               	movlw	128
  3014  0F26  00A0               	movwf	??___fladd
  3015  0F27  0820               	movf	??___fladd,w
  3016  0F28  06A8               	xorwf	___fladd@signs,f
  3017  0F29  09AB               	comf	___fladd@grs,f
  3018  0F2A  0AAB               	incf	___fladd@grs,f
  3019  0F2B                     l1946:	
  3020  0F2B  082B               	movf	___fladd@grs,w
  3021  0F2C  1D03               	btfss	3,2
  3022  0F2D  2F2F               	goto	u2181
  3023  0F2E  2F30               	goto	u2180
  3024  0F2F                     u2181:	
  3025  0F2F  2F4D               	goto	l570
  3026  0F30                     u2180:	
  3027  0F30                     l1948:	
  3028  0F30  3001               	movlw	1
  3029  0F31  07F2               	addwf	___fladd@b,f
  3030  0F32  3000               	movlw	0
  3031  0F33  1803               	skipnc
  3032  0F34  3001               	movlw	1
  3033  0F35  07F3               	addwf	___fladd@b+1,f
  3034  0F36  3000               	movlw	0
  3035  0F37  1803               	skipnc
  3036  0F38  3001               	movlw	1
  3037  0F39  07F4               	addwf	___fladd@b+2,f
  3038  0F3A  3000               	movlw	0
  3039  0F3B  1803               	skipnc
  3040  0F3C  3001               	movlw	1
  3041  0F3D  07F5               	addwf	___fladd@b+3,f
  3042  0F3E  2F4D               	goto	l570
  3043  0F3F                     l1950:	
  3044  0F3F  0876               	movf	___fladd@a,w
  3045  0F40  02F2               	subwf	___fladd@b,f
  3046  0F41  0877               	movf	___fladd@a+1,w
  3047  0F42  1C03               	skipc
  3048  0F43  0F77               	incfsz	___fladd@a+1,w
  3049  0F44  02F3               	subwf	___fladd@b+1,f
  3050  0F45  0878               	movf	___fladd@a+2,w
  3051  0F46  1C03               	skipc
  3052  0F47  0F78               	incfsz	___fladd@a+2,w
  3053  0F48  02F4               	subwf	___fladd@b+2,f
  3054  0F49  0879               	movf	___fladd@a+3,w
  3055  0F4A  1C03               	skipc
  3056  0F4B  0F79               	incfsz	___fladd@a+3,w
  3057  0F4C  02F5               	subwf	___fladd@b+3,f
  3058  0F4D                     l570:	
  3059  0F4D  0875               	movf	___fladd@b+3,w
  3060  0F4E  0474               	iorwf	___fladd@b+2,w
  3061  0F4F  0473               	iorwf	___fladd@b+1,w
  3062  0F50  0472               	iorwf	___fladd@b,w
  3063  0F51  1D03               	skipz
  3064  0F52  2F54               	goto	u2191
  3065  0F53  2F55               	goto	u2190
  3066  0F54                     u2191:	
  3067  0F54  2F81               	goto	l1972
  3068  0F55                     u2190:	
  3069  0F55                     l1952:	
  3070  0F55  082B               	movf	___fladd@grs,w
  3071  0F56  1D03               	btfss	3,2
  3072  0F57  2F59               	goto	u2201
  3073  0F58  2F5A               	goto	u2200
  3074  0F59                     u2201:	
  3075  0F59  2F81               	goto	l1972
  3076  0F5A                     u2200:	
  3077  0F5A                     l1954:	
  3078  0F5A  3000               	movlw	0
  3079  0F5B  00F5               	movwf	?___fladd+3
  3080  0F5C  3000               	movlw	0
  3081  0F5D  00F4               	movwf	?___fladd+2
  3082  0F5E  3000               	movlw	0
  3083  0F5F  00F3               	movwf	?___fladd+1
  3084  0F60  3000               	movlw	0
  3085  0F61  00F2               	movwf	?___fladd
  3086  0F62  2FFF               	goto	l562
  3087  0F63                     l1958:	
  3088  0F63  3001               	movlw	1
  3089  0F64  00A0               	movwf	??___fladd
  3090  0F65                     u2215:	
  3091  0F65  1003               	clrc
  3092  0F66  0DF2               	rlf	___fladd@b,f
  3093  0F67  0DF3               	rlf	___fladd@b+1,f
  3094  0F68  0DF4               	rlf	___fladd@b+2,f
  3095  0F69  0DF5               	rlf	___fladd@b+3,f
  3096  0F6A  0BA0               	decfsz	??___fladd,f
  3097  0F6B  2F65               	goto	u2215
  3098  0F6C                     l1960:	
  3099  0F6C  1FAB               	btfss	___fladd@grs,7
  3100  0F6D  2F6F               	goto	u2221
  3101  0F6E  2F70               	goto	u2220
  3102  0F6F                     u2221:	
  3103  0F6F  2F71               	goto	l574
  3104  0F70                     u2220:	
  3105  0F70                     l1962:	
  3106  0F70  1472               	bsf	___fladd@b,0
  3107  0F71                     l574:	
  3108  0F71  1C2B               	btfss	___fladd@grs,0
  3109  0F72  2F74               	goto	u2231
  3110  0F73  2F75               	goto	u2230
  3111  0F74                     u2231:	
  3112  0F74  2F78               	goto	l1966
  3113  0F75                     u2230:	
  3114  0F75                     l1964:	
  3115  0F75  1403               	setc
  3116  0F76  0DAB               	rlf	___fladd@grs,f
  3117  0F77  2F7A               	goto	l1968
  3118  0F78                     l1966:	
  3119  0F78  1003               	clrc
  3120  0F79  0DAB               	rlf	___fladd@grs,f
  3121  0F7A                     l1968:	
  3122  0F7A  082A               	movf	___fladd@bexp,w
  3123  0F7B  1903               	btfsc	3,2
  3124  0F7C  2F7E               	goto	u2241
  3125  0F7D  2F7F               	goto	u2240
  3126  0F7E                     u2241:	
  3127  0F7E  2F81               	goto	l1972
  3128  0F7F                     u2240:	
  3129  0F7F                     l1970:	
  3130  0F7F  3001               	movlw	1
  3131  0F80  02AA               	subwf	___fladd@bexp,f
  3132  0F81                     l1972:	
  3133  0F81  1FF4               	btfss	___fladd@b+2,7
  3134  0F82  2F84               	goto	u2251
  3135  0F83  2F85               	goto	u2250
  3136  0F84                     u2251:	
  3137  0F84  2F63               	goto	l1958
  3138  0F85                     u2250:	
  3139  0F85                     l1974:	
  3140  0F85  01A9               	clrf	___fladd@aexp
  3141  0F86                     l1976:	
  3142  0F86  1FAB               	btfss	___fladd@grs,7
  3143  0F87  2F89               	goto	u2261
  3144  0F88  2F8A               	goto	u2260
  3145  0F89                     u2261:	
  3146  0F89  2F98               	goto	l1984
  3147  0F8A                     u2260:	
  3148  0F8A                     l1978:	
  3149  0F8A  082B               	movf	___fladd@grs,w
  3150  0F8B  397F               	andlw	127
  3151  0F8C  1903               	btfsc	3,2
  3152  0F8D  2F8F               	goto	u2271
  3153  0F8E  2F90               	goto	u2270
  3154  0F8F                     u2271:	
  3155  0F8F  2F93               	goto	l580
  3156  0F90                     u2270:	
  3157  0F90                     l1980:	
  3158  0F90  01A9               	clrf	___fladd@aexp
  3159  0F91  0AA9               	incf	___fladd@aexp,f
  3160  0F92  2F98               	goto	l1984
  3161  0F93                     l580:	
  3162  0F93  1C72               	btfss	___fladd@b,0
  3163  0F94  2F96               	goto	u2281
  3164  0F95  2F97               	goto	u2280
  3165  0F96                     u2281:	
  3166  0F96  2F98               	goto	l1984
  3167  0F97                     u2280:	
  3168  0F97  2F90               	goto	l1980
  3169  0F98                     l1984:	
  3170  0F98  0829               	movf	___fladd@aexp,w
  3171  0F99  1903               	btfsc	3,2
  3172  0F9A  2F9C               	goto	u2291
  3173  0F9B  2F9D               	goto	u2290
  3174  0F9C                     u2291:	
  3175  0F9C  2FD1               	goto	l583
  3176  0F9D                     u2290:	
  3177  0F9D                     l1986:	
  3178  0F9D  3001               	movlw	1
  3179  0F9E  07F2               	addwf	___fladd@b,f
  3180  0F9F  3000               	movlw	0
  3181  0FA0  1803               	skipnc
  3182  0FA1  3001               	movlw	1
  3183  0FA2  07F3               	addwf	___fladd@b+1,f
  3184  0FA3  3000               	movlw	0
  3185  0FA4  1803               	skipnc
  3186  0FA5  3001               	movlw	1
  3187  0FA6  07F4               	addwf	___fladd@b+2,f
  3188  0FA7  3000               	movlw	0
  3189  0FA8  1803               	skipnc
  3190  0FA9  3001               	movlw	1
  3191  0FAA  07F5               	addwf	___fladd@b+3,f
  3192  0FAB                     l1988:	
  3193  0FAB  1C75               	btfss	___fladd@b+3,0
  3194  0FAC  2FAE               	goto	u2301
  3195  0FAD  2FAF               	goto	u2300
  3196  0FAE                     u2301:	
  3197  0FAE  2FD1               	goto	l583
  3198  0FAF                     u2300:	
  3199  0FAF                     l1990:	
  3200  0FAF  0872               	movf	___fladd@b,w
  3201  0FB0  00A0               	movwf	??___fladd
  3202  0FB1  0873               	movf	___fladd@b+1,w
  3203  0FB2  00A1               	movwf	??___fladd+1
  3204  0FB3  0874               	movf	___fladd@b+2,w
  3205  0FB4  00A2               	movwf	??___fladd+2
  3206  0FB5  0875               	movf	___fladd@b+3,w
  3207  0FB6  00A3               	movwf	??___fladd+3
  3208  0FB7  3001               	movlw	1
  3209  0FB8  00A4               	movwf	??___fladd+4
  3210  0FB9                     u2315:	
  3211  0FB9  0D23               	rlf	??___fladd+3,w
  3212  0FBA  0CA3               	rrf	??___fladd+3,f
  3213  0FBB  0CA2               	rrf	??___fladd+2,f
  3214  0FBC  0CA1               	rrf	??___fladd+1,f
  3215  0FBD  0CA0               	rrf	??___fladd,f
  3216  0FBE                     u2310:	
  3217  0FBE  0BA4               	decfsz	??___fladd+4,f
  3218  0FBF  2FB9               	goto	u2315
  3219  0FC0  0823               	movf	??___fladd+3,w
  3220  0FC1  00F5               	movwf	___fladd@b+3
  3221  0FC2  0822               	movf	??___fladd+2,w
  3222  0FC3  00F4               	movwf	___fladd@b+2
  3223  0FC4  0821               	movf	??___fladd+1,w
  3224  0FC5  00F3               	movwf	___fladd@b+1
  3225  0FC6  0820               	movf	??___fladd,w
  3226  0FC7  00F2               	movwf	___fladd@b
  3227  0FC8  0A2A               	incf	___fladd@bexp,w
  3228  0FC9  1903               	btfsc	3,2
  3229  0FCA  2FCC               	goto	u2321
  3230  0FCB  2FCD               	goto	u2320
  3231  0FCC                     u2321:	
  3232  0FCC  2FD1               	goto	l583
  3233  0FCD                     u2320:	
  3234  0FCD                     l1992:	
  3235  0FCD  3001               	movlw	1
  3236  0FCE  00A0               	movwf	??___fladd
  3237  0FCF  0820               	movf	??___fladd,w
  3238  0FD0  07AA               	addwf	___fladd@bexp,f
  3239  0FD1                     l583:	
  3240  0FD1  0A2A               	incf	___fladd@bexp,w
  3241  0FD2  1903               	btfsc	3,2
  3242  0FD3  2FD5               	goto	u2331
  3243  0FD4  2FD6               	goto	u2330
  3244  0FD5                     u2331:	
  3245  0FD5  2FDB               	goto	l1996
  3246  0FD6                     u2330:	
  3247  0FD6                     l1994:	
  3248  0FD6  082A               	movf	___fladd@bexp,w
  3249  0FD7  1D03               	btfss	3,2
  3250  0FD8  2FDA               	goto	u2341
  3251  0FD9  2FDB               	goto	u2340
  3252  0FDA                     u2341:	
  3253  0FDA  2FE9               	goto	l2002
  3254  0FDB                     u2340:	
  3255  0FDB                     l1996:	
  3256  0FDB  3000               	movlw	0
  3257  0FDC  00F5               	movwf	___fladd@b+3
  3258  0FDD  3000               	movlw	0
  3259  0FDE  00F4               	movwf	___fladd@b+2
  3260  0FDF  3000               	movlw	0
  3261  0FE0  00F3               	movwf	___fladd@b+1
  3262  0FE1  3000               	movlw	0
  3263  0FE2  00F2               	movwf	___fladd@b
  3264  0FE3                     l1998:	
  3265  0FE3  082A               	movf	___fladd@bexp,w
  3266  0FE4  1D03               	btfss	3,2
  3267  0FE5  2FE7               	goto	u2351
  3268  0FE6  2FE8               	goto	u2350
  3269  0FE7                     u2351:	
  3270  0FE7  2FE9               	goto	l2002
  3271  0FE8                     u2350:	
  3272  0FE8                     l2000:	
  3273  0FE8  01A8               	clrf	___fladd@signs
  3274  0FE9                     l2002:	
  3275  0FE9  1C2A               	btfss	___fladd@bexp,0
  3276  0FEA  2FEC               	goto	u2361
  3277  0FEB  2FED               	goto	u2360
  3278  0FEC                     u2361:	
  3279  0FEC  2FEF               	goto	l2006
  3280  0FED                     u2360:	
  3281  0FED                     l2004:	
  3282  0FED  17F4               	bsf	___fladd@b+2,7
  3283  0FEE  2FF3               	goto	l591
  3284  0FEF                     l2006:	
  3285  0FEF  307F               	movlw	127
  3286  0FF0  00A0               	movwf	??___fladd
  3287  0FF1  0820               	movf	??___fladd,w
  3288  0FF2  05F4               	andwf	___fladd@b+2,f
  3289  0FF3                     l591:	
  3290  0FF3  082A               	movf	___fladd@bexp,w
  3291  0FF4  00A0               	movwf	??___fladd
  3292  0FF5  1003               	clrc
  3293  0FF6  0C20               	rrf	??___fladd,w
  3294  0FF7  00A1               	movwf	??___fladd+1
  3295  0FF8  0821               	movf	??___fladd+1,w
  3296  0FF9  00F5               	movwf	___fladd@b+3
  3297  0FFA                     l2008:	
  3298  0FFA  1FA8               	btfss	___fladd@signs,7
  3299  0FFB  2FFD               	goto	u2371
  3300  0FFC  2FFE               	goto	u2370
  3301  0FFD                     u2371:	
  3302  0FFD  2FFF               	goto	l592
  3303  0FFE                     u2370:	
  3304  0FFE                     l2010:	
  3305  0FFE  17F5               	bsf	___fladd@b+3,7
  3306  0FFF                     l592:	
  3307  0FFF                     l562:	
  3308  0FFF  0008               	return
  3309  1000                     __end_of___fladd:	
  3310                           
  3311                           	psect	text6
  3312  0023                     __ptext6:	
  3313 ;; *************** function ___flmul *****************
  3314 ;; Defined at:
  3315 ;;		line 8 in file "C:\Program Files (x86)\Microchip\xc8\v2.10\pic\sources\c90\common\sprcmul.c"
  3316 ;; Parameters:    Size  Location     Type
  3317 ;;  b               4   20[BANK0 ] unsigned char 
  3318 ;;  a               4   24[BANK0 ] unsigned char 
  3319 ;; Auto vars:     Size  Location     Type
  3320 ;;  prod            4   40[BANK0 ] struct .
  3321 ;;  grs             4   35[BANK0 ] unsigned long 
  3322 ;;  temp            2   44[BANK0 ] struct .
  3323 ;;  bexp            1   39[BANK0 ] unsigned char 
  3324 ;;  aexp            1   34[BANK0 ] unsigned char 
  3325 ;;  sign            1   33[BANK0 ] unsigned char 
  3326 ;; Return value:  Size  Location     Type
  3327 ;;                  4   20[BANK0 ] unsigned char 
  3328 ;; Registers used:
  3329 ;;		wreg, status,2, status,0, btemp+1, pclath, cstack
  3330 ;; Tracked objects:
  3331 ;;		On entry : 0/0
  3332 ;;		On exit  : 0/0
  3333 ;;		Unchanged: 0/0
  3334 ;; Data sizes:     COMMON   BANK0   BANK1   BANK3   BANK2
  3335 ;;      Params:         0       8       0       0       0
  3336 ;;      Locals:         0      13       0       0       0
  3337 ;;      Temps:          0       5       0       0       0
  3338 ;;      Totals:         0      26       0       0       0
  3339 ;;Total ram usage:       26 bytes
  3340 ;; Hardware stack levels used:    1
  3341 ;; Hardware stack levels required when called:    2
  3342 ;; This function calls:
  3343 ;;		__Umul8_16
  3344 ;; This function is called by:
  3345 ;;		_main
  3346 ;; This function uses a non-reentrant model
  3347 ;;
  3348                           
  3349                           
  3350                           ;psect for function ___flmul
  3351  0023                     ___flmul:	
  3352  0023                     l2754:	
  3353                           ;incstack = 0
  3354                           ; Regs used in ___flmul: [wreg+status,2+status,0+btemp+1+pclath+cstack]
  3355                           
  3356  0023  1283               	bcf	3,5	;RP0=0, select bank0
  3357  0024  1303               	bcf	3,6	;RP1=0, select bank0
  3358  0025  0837               	movf	___flmul@b+3,w
  3359  0026  3980               	andlw	128
  3360  0027  00BC               	movwf	??___flmul
  3361  0028  083C               	movf	??___flmul,w
  3362  0029  00C1               	movwf	___flmul@sign
  3363  002A                     l2756:	
  3364  002A  0837               	movf	___flmul@b+3,w
  3365  002B  00BC               	movwf	??___flmul
  3366  002C  073C               	addwf	??___flmul,w
  3367  002D  00BD               	movwf	??___flmul+1
  3368  002E  083D               	movf	??___flmul+1,w
  3369  002F  00C7               	movwf	___flmul@bexp
  3370  0030                     l2758:	
  3371  0030  1FB6               	btfss	___flmul@b+2,7
  3372  0031  2833               	goto	u3651
  3373  0032  2834               	goto	u3650
  3374  0033                     u3651:	
  3375  0033  2835               	goto	l2762
  3376  0034                     u3650:	
  3377  0034                     l2760:	
  3378  0034  1447               	bsf	___flmul@bexp,0
  3379  0035                     l2762:	
  3380  0035  0847               	movf	___flmul@bexp,w
  3381  0036  1903               	btfsc	3,2
  3382  0037  2839               	goto	u3661
  3383  0038  283A               	goto	u3660
  3384  0039                     u3661:	
  3385  0039  2849               	goto	l2770
  3386  003A                     u3660:	
  3387  003A                     l2764:	
  3388  003A  0A47               	incf	___flmul@bexp,w
  3389  003B  1D03               	btfss	3,2
  3390  003C  283E               	goto	u3671
  3391  003D  283F               	goto	u3670
  3392  003E                     u3671:	
  3393  003E  2847               	goto	l2768
  3394  003F                     u3670:	
  3395  003F                     l2766:	
  3396  003F  3000               	movlw	0
  3397  0040  00B7               	movwf	___flmul@b+3
  3398  0041  3000               	movlw	0
  3399  0042  00B6               	movwf	___flmul@b+2
  3400  0043  3000               	movlw	0
  3401  0044  00B5               	movwf	___flmul@b+1
  3402  0045  3000               	movlw	0
  3403  0046  00B4               	movwf	___flmul@b
  3404  0047                     l2768:	
  3405  0047  17B6               	bsf	___flmul@b+2,7
  3406  0048  2851               	goto	l2772
  3407  0049                     l2770:	
  3408  0049  3000               	movlw	0
  3409  004A  00B7               	movwf	___flmul@b+3
  3410  004B  3000               	movlw	0
  3411  004C  00B6               	movwf	___flmul@b+2
  3412  004D  3000               	movlw	0
  3413  004E  00B5               	movwf	___flmul@b+1
  3414  004F  3000               	movlw	0
  3415  0050  00B4               	movwf	___flmul@b
  3416  0051                     l2772:	
  3417  0051  083B               	movf	___flmul@a+3,w
  3418  0052  3980               	andlw	128
  3419  0053  00BC               	movwf	??___flmul
  3420  0054  083C               	movf	??___flmul,w
  3421  0055  06C1               	xorwf	___flmul@sign,f
  3422  0056                     l2774:	
  3423  0056  083B               	movf	___flmul@a+3,w
  3424  0057  00BC               	movwf	??___flmul
  3425  0058  073C               	addwf	??___flmul,w
  3426  0059  00BD               	movwf	??___flmul+1
  3427  005A  083D               	movf	??___flmul+1,w
  3428  005B  00C2               	movwf	___flmul@aexp
  3429  005C                     l2776:	
  3430  005C  1FBA               	btfss	___flmul@a+2,7
  3431  005D  285F               	goto	u3681
  3432  005E  2860               	goto	u3680
  3433  005F                     u3681:	
  3434  005F  2861               	goto	l2780
  3435  0060                     u3680:	
  3436  0060                     l2778:	
  3437  0060  1442               	bsf	___flmul@aexp,0
  3438  0061                     l2780:	
  3439  0061  0842               	movf	___flmul@aexp,w
  3440  0062  1903               	btfsc	3,2
  3441  0063  2865               	goto	u3691
  3442  0064  2866               	goto	u3690
  3443  0065                     u3691:	
  3444  0065  2875               	goto	l2788
  3445  0066                     u3690:	
  3446  0066                     l2782:	
  3447  0066  0A42               	incf	___flmul@aexp,w
  3448  0067  1D03               	btfss	3,2
  3449  0068  286A               	goto	u3701
  3450  0069  286B               	goto	u3700
  3451  006A                     u3701:	
  3452  006A  2873               	goto	l2786
  3453  006B                     u3700:	
  3454  006B                     l2784:	
  3455  006B  3000               	movlw	0
  3456  006C  00BB               	movwf	___flmul@a+3
  3457  006D  3000               	movlw	0
  3458  006E  00BA               	movwf	___flmul@a+2
  3459  006F  3000               	movlw	0
  3460  0070  00B9               	movwf	___flmul@a+1
  3461  0071  3000               	movlw	0
  3462  0072  00B8               	movwf	___flmul@a
  3463  0073                     l2786:	
  3464  0073  17BA               	bsf	___flmul@a+2,7
  3465  0074  287D               	goto	l2790
  3466  0075                     l2788:	
  3467  0075  3000               	movlw	0
  3468  0076  00BB               	movwf	___flmul@a+3
  3469  0077  3000               	movlw	0
  3470  0078  00BA               	movwf	___flmul@a+2
  3471  0079  3000               	movlw	0
  3472  007A  00B9               	movwf	___flmul@a+1
  3473  007B  3000               	movlw	0
  3474  007C  00B8               	movwf	___flmul@a
  3475  007D                     l2790:	
  3476  007D  0842               	movf	___flmul@aexp,w
  3477  007E  1903               	btfsc	3,2
  3478  007F  2881               	goto	u3711
  3479  0080  2882               	goto	u3710
  3480  0081                     u3711:	
  3481  0081  2887               	goto	l2794
  3482  0082                     u3710:	
  3483  0082                     l2792:	
  3484  0082  0847               	movf	___flmul@bexp,w
  3485  0083  1D03               	btfss	3,2
  3486  0084  2886               	goto	u3721
  3487  0085  2887               	goto	u3720
  3488  0086                     u3721:	
  3489  0086  2890               	goto	l2798
  3490  0087                     u3720:	
  3491  0087                     l2794:	
  3492  0087  3000               	movlw	0
  3493  0088  00B7               	movwf	?___flmul+3
  3494  0089  3000               	movlw	0
  3495  008A  00B6               	movwf	?___flmul+2
  3496  008B  3000               	movlw	0
  3497  008C  00B5               	movwf	?___flmul+1
  3498  008D  3000               	movlw	0
  3499  008E  00B4               	movwf	?___flmul
  3500  008F  2B83               	goto	l645
  3501  0090                     l2798:	
  3502  0090  0834               	movf	___flmul@b,w
  3503  0091  00BC               	movwf	??___flmul
  3504  0092  083C               	movf	??___flmul,w
  3505  0093  00F2               	movwf	__Umul8_16@multiplicand
  3506  0094  083A               	movf	___flmul@a+2,w
  3507  0095  120A  158A  21A2  120A  118A  	fcall	__Umul8_16
  3508  009A  0873               	movf	?__Umul8_16+1,w
  3509  009B  1283               	bcf	3,5	;RP0=0, select bank0
  3510  009C  1303               	bcf	3,6	;RP1=0, select bank0
  3511  009D  00CD               	movwf	___flmul@temp+1
  3512  009E  0872               	movf	?__Umul8_16,w
  3513  009F  00CC               	movwf	___flmul@temp
  3514  00A0                     l2800:	
  3515  00A0  084C               	movf	___flmul@temp,w
  3516  00A1  00BC               	movwf	??___flmul
  3517  00A2  01BD               	clrf	??___flmul+1
  3518  00A3  01BE               	clrf	??___flmul+2
  3519  00A4  01BF               	clrf	??___flmul+3
  3520  00A5  083F               	movf	??___flmul+3,w
  3521  00A6  00C6               	movwf	___flmul@grs+3
  3522  00A7  083E               	movf	??___flmul+2,w
  3523  00A8  00C5               	movwf	___flmul@grs+2
  3524  00A9  083D               	movf	??___flmul+1,w
  3525  00AA  00C4               	movwf	___flmul@grs+1
  3526  00AB  083C               	movf	??___flmul,w
  3527  00AC  00C3               	movwf	___flmul@grs
  3528  00AD                     l2802:	
  3529  00AD  084D               	movf	___flmul@temp+1,w
  3530  00AE  00BC               	movwf	??___flmul
  3531  00AF  01BD               	clrf	??___flmul+1
  3532  00B0  01BE               	clrf	??___flmul+2
  3533  00B1  01BF               	clrf	??___flmul+3
  3534  00B2  083F               	movf	??___flmul+3,w
  3535  00B3  00CB               	movwf	___flmul@prod+3
  3536  00B4  083E               	movf	??___flmul+2,w
  3537  00B5  00CA               	movwf	___flmul@prod+2
  3538  00B6  083D               	movf	??___flmul+1,w
  3539  00B7  00C9               	movwf	___flmul@prod+1
  3540  00B8  083C               	movf	??___flmul,w
  3541  00B9  00C8               	movwf	___flmul@prod
  3542  00BA  0835               	movf	___flmul@b+1,w
  3543  00BB  00BC               	movwf	??___flmul
  3544  00BC  083C               	movf	??___flmul,w
  3545  00BD  00F2               	movwf	__Umul8_16@multiplicand
  3546  00BE  0839               	movf	___flmul@a+1,w
  3547  00BF  120A  158A  21A2  120A  118A  	fcall	__Umul8_16
  3548  00C4  0873               	movf	?__Umul8_16+1,w
  3549  00C5  1283               	bcf	3,5	;RP0=0, select bank0
  3550  00C6  1303               	bcf	3,6	;RP1=0, select bank0
  3551  00C7  00CD               	movwf	___flmul@temp+1
  3552  00C8  0872               	movf	?__Umul8_16,w
  3553  00C9  00CC               	movwf	___flmul@temp
  3554  00CA                     l2804:	
  3555  00CA  084C               	movf	___flmul@temp,w
  3556  00CB  00BC               	movwf	??___flmul
  3557  00CC  01BD               	clrf	??___flmul+1
  3558  00CD  01BE               	clrf	??___flmul+2
  3559  00CE  01BF               	clrf	??___flmul+3
  3560  00CF  083C               	movf	??___flmul,w
  3561  00D0  07C3               	addwf	___flmul@grs,f
  3562  00D1  083D               	movf	??___flmul+1,w
  3563  00D2  1103               	clrz
  3564  00D3  1803               	skipnc
  3565  00D4  3E01               	addlw	1
  3566  00D5  1903               	skipnz
  3567  00D6  28D8               	goto	u3731
  3568  00D7  07C4               	addwf	___flmul@grs+1,f
  3569  00D8                     u3731:	
  3570  00D8  083E               	movf	??___flmul+2,w
  3571  00D9  1103               	clrz
  3572  00DA  1803               	skipnc
  3573  00DB  3E01               	addlw	1
  3574  00DC  1903               	skipnz
  3575  00DD  28DF               	goto	u3732
  3576  00DE  07C5               	addwf	___flmul@grs+2,f
  3577  00DF                     u3732:	
  3578  00DF  083F               	movf	??___flmul+3,w
  3579  00E0  1103               	clrz
  3580  00E1  1803               	skipnc
  3581  00E2  3E01               	addlw	1
  3582  00E3  1903               	skipnz
  3583  00E4  28E6               	goto	u3733
  3584  00E5  07C6               	addwf	___flmul@grs+3,f
  3585  00E6                     u3733:	
  3586  00E6                     l2806:	
  3587  00E6  084D               	movf	___flmul@temp+1,w
  3588  00E7  00BC               	movwf	??___flmul
  3589  00E8  01BD               	clrf	??___flmul+1
  3590  00E9  01BE               	clrf	??___flmul+2
  3591  00EA  01BF               	clrf	??___flmul+3
  3592  00EB  083C               	movf	??___flmul,w
  3593  00EC  07C8               	addwf	___flmul@prod,f
  3594  00ED  083D               	movf	??___flmul+1,w
  3595  00EE  1103               	clrz
  3596  00EF  1803               	skipnc
  3597  00F0  3E01               	addlw	1
  3598  00F1  1903               	skipnz
  3599  00F2  28F4               	goto	u3741
  3600  00F3  07C9               	addwf	___flmul@prod+1,f
  3601  00F4                     u3741:	
  3602  00F4  083E               	movf	??___flmul+2,w
  3603  00F5  1103               	clrz
  3604  00F6  1803               	skipnc
  3605  00F7  3E01               	addlw	1
  3606  00F8  1903               	skipnz
  3607  00F9  28FB               	goto	u3742
  3608  00FA  07CA               	addwf	___flmul@prod+2,f
  3609  00FB                     u3742:	
  3610  00FB  083F               	movf	??___flmul+3,w
  3611  00FC  1103               	clrz
  3612  00FD  1803               	skipnc
  3613  00FE  3E01               	addlw	1
  3614  00FF  1903               	skipnz
  3615  0100  2902               	goto	u3743
  3616  0101  07CB               	addwf	___flmul@prod+3,f
  3617  0102                     u3743:	
  3618  0102  0836               	movf	___flmul@b+2,w
  3619  0103  00BC               	movwf	??___flmul
  3620  0104  083C               	movf	??___flmul,w
  3621  0105  00F2               	movwf	__Umul8_16@multiplicand
  3622  0106  0838               	movf	___flmul@a,w
  3623  0107  120A  158A  21A2  120A  118A  	fcall	__Umul8_16
  3624  010C  0873               	movf	?__Umul8_16+1,w
  3625  010D  1283               	bcf	3,5	;RP0=0, select bank0
  3626  010E  1303               	bcf	3,6	;RP1=0, select bank0
  3627  010F  00CD               	movwf	___flmul@temp+1
  3628  0110  0872               	movf	?__Umul8_16,w
  3629  0111  00CC               	movwf	___flmul@temp
  3630  0112                     l2808:	
  3631  0112  084C               	movf	___flmul@temp,w
  3632  0113  00BC               	movwf	??___flmul
  3633  0114  01BD               	clrf	??___flmul+1
  3634  0115  01BE               	clrf	??___flmul+2
  3635  0116  01BF               	clrf	??___flmul+3
  3636  0117  083C               	movf	??___flmul,w
  3637  0118  07C3               	addwf	___flmul@grs,f
  3638  0119  083D               	movf	??___flmul+1,w
  3639  011A  1103               	clrz
  3640  011B  1803               	skipnc
  3641  011C  3E01               	addlw	1
  3642  011D  1903               	skipnz
  3643  011E  2920               	goto	u3751
  3644  011F  07C4               	addwf	___flmul@grs+1,f
  3645  0120                     u3751:	
  3646  0120  083E               	movf	??___flmul+2,w
  3647  0121  1103               	clrz
  3648  0122  1803               	skipnc
  3649  0123  3E01               	addlw	1
  3650  0124  1903               	skipnz
  3651  0125  2927               	goto	u3752
  3652  0126  07C5               	addwf	___flmul@grs+2,f
  3653  0127                     u3752:	
  3654  0127  083F               	movf	??___flmul+3,w
  3655  0128  1103               	clrz
  3656  0129  1803               	skipnc
  3657  012A  3E01               	addlw	1
  3658  012B  1903               	skipnz
  3659  012C  292E               	goto	u3753
  3660  012D  07C6               	addwf	___flmul@grs+3,f
  3661  012E                     u3753:	
  3662  012E                     l2810:	
  3663  012E  084D               	movf	___flmul@temp+1,w
  3664  012F  00BC               	movwf	??___flmul
  3665  0130  01BD               	clrf	??___flmul+1
  3666  0131  01BE               	clrf	??___flmul+2
  3667  0132  01BF               	clrf	??___flmul+3
  3668  0133  083C               	movf	??___flmul,w
  3669  0134  07C8               	addwf	___flmul@prod,f
  3670  0135  083D               	movf	??___flmul+1,w
  3671  0136  1103               	clrz
  3672  0137  1803               	skipnc
  3673  0138  3E01               	addlw	1
  3674  0139  1903               	skipnz
  3675  013A  293C               	goto	u3761
  3676  013B  07C9               	addwf	___flmul@prod+1,f
  3677  013C                     u3761:	
  3678  013C  083E               	movf	??___flmul+2,w
  3679  013D  1103               	clrz
  3680  013E  1803               	skipnc
  3681  013F  3E01               	addlw	1
  3682  0140  1903               	skipnz
  3683  0141  2943               	goto	u3762
  3684  0142  07CA               	addwf	___flmul@prod+2,f
  3685  0143                     u3762:	
  3686  0143  083F               	movf	??___flmul+3,w
  3687  0144  1103               	clrz
  3688  0145  1803               	skipnc
  3689  0146  3E01               	addlw	1
  3690  0147  1903               	skipnz
  3691  0148  294A               	goto	u3763
  3692  0149  07CB               	addwf	___flmul@prod+3,f
  3693  014A                     u3763:	
  3694  014A                     l2812:	
  3695  014A  3008               	movlw	8
  3696  014B  00BC               	movwf	??___flmul
  3697  014C                     u3775:	
  3698  014C  1003               	clrc
  3699  014D  0DC3               	rlf	___flmul@grs,f
  3700  014E  0DC4               	rlf	___flmul@grs+1,f
  3701  014F  0DC5               	rlf	___flmul@grs+2,f
  3702  0150  0DC6               	rlf	___flmul@grs+3,f
  3703  0151  0BBC               	decfsz	??___flmul,f
  3704  0152  294C               	goto	u3775
  3705  0153                     l2814:	
  3706  0153  0835               	movf	___flmul@b+1,w
  3707  0154  00BC               	movwf	??___flmul
  3708  0155  083C               	movf	??___flmul,w
  3709  0156  00F2               	movwf	__Umul8_16@multiplicand
  3710  0157  0838               	movf	___flmul@a,w
  3711  0158  120A  158A  21A2  120A  118A  	fcall	__Umul8_16
  3712  015D  0873               	movf	?__Umul8_16+1,w
  3713  015E  1283               	bcf	3,5	;RP0=0, select bank0
  3714  015F  1303               	bcf	3,6	;RP1=0, select bank0
  3715  0160  00CD               	movwf	___flmul@temp+1
  3716  0161  0872               	movf	?__Umul8_16,w
  3717  0162  00CC               	movwf	___flmul@temp
  3718  0163                     l2816:	
  3719  0163  084C               	movf	___flmul@temp,w
  3720  0164  00BC               	movwf	??___flmul
  3721  0165  084D               	movf	___flmul@temp+1,w
  3722  0166  00BD               	movwf	??___flmul+1
  3723  0167  01BE               	clrf	??___flmul+2
  3724  0168  01BF               	clrf	??___flmul+3
  3725  0169  083C               	movf	??___flmul,w
  3726  016A  07C3               	addwf	___flmul@grs,f
  3727  016B  083D               	movf	??___flmul+1,w
  3728  016C  1103               	clrz
  3729  016D  1803               	skipnc
  3730  016E  3E01               	addlw	1
  3731  016F  1903               	skipnz
  3732  0170  2972               	goto	u3781
  3733  0171  07C4               	addwf	___flmul@grs+1,f
  3734  0172                     u3781:	
  3735  0172  083E               	movf	??___flmul+2,w
  3736  0173  1103               	clrz
  3737  0174  1803               	skipnc
  3738  0175  3E01               	addlw	1
  3739  0176  1903               	skipnz
  3740  0177  2979               	goto	u3782
  3741  0178  07C5               	addwf	___flmul@grs+2,f
  3742  0179                     u3782:	
  3743  0179  083F               	movf	??___flmul+3,w
  3744  017A  1103               	clrz
  3745  017B  1803               	skipnc
  3746  017C  3E01               	addlw	1
  3747  017D  1903               	skipnz
  3748  017E  2980               	goto	u3783
  3749  017F  07C6               	addwf	___flmul@grs+3,f
  3750  0180                     u3783:	
  3751  0180                     l2818:	
  3752  0180  0834               	movf	___flmul@b,w
  3753  0181  00BC               	movwf	??___flmul
  3754  0182  083C               	movf	??___flmul,w
  3755  0183  00F2               	movwf	__Umul8_16@multiplicand
  3756  0184  0839               	movf	___flmul@a+1,w
  3757  0185  120A  158A  21A2  120A  118A  	fcall	__Umul8_16
  3758  018A  0873               	movf	?__Umul8_16+1,w
  3759  018B  1283               	bcf	3,5	;RP0=0, select bank0
  3760  018C  1303               	bcf	3,6	;RP1=0, select bank0
  3761  018D  00CD               	movwf	___flmul@temp+1
  3762  018E  0872               	movf	?__Umul8_16,w
  3763  018F  00CC               	movwf	___flmul@temp
  3764  0190                     l2820:	
  3765  0190  084C               	movf	___flmul@temp,w
  3766  0191  00BC               	movwf	??___flmul
  3767  0192  084D               	movf	___flmul@temp+1,w
  3768  0193  00BD               	movwf	??___flmul+1
  3769  0194  01BE               	clrf	??___flmul+2
  3770  0195  01BF               	clrf	??___flmul+3
  3771  0196  083C               	movf	??___flmul,w
  3772  0197  07C3               	addwf	___flmul@grs,f
  3773  0198  083D               	movf	??___flmul+1,w
  3774  0199  1103               	clrz
  3775  019A  1803               	skipnc
  3776  019B  3E01               	addlw	1
  3777  019C  1903               	skipnz
  3778  019D  299F               	goto	u3791
  3779  019E  07C4               	addwf	___flmul@grs+1,f
  3780  019F                     u3791:	
  3781  019F  083E               	movf	??___flmul+2,w
  3782  01A0  1103               	clrz
  3783  01A1  1803               	skipnc
  3784  01A2  3E01               	addlw	1
  3785  01A3  1903               	skipnz
  3786  01A4  29A6               	goto	u3792
  3787  01A5  07C5               	addwf	___flmul@grs+2,f
  3788  01A6                     u3792:	
  3789  01A6  083F               	movf	??___flmul+3,w
  3790  01A7  1103               	clrz
  3791  01A8  1803               	skipnc
  3792  01A9  3E01               	addlw	1
  3793  01AA  1903               	skipnz
  3794  01AB  29AD               	goto	u3793
  3795  01AC  07C6               	addwf	___flmul@grs+3,f
  3796  01AD                     u3793:	
  3797  01AD                     l2822:	
  3798  01AD  3008               	movlw	8
  3799  01AE  00BC               	movwf	??___flmul
  3800  01AF                     u3805:	
  3801  01AF  1003               	clrc
  3802  01B0  0DC3               	rlf	___flmul@grs,f
  3803  01B1  0DC4               	rlf	___flmul@grs+1,f
  3804  01B2  0DC5               	rlf	___flmul@grs+2,f
  3805  01B3  0DC6               	rlf	___flmul@grs+3,f
  3806  01B4  0BBC               	decfsz	??___flmul,f
  3807  01B5  29AF               	goto	u3805
  3808  01B6  0834               	movf	___flmul@b,w
  3809  01B7  00BC               	movwf	??___flmul
  3810  01B8  083C               	movf	??___flmul,w
  3811  01B9  00F2               	movwf	__Umul8_16@multiplicand
  3812  01BA  0838               	movf	___flmul@a,w
  3813  01BB  120A  158A  21A2  120A  118A  	fcall	__Umul8_16
  3814  01C0  0873               	movf	?__Umul8_16+1,w
  3815  01C1  1283               	bcf	3,5	;RP0=0, select bank0
  3816  01C2  1303               	bcf	3,6	;RP1=0, select bank0
  3817  01C3  00CD               	movwf	___flmul@temp+1
  3818  01C4  0872               	movf	?__Umul8_16,w
  3819  01C5  00CC               	movwf	___flmul@temp
  3820  01C6                     l2824:	
  3821  01C6  084C               	movf	___flmul@temp,w
  3822  01C7  00BC               	movwf	??___flmul
  3823  01C8  084D               	movf	___flmul@temp+1,w
  3824  01C9  00BD               	movwf	??___flmul+1
  3825  01CA  01BE               	clrf	??___flmul+2
  3826  01CB  01BF               	clrf	??___flmul+3
  3827  01CC  083C               	movf	??___flmul,w
  3828  01CD  07C3               	addwf	___flmul@grs,f
  3829  01CE  083D               	movf	??___flmul+1,w
  3830  01CF  1103               	clrz
  3831  01D0  1803               	skipnc
  3832  01D1  3E01               	addlw	1
  3833  01D2  1903               	skipnz
  3834  01D3  29D5               	goto	u3811
  3835  01D4  07C4               	addwf	___flmul@grs+1,f
  3836  01D5                     u3811:	
  3837  01D5  083E               	movf	??___flmul+2,w
  3838  01D6  1103               	clrz
  3839  01D7  1803               	skipnc
  3840  01D8  3E01               	addlw	1
  3841  01D9  1903               	skipnz
  3842  01DA  29DC               	goto	u3812
  3843  01DB  07C5               	addwf	___flmul@grs+2,f
  3844  01DC                     u3812:	
  3845  01DC  083F               	movf	??___flmul+3,w
  3846  01DD  1103               	clrz
  3847  01DE  1803               	skipnc
  3848  01DF  3E01               	addlw	1
  3849  01E0  1903               	skipnz
  3850  01E1  29E3               	goto	u3813
  3851  01E2  07C6               	addwf	___flmul@grs+3,f
  3852  01E3                     u3813:	
  3853  01E3                     l2826:	
  3854  01E3  0835               	movf	___flmul@b+1,w
  3855  01E4  00BC               	movwf	??___flmul
  3856  01E5  083C               	movf	??___flmul,w
  3857  01E6  00F2               	movwf	__Umul8_16@multiplicand
  3858  01E7  083A               	movf	___flmul@a+2,w
  3859  01E8  120A  158A  21A2  120A  118A  	fcall	__Umul8_16
  3860  01ED  0873               	movf	?__Umul8_16+1,w
  3861  01EE  1283               	bcf	3,5	;RP0=0, select bank0
  3862  01EF  1303               	bcf	3,6	;RP1=0, select bank0
  3863  01F0  00CD               	movwf	___flmul@temp+1
  3864  01F1  0872               	movf	?__Umul8_16,w
  3865  01F2  00CC               	movwf	___flmul@temp
  3866  01F3  084C               	movf	___flmul@temp,w
  3867  01F4  00BC               	movwf	??___flmul
  3868  01F5  084D               	movf	___flmul@temp+1,w
  3869  01F6  00BD               	movwf	??___flmul+1
  3870  01F7  01BE               	clrf	??___flmul+2
  3871  01F8  01BF               	clrf	??___flmul+3
  3872  01F9  083C               	movf	??___flmul,w
  3873  01FA  07C8               	addwf	___flmul@prod,f
  3874  01FB  083D               	movf	??___flmul+1,w
  3875  01FC  1103               	clrz
  3876  01FD  1803               	skipnc
  3877  01FE  3E01               	addlw	1
  3878  01FF  1903               	skipnz
  3879  0200  2A02               	goto	u3821
  3880  0201  07C9               	addwf	___flmul@prod+1,f
  3881  0202                     u3821:	
  3882  0202  083E               	movf	??___flmul+2,w
  3883  0203  1103               	clrz
  3884  0204  1803               	skipnc
  3885  0205  3E01               	addlw	1
  3886  0206  1903               	skipnz
  3887  0207  2A09               	goto	u3822
  3888  0208  07CA               	addwf	___flmul@prod+2,f
  3889  0209                     u3822:	
  3890  0209  083F               	movf	??___flmul+3,w
  3891  020A  1103               	clrz
  3892  020B  1803               	skipnc
  3893  020C  3E01               	addlw	1
  3894  020D  1903               	skipnz
  3895  020E  2A10               	goto	u3823
  3896  020F  07CB               	addwf	___flmul@prod+3,f
  3897  0210                     u3823:	
  3898  0210                     l2828:	
  3899  0210  0836               	movf	___flmul@b+2,w
  3900  0211  00BC               	movwf	??___flmul
  3901  0212  083C               	movf	??___flmul,w
  3902  0213  00F2               	movwf	__Umul8_16@multiplicand
  3903  0214  0839               	movf	___flmul@a+1,w
  3904  0215  120A  158A  21A2  120A  118A  	fcall	__Umul8_16
  3905  021A  0873               	movf	?__Umul8_16+1,w
  3906  021B  1283               	bcf	3,5	;RP0=0, select bank0
  3907  021C  1303               	bcf	3,6	;RP1=0, select bank0
  3908  021D  00CD               	movwf	___flmul@temp+1
  3909  021E  0872               	movf	?__Umul8_16,w
  3910  021F  00CC               	movwf	___flmul@temp
  3911  0220                     l2830:	
  3912  0220  084C               	movf	___flmul@temp,w
  3913  0221  00BC               	movwf	??___flmul
  3914  0222  084D               	movf	___flmul@temp+1,w
  3915  0223  00BD               	movwf	??___flmul+1
  3916  0224  01BE               	clrf	??___flmul+2
  3917  0225  01BF               	clrf	??___flmul+3
  3918  0226  083C               	movf	??___flmul,w
  3919  0227  07C8               	addwf	___flmul@prod,f
  3920  0228  083D               	movf	??___flmul+1,w
  3921  0229  1103               	clrz
  3922  022A  1803               	skipnc
  3923  022B  3E01               	addlw	1
  3924  022C  1903               	skipnz
  3925  022D  2A2F               	goto	u3831
  3926  022E  07C9               	addwf	___flmul@prod+1,f
  3927  022F                     u3831:	
  3928  022F  083E               	movf	??___flmul+2,w
  3929  0230  1103               	clrz
  3930  0231  1803               	skipnc
  3931  0232  3E01               	addlw	1
  3932  0233  1903               	skipnz
  3933  0234  2A36               	goto	u3832
  3934  0235  07CA               	addwf	___flmul@prod+2,f
  3935  0236                     u3832:	
  3936  0236  083F               	movf	??___flmul+3,w
  3937  0237  1103               	clrz
  3938  0238  1803               	skipnc
  3939  0239  3E01               	addlw	1
  3940  023A  1903               	skipnz
  3941  023B  2A3D               	goto	u3833
  3942  023C  07CB               	addwf	___flmul@prod+3,f
  3943  023D                     u3833:	
  3944  023D  0836               	movf	___flmul@b+2,w
  3945  023E  00BC               	movwf	??___flmul
  3946  023F  083C               	movf	??___flmul,w
  3947  0240  00F2               	movwf	__Umul8_16@multiplicand
  3948  0241  083A               	movf	___flmul@a+2,w
  3949  0242  120A  158A  21A2  120A  118A  	fcall	__Umul8_16
  3950  0247  0873               	movf	?__Umul8_16+1,w
  3951  0248  1283               	bcf	3,5	;RP0=0, select bank0
  3952  0249  1303               	bcf	3,6	;RP1=0, select bank0
  3953  024A  00CD               	movwf	___flmul@temp+1
  3954  024B  0872               	movf	?__Umul8_16,w
  3955  024C  00CC               	movwf	___flmul@temp
  3956  024D                     l2832:	
  3957  024D  084C               	movf	___flmul@temp,w
  3958  024E  00BC               	movwf	??___flmul
  3959  024F  084D               	movf	___flmul@temp+1,w
  3960  0250  00BD               	movwf	??___flmul+1
  3961  0251  01BE               	clrf	??___flmul+2
  3962  0252  01BF               	clrf	??___flmul+3
  3963  0253  3008               	movlw	8
  3964  0254                     u3845:	
  3965  0254  1003               	clrc
  3966  0255  0DBC               	rlf	??___flmul,f
  3967  0256  0DBD               	rlf	??___flmul+1,f
  3968  0257  0DBE               	rlf	??___flmul+2,f
  3969  0258  0DBF               	rlf	??___flmul+3,f
  3970  0259                     u3840:	
  3971  0259  3EFF               	addlw	-1
  3972  025A  1D03               	skipz
  3973  025B  2A54               	goto	u3845
  3974  025C  083C               	movf	??___flmul,w
  3975  025D  07C8               	addwf	___flmul@prod,f
  3976  025E  083D               	movf	??___flmul+1,w
  3977  025F  1103               	clrz
  3978  0260  1803               	skipnc
  3979  0261  3E01               	addlw	1
  3980  0262  1903               	skipnz
  3981  0263  2A65               	goto	u3851
  3982  0264  07C9               	addwf	___flmul@prod+1,f
  3983  0265                     u3851:	
  3984  0265  083E               	movf	??___flmul+2,w
  3985  0266  1103               	clrz
  3986  0267  1803               	skipnc
  3987  0268  3E01               	addlw	1
  3988  0269  1903               	skipnz
  3989  026A  2A6C               	goto	u3852
  3990  026B  07CA               	addwf	___flmul@prod+2,f
  3991  026C                     u3852:	
  3992  026C  083F               	movf	??___flmul+3,w
  3993  026D  1103               	clrz
  3994  026E  1803               	skipnc
  3995  026F  3E01               	addlw	1
  3996  0270  1903               	skipnz
  3997  0271  2A73               	goto	u3853
  3998  0272  07CB               	addwf	___flmul@prod+3,f
  3999  0273                     u3853:	
  4000  0273                     l2834:	
  4001  0273  0843               	movf	___flmul@grs,w
  4002  0274  00BC               	movwf	??___flmul
  4003  0275  0844               	movf	___flmul@grs+1,w
  4004  0276  00BD               	movwf	??___flmul+1
  4005  0277  0845               	movf	___flmul@grs+2,w
  4006  0278  00BE               	movwf	??___flmul+2
  4007  0279  0846               	movf	___flmul@grs+3,w
  4008  027A  00BF               	movwf	??___flmul+3
  4009  027B  3018               	movlw	24
  4010  027C                     u3865:	
  4011  027C  1003               	clrc
  4012  027D  0CBF               	rrf	??___flmul+3,f
  4013  027E  0CBE               	rrf	??___flmul+2,f
  4014  027F  0CBD               	rrf	??___flmul+1,f
  4015  0280  0CBC               	rrf	??___flmul,f
  4016  0281                     u3860:	
  4017  0281  3EFF               	addlw	-1
  4018  0282  1D03               	skipz
  4019  0283  2A7C               	goto	u3865
  4020  0284  083C               	movf	??___flmul,w
  4021  0285  07C8               	addwf	___flmul@prod,f
  4022  0286  083D               	movf	??___flmul+1,w
  4023  0287  1103               	clrz
  4024  0288  1803               	skipnc
  4025  0289  3E01               	addlw	1
  4026  028A  1903               	skipnz
  4027  028B  2A8D               	goto	u3871
  4028  028C  07C9               	addwf	___flmul@prod+1,f
  4029  028D                     u3871:	
  4030  028D  083E               	movf	??___flmul+2,w
  4031  028E  1103               	clrz
  4032  028F  1803               	skipnc
  4033  0290  3E01               	addlw	1
  4034  0291  1903               	skipnz
  4035  0292  2A94               	goto	u3872
  4036  0293  07CA               	addwf	___flmul@prod+2,f
  4037  0294                     u3872:	
  4038  0294  083F               	movf	??___flmul+3,w
  4039  0295  1103               	clrz
  4040  0296  1803               	skipnc
  4041  0297  3E01               	addlw	1
  4042  0298  1903               	skipnz
  4043  0299  2A9B               	goto	u3873
  4044  029A  07CB               	addwf	___flmul@prod+3,f
  4045  029B                     u3873:	
  4046  029B                     l2836:	
  4047  029B  3008               	movlw	8
  4048  029C  00BC               	movwf	??___flmul
  4049  029D                     u3885:	
  4050  029D  1003               	clrc
  4051  029E  0DC3               	rlf	___flmul@grs,f
  4052  029F  0DC4               	rlf	___flmul@grs+1,f
  4053  02A0  0DC5               	rlf	___flmul@grs+2,f
  4054  02A1  0DC6               	rlf	___flmul@grs+3,f
  4055  02A2  0BBC               	decfsz	??___flmul,f
  4056  02A3  2A9D               	goto	u3885
  4057  02A4                     l2838:	
  4058  02A4  0847               	movf	___flmul@bexp,w
  4059  02A5  0742               	addwf	___flmul@aexp,w
  4060  02A6  00BC               	movwf	??___flmul
  4061  02A7  01BD               	clrf	??___flmul+1
  4062  02A8  0DBD               	rlf	??___flmul+1,f
  4063  02A9  083C               	movf	??___flmul,w
  4064  02AA  3E82               	addlw	130
  4065  02AB  00CC               	movwf	___flmul@temp
  4066  02AC  083D               	movf	??___flmul+1,w
  4067  02AD  1803               	skipnc
  4068  02AE  3E01               	addlw	1
  4069  02AF  3EFF               	addlw	255
  4070  02B0  00CD               	movwf	___flmul@temp+1
  4071  02B1  2ACF               	goto	l2850
  4072  02B2                     l2840:	
  4073  02B2  3001               	movlw	1
  4074  02B3  00BC               	movwf	??___flmul
  4075  02B4                     u3895:	
  4076  02B4  1003               	clrc
  4077  02B5  0DC8               	rlf	___flmul@prod,f
  4078  02B6  0DC9               	rlf	___flmul@prod+1,f
  4079  02B7  0DCA               	rlf	___flmul@prod+2,f
  4080  02B8  0DCB               	rlf	___flmul@prod+3,f
  4081  02B9  0BBC               	decfsz	??___flmul,f
  4082  02BA  2AB4               	goto	u3895
  4083  02BB                     l2842:	
  4084  02BB  1FC6               	btfss	___flmul@grs+3,7
  4085  02BC  2ABE               	goto	u3901
  4086  02BD  2ABF               	goto	u3900
  4087  02BE                     u3901:	
  4088  02BE  2AC0               	goto	l2846
  4089  02BF                     u3900:	
  4090  02BF                     l2844:	
  4091  02BF  1448               	bsf	___flmul@prod,0
  4092  02C0                     l2846:	
  4093  02C0  3001               	movlw	1
  4094  02C1  00BC               	movwf	??___flmul
  4095  02C2                     u3915:	
  4096  02C2  1003               	clrc
  4097  02C3  0DC3               	rlf	___flmul@grs,f
  4098  02C4  0DC4               	rlf	___flmul@grs+1,f
  4099  02C5  0DC5               	rlf	___flmul@grs+2,f
  4100  02C6  0DC6               	rlf	___flmul@grs+3,f
  4101  02C7  0BBC               	decfsz	??___flmul,f
  4102  02C8  2AC2               	goto	u3915
  4103  02C9                     l2848:	
  4104  02C9  30FF               	movlw	255
  4105  02CA  07CC               	addwf	___flmul@temp,f
  4106  02CB  1803               	skipnc
  4107  02CC  0ACD               	incf	___flmul@temp+1,f
  4108  02CD  30FF               	movlw	255
  4109  02CE  07CD               	addwf	___flmul@temp+1,f
  4110  02CF                     l2850:	
  4111  02CF  1FCA               	btfss	___flmul@prod+2,7
  4112  02D0  2AD2               	goto	u3921
  4113  02D1  2AD3               	goto	u3920
  4114  02D2                     u3921:	
  4115  02D2  2AB2               	goto	l2840
  4116  02D3                     u3920:	
  4117  02D3                     l2852:	
  4118  02D3  01C2               	clrf	___flmul@aexp
  4119  02D4                     l2854:	
  4120  02D4  1FC6               	btfss	___flmul@grs+3,7
  4121  02D5  2AD7               	goto	u3931
  4122  02D6  2AD8               	goto	u3930
  4123  02D7                     u3931:	
  4124  02D7  2AF4               	goto	l2862
  4125  02D8                     u3930:	
  4126  02D8                     l2856:	
  4127  02D8  30FF               	movlw	255
  4128  02D9  0543               	andwf	___flmul@grs,w
  4129  02DA  00BC               	movwf	??___flmul
  4130  02DB  30FF               	movlw	255
  4131  02DC  0544               	andwf	___flmul@grs+1,w
  4132  02DD  00BD               	movwf	??___flmul+1
  4133  02DE  30FF               	movlw	255
  4134  02DF  0545               	andwf	___flmul@grs+2,w
  4135  02E0  00BE               	movwf	??___flmul+2
  4136  02E1  307F               	movlw	127
  4137  02E2  0546               	andwf	___flmul@grs+3,w
  4138  02E3  00BF               	movwf	??___flmul+3
  4139  02E4  083F               	movf	??___flmul+3,w
  4140  02E5  043E               	iorwf	??___flmul+2,w
  4141  02E6  043D               	iorwf	??___flmul+1,w
  4142  02E7  043C               	iorwf	??___flmul,w
  4143  02E8  1903               	skipnz
  4144  02E9  2AEB               	goto	u3941
  4145  02EA  2AEC               	goto	u3940
  4146  02EB                     u3941:	
  4147  02EB  2AEF               	goto	l651
  4148  02EC                     u3940:	
  4149  02EC                     l2858:	
  4150  02EC  01C2               	clrf	___flmul@aexp
  4151  02ED  0AC2               	incf	___flmul@aexp,f
  4152  02EE  2AF4               	goto	l2862
  4153  02EF                     l651:	
  4154  02EF  1C48               	btfss	___flmul@prod,0
  4155  02F0  2AF2               	goto	u3951
  4156  02F1  2AF3               	goto	u3950
  4157  02F2                     u3951:	
  4158  02F2  2AF4               	goto	l2862
  4159  02F3                     u3950:	
  4160  02F3  2AEC               	goto	l2858
  4161  02F4                     l2862:	
  4162  02F4  0842               	movf	___flmul@aexp,w
  4163  02F5  1903               	btfsc	3,2
  4164  02F6  2AF8               	goto	u3961
  4165  02F7  2AF9               	goto	u3960
  4166  02F8                     u3961:	
  4167  02F8  2B2A               	goto	l2872
  4168  02F9                     u3960:	
  4169  02F9                     l2864:	
  4170  02F9  3001               	movlw	1
  4171  02FA  07C8               	addwf	___flmul@prod,f
  4172  02FB  3000               	movlw	0
  4173  02FC  1803               	skipnc
  4174  02FD  3001               	movlw	1
  4175  02FE  07C9               	addwf	___flmul@prod+1,f
  4176  02FF  3000               	movlw	0
  4177  0300  1803               	skipnc
  4178  0301  3001               	movlw	1
  4179  0302  07CA               	addwf	___flmul@prod+2,f
  4180  0303  3000               	movlw	0
  4181  0304  1803               	skipnc
  4182  0305  3001               	movlw	1
  4183  0306  07CB               	addwf	___flmul@prod+3,f
  4184  0307                     l2866:	
  4185  0307  1C4B               	btfss	___flmul@prod+3,0
  4186  0308  2B0A               	goto	u3971
  4187  0309  2B0B               	goto	u3970
  4188  030A                     u3971:	
  4189  030A  2B2A               	goto	l2872
  4190  030B                     u3970:	
  4191  030B                     l2868:	
  4192  030B  0848               	movf	___flmul@prod,w
  4193  030C  00BC               	movwf	??___flmul
  4194  030D  0849               	movf	___flmul@prod+1,w
  4195  030E  00BD               	movwf	??___flmul+1
  4196  030F  084A               	movf	___flmul@prod+2,w
  4197  0310  00BE               	movwf	??___flmul+2
  4198  0311  084B               	movf	___flmul@prod+3,w
  4199  0312  00BF               	movwf	??___flmul+3
  4200  0313  3001               	movlw	1
  4201  0314  00C0               	movwf	??___flmul+4
  4202  0315                     u3985:	
  4203  0315  0D3F               	rlf	??___flmul+3,w
  4204  0316  0CBF               	rrf	??___flmul+3,f
  4205  0317  0CBE               	rrf	??___flmul+2,f
  4206  0318  0CBD               	rrf	??___flmul+1,f
  4207  0319  0CBC               	rrf	??___flmul,f
  4208  031A                     u3980:	
  4209  031A  0BC0               	decfsz	??___flmul+4,f
  4210  031B  2B15               	goto	u3985
  4211  031C  083F               	movf	??___flmul+3,w
  4212  031D  00CB               	movwf	___flmul@prod+3
  4213  031E  083E               	movf	??___flmul+2,w
  4214  031F  00CA               	movwf	___flmul@prod+2
  4215  0320  083D               	movf	??___flmul+1,w
  4216  0321  00C9               	movwf	___flmul@prod+1
  4217  0322  083C               	movf	??___flmul,w
  4218  0323  00C8               	movwf	___flmul@prod
  4219  0324                     l2870:	
  4220  0324  3001               	movlw	1
  4221  0325  07CC               	addwf	___flmul@temp,f
  4222  0326  1803               	skipnc
  4223  0327  0ACD               	incf	___flmul@temp+1,f
  4224  0328  3000               	movlw	0
  4225  0329  07CD               	addwf	___flmul@temp+1,f
  4226  032A                     l2872:	
  4227  032A  084D               	movf	___flmul@temp+1,w
  4228  032B  3A80               	xorlw	128
  4229  032C  00FF               	movwf	btemp+1
  4230  032D  3080               	movlw	128
  4231  032E  027F               	subwf	btemp+1,w
  4232  032F  1D03               	skipz
  4233  0330  2B33               	goto	u3995
  4234  0331  30FF               	movlw	255
  4235  0332  024C               	subwf	___flmul@temp,w
  4236  0333                     u3995:	
  4237  0333  1C03               	skipc
  4238  0334  2B36               	goto	u3991
  4239  0335  2B37               	goto	u3990
  4240  0336                     u3991:	
  4241  0336  2B42               	goto	l2876
  4242  0337                     u3990:	
  4243  0337                     l2874:	
  4244  0337  307F               	movlw	127
  4245  0338  1283               	bcf	3,5	;RP0=0, select bank0
  4246  0339  1303               	bcf	3,6	;RP1=0, select bank0
  4247  033A  00CB               	movwf	___flmul@prod+3
  4248  033B  3080               	movlw	128
  4249  033C  00CA               	movwf	___flmul@prod+2
  4250  033D  3000               	movlw	0
  4251  033E  00C9               	movwf	___flmul@prod+1
  4252  033F  3000               	movlw	0
  4253  0340  00C8               	movwf	___flmul@prod
  4254  0341  2B77               	goto	l657
  4255  0342                     l2876:	
  4256  0342  1283               	bcf	3,5	;RP0=0, select bank0
  4257  0343  1303               	bcf	3,6	;RP1=0, select bank0
  4258  0344  084D               	movf	___flmul@temp+1,w
  4259  0345  3A80               	xorlw	128
  4260  0346  00FF               	movwf	btemp+1
  4261  0347  3080               	movlw	128
  4262  0348  027F               	subwf	btemp+1,w
  4263  0349  1D03               	skipz
  4264  034A  2B4D               	goto	u4005
  4265  034B  3001               	movlw	1
  4266  034C  024C               	subwf	___flmul@temp,w
  4267  034D                     u4005:	
  4268  034D  1803               	skipnc
  4269  034E  2B50               	goto	u4001
  4270  034F  2B51               	goto	u4000
  4271  0350                     u4001:	
  4272  0350  2B5D               	goto	l2882
  4273  0351                     u4000:	
  4274  0351                     l2878:	
  4275  0351  3000               	movlw	0
  4276  0352  1283               	bcf	3,5	;RP0=0, select bank0
  4277  0353  1303               	bcf	3,6	;RP1=0, select bank0
  4278  0354  00CB               	movwf	___flmul@prod+3
  4279  0355  3000               	movlw	0
  4280  0356  00CA               	movwf	___flmul@prod+2
  4281  0357  3000               	movlw	0
  4282  0358  00C9               	movwf	___flmul@prod+1
  4283  0359  3000               	movlw	0
  4284  035A  00C8               	movwf	___flmul@prod
  4285  035B                     l2880:	
  4286  035B  01C1               	clrf	___flmul@sign
  4287  035C  2B77               	goto	l657
  4288  035D                     l2882:	
  4289  035D  1283               	bcf	3,5	;RP0=0, select bank0
  4290  035E  1303               	bcf	3,6	;RP1=0, select bank0
  4291  035F  084C               	movf	___flmul@temp,w
  4292  0360  00BC               	movwf	??___flmul
  4293  0361  083C               	movf	??___flmul,w
  4294  0362  00C7               	movwf	___flmul@bexp
  4295  0363  30FF               	movlw	255
  4296  0364  05C8               	andwf	___flmul@prod,f
  4297  0365  30FF               	movlw	255
  4298  0366  05C9               	andwf	___flmul@prod+1,f
  4299  0367  307F               	movlw	127
  4300  0368  05CA               	andwf	___flmul@prod+2,f
  4301  0369  3000               	movlw	0
  4302  036A  05CB               	andwf	___flmul@prod+3,f
  4303  036B                     l2884:	
  4304  036B  1C47               	btfss	___flmul@bexp,0
  4305  036C  2B6E               	goto	u4011
  4306  036D  2B6F               	goto	u4010
  4307  036E                     u4011:	
  4308  036E  2B70               	goto	l2888
  4309  036F                     u4010:	
  4310  036F                     l2886:	
  4311  036F  17CA               	bsf	___flmul@prod+2,7
  4312  0370                     l2888:	
  4313  0370  0847               	movf	___flmul@bexp,w
  4314  0371  00BC               	movwf	??___flmul
  4315  0372  1003               	clrc
  4316  0373  0C3C               	rrf	??___flmul,w
  4317  0374  00BD               	movwf	??___flmul+1
  4318  0375  083D               	movf	??___flmul+1,w
  4319  0376  00CB               	movwf	___flmul@prod+3
  4320  0377                     l657:	
  4321  0377  0841               	movf	___flmul@sign,w
  4322  0378  00BC               	movwf	??___flmul
  4323  0379  083C               	movf	??___flmul,w
  4324  037A  04CB               	iorwf	___flmul@prod+3,f
  4325  037B                     l2890:	
  4326  037B  084B               	movf	___flmul@prod+3,w
  4327  037C  00B7               	movwf	?___flmul+3
  4328  037D  084A               	movf	___flmul@prod+2,w
  4329  037E  00B6               	movwf	?___flmul+2
  4330  037F  0849               	movf	___flmul@prod+1,w
  4331  0380  00B5               	movwf	?___flmul+1
  4332  0381  0848               	movf	___flmul@prod,w
  4333  0382  00B4               	movwf	?___flmul
  4334  0383                     l645:	
  4335  0383  0008               	return
  4336  0384                     __end_of___flmul:	
  4337                           
  4338                           	psect	text7
  4339  09A2                     __ptext7:	
  4340 ;; *************** function __Umul8_16 *****************
  4341 ;; Defined at:
  4342 ;;		line 4 in file "C:\Program Files (x86)\Microchip\xc8\v2.10\pic\sources\c90\common\Umul8_16.c"
  4343 ;; Parameters:    Size  Location     Type
  4344 ;;  multiplier      1    wreg     unsigned char 
  4345 ;;  multiplicand    1    2[COMMON] unsigned char 
  4346 ;; Auto vars:     Size  Location     Type
  4347 ;;  multiplier      1    4[BANK0 ] unsigned char 
  4348 ;;  word_mpld       2    2[BANK0 ] unsigned int 
  4349 ;;  product         2    0[BANK0 ] unsigned int 
  4350 ;; Return value:  Size  Location     Type
  4351 ;;                  2    2[COMMON] unsigned int 
  4352 ;; Registers used:
  4353 ;;		wreg, status,2, status,0
  4354 ;; Tracked objects:
  4355 ;;		On entry : 0/0
  4356 ;;		On exit  : 0/0
  4357 ;;		Unchanged: 0/0
  4358 ;; Data sizes:     COMMON   BANK0   BANK1   BANK3   BANK2
  4359 ;;      Params:         2       0       0       0       0
  4360 ;;      Locals:         0       5       0       0       0
  4361 ;;      Temps:          2       0       0       0       0
  4362 ;;      Totals:         4       5       0       0       0
  4363 ;;Total ram usage:        9 bytes
  4364 ;; Hardware stack levels used:    1
  4365 ;; Hardware stack levels required when called:    1
  4366 ;; This function calls:
  4367 ;;		Nothing
  4368 ;; This function is called by:
  4369 ;;		___flmul
  4370 ;; This function uses a non-reentrant model
  4371 ;;
  4372                           
  4373                           
  4374                           ;psect for function __Umul8_16
  4375  09A2                     __Umul8_16:	
  4376                           
  4377                           ;incstack = 0
  4378                           ; Regs used in __Umul8_16: [wreg+status,2+status,0]
  4379                           ;__Umul8_16@multiplier stored from wreg
  4380  09A2  1283               	bcf	3,5	;RP0=0, select bank0
  4381  09A3  1303               	bcf	3,6	;RP1=0, select bank0
  4382  09A4  00A4               	movwf	__Umul8_16@multiplier
  4383  09A5                     l2702:	
  4384  09A5  01A0               	clrf	__Umul8_16@product
  4385  09A6  01A1               	clrf	__Umul8_16@product+1
  4386  09A7                     l2704:	
  4387  09A7  0872               	movf	__Umul8_16@multiplicand,w
  4388  09A8  00F4               	movwf	??__Umul8_16
  4389  09A9  01F5               	clrf	??__Umul8_16+1
  4390  09AA  0874               	movf	??__Umul8_16,w
  4391  09AB  00A2               	movwf	__Umul8_16@word_mpld
  4392  09AC  0875               	movf	??__Umul8_16+1,w
  4393  09AD  00A3               	movwf	__Umul8_16@word_mpld+1
  4394  09AE                     l2706:	
  4395  09AE  1C24               	btfss	__Umul8_16@multiplier,0
  4396  09AF  29B1               	goto	u3521
  4397  09B0  29B2               	goto	u3520
  4398  09B1                     u3521:	
  4399  09B1  29B8               	goto	l702
  4400  09B2                     u3520:	
  4401  09B2                     l2708:	
  4402  09B2  0822               	movf	__Umul8_16@word_mpld,w
  4403  09B3  07A0               	addwf	__Umul8_16@product,f
  4404  09B4  1803               	skipnc
  4405  09B5  0AA1               	incf	__Umul8_16@product+1,f
  4406  09B6  0823               	movf	__Umul8_16@word_mpld+1,w
  4407  09B7  07A1               	addwf	__Umul8_16@product+1,f
  4408  09B8                     l702:	
  4409  09B8  3001               	movlw	1
  4410  09B9                     u3535:	
  4411  09B9  1003               	clrc
  4412  09BA  0DA2               	rlf	__Umul8_16@word_mpld,f
  4413  09BB  0DA3               	rlf	__Umul8_16@word_mpld+1,f
  4414  09BC  3EFF               	addlw	-1
  4415  09BD  1D03               	skipz
  4416  09BE  29B9               	goto	u3535
  4417  09BF  1003               	clrc
  4418  09C0  0CA4               	rrf	__Umul8_16@multiplier,f
  4419  09C1                     l2710:	
  4420  09C1  0824               	movf	__Umul8_16@multiplier,w
  4421  09C2  1D03               	btfss	3,2
  4422  09C3  29C5               	goto	u3541
  4423  09C4  29C6               	goto	u3540
  4424  09C5                     u3541:	
  4425  09C5  29AE               	goto	l2706
  4426  09C6                     u3540:	
  4427  09C6                     l2712:	
  4428  09C6  0821               	movf	__Umul8_16@product+1,w
  4429  09C7  00F3               	movwf	?__Umul8_16+1
  4430  09C8  0820               	movf	__Umul8_16@product,w
  4431  09C9  00F2               	movwf	?__Umul8_16
  4432  09CA                     l704:	
  4433  09CA  0008               	return
  4434  09CB                     __end_of__Umul8_16:	
  4435                           
  4436                           	psect	text8
  4437  0B9B                     __ptext8:	
  4438 ;; *************** function ___fldiv *****************
  4439 ;; Defined at:
  4440 ;;		line 8 in file "C:\Program Files (x86)\Microchip\xc8\v2.10\pic\sources\c90\common\sprcdiv.c"
  4441 ;; Parameters:    Size  Location     Type
  4442 ;;  a               4   46[BANK0 ] unsigned int 
  4443 ;;  b               4   50[BANK0 ] unsigned int 
  4444 ;; Auto vars:     Size  Location     Type
  4445 ;;  grs             4   66[BANK0 ] unsigned long 
  4446 ;;  rem             4   59[BANK0 ] unsigned long 
  4447 ;;  new_exp         2   64[BANK0 ] int 
  4448 ;;  aexp            1   71[BANK0 ] unsigned char 
  4449 ;;  bexp            1   70[BANK0 ] unsigned char 
  4450 ;;  sign            1   63[BANK0 ] unsigned char 
  4451 ;; Return value:  Size  Location     Type
  4452 ;;                  4   46[BANK0 ] unsigned char 
  4453 ;; Registers used:
  4454 ;;		wreg, status,2, status,0, btemp+1
  4455 ;; Tracked objects:
  4456 ;;		On entry : 0/0
  4457 ;;		On exit  : 0/0
  4458 ;;		Unchanged: 0/0
  4459 ;; Data sizes:     COMMON   BANK0   BANK1   BANK3   BANK2
  4460 ;;      Params:         0       8       0       0       0
  4461 ;;      Locals:         0      13       0       0       0
  4462 ;;      Temps:          0       5       0       0       0
  4463 ;;      Totals:         0      26       0       0       0
  4464 ;;Total ram usage:       26 bytes
  4465 ;; Hardware stack levels used:    1
  4466 ;; Hardware stack levels required when called:    1
  4467 ;; This function calls:
  4468 ;;		Nothing
  4469 ;; This function is called by:
  4470 ;;		_main
  4471 ;; This function uses a non-reentrant model
  4472 ;;
  4473                           
  4474                           
  4475                           ;psect for function ___fldiv
  4476  0B9B                     ___fldiv:	
  4477  0B9B                     l2186:	
  4478                           ;incstack = 0
  4479                           ; Regs used in ___fldiv: [wreg+status,2+status,0+btemp+1]
  4480                           
  4481  0B9B  1283               	bcf	3,5	;RP0=0, select bank0
  4482  0B9C  1303               	bcf	3,6	;RP1=0, select bank0
  4483  0B9D  0855               	movf	___fldiv@b+3,w
  4484  0B9E  3980               	andlw	128
  4485  0B9F  00D6               	movwf	??___fldiv
  4486  0BA0  0856               	movf	??___fldiv,w
  4487  0BA1  00DF               	movwf	___fldiv@sign
  4488  0BA2                     l2188:	
  4489  0BA2  0855               	movf	___fldiv@b+3,w
  4490  0BA3  00D6               	movwf	??___fldiv
  4491  0BA4  0756               	addwf	??___fldiv,w
  4492  0BA5  00D7               	movwf	??___fldiv+1
  4493  0BA6  0857               	movf	??___fldiv+1,w
  4494  0BA7  00E6               	movwf	___fldiv@bexp
  4495  0BA8                     l2190:	
  4496  0BA8  1FD4               	btfss	___fldiv@b+2,7
  4497  0BA9  2BAB               	goto	u2531
  4498  0BAA  2BAC               	goto	u2530
  4499  0BAB                     u2531:	
  4500  0BAB  2BAD               	goto	l2194
  4501  0BAC                     u2530:	
  4502  0BAC                     l2192:	
  4503  0BAC  1466               	bsf	___fldiv@bexp,0
  4504  0BAD                     l2194:	
  4505  0BAD  0866               	movf	___fldiv@bexp,w
  4506  0BAE  1903               	btfsc	3,2
  4507  0BAF  2BB1               	goto	u2541
  4508  0BB0  2BB2               	goto	u2540
  4509  0BB1                     u2541:	
  4510  0BB1  2BC2               	goto	l2204
  4511  0BB2                     u2540:	
  4512  0BB2                     l2196:	
  4513  0BB2  0A66               	incf	___fldiv@bexp,w
  4514  0BB3  1D03               	btfss	3,2
  4515  0BB4  2BB6               	goto	u2551
  4516  0BB5  2BB7               	goto	u2550
  4517  0BB6                     u2551:	
  4518  0BB6  2BBF               	goto	l2200
  4519  0BB7                     u2550:	
  4520  0BB7                     l2198:	
  4521  0BB7  3000               	movlw	0
  4522  0BB8  00D5               	movwf	___fldiv@b+3
  4523  0BB9  3000               	movlw	0
  4524  0BBA  00D4               	movwf	___fldiv@b+2
  4525  0BBB  3000               	movlw	0
  4526  0BBC  00D3               	movwf	___fldiv@b+1
  4527  0BBD  3000               	movlw	0
  4528  0BBE  00D2               	movwf	___fldiv@b
  4529  0BBF                     l2200:	
  4530  0BBF  17D4               	bsf	___fldiv@b+2,7
  4531  0BC0                     l2202:	
  4532  0BC0  01D5               	clrf	___fldiv@b+3
  4533  0BC1  2BCA               	goto	l2206
  4534  0BC2                     l2204:	
  4535  0BC2  3000               	movlw	0
  4536  0BC3  00D5               	movwf	___fldiv@b+3
  4537  0BC4  3000               	movlw	0
  4538  0BC5  00D4               	movwf	___fldiv@b+2
  4539  0BC6  3000               	movlw	0
  4540  0BC7  00D3               	movwf	___fldiv@b+1
  4541  0BC8  3000               	movlw	0
  4542  0BC9  00D2               	movwf	___fldiv@b
  4543  0BCA                     l2206:	
  4544  0BCA  0851               	movf	___fldiv@a+3,w
  4545  0BCB  3980               	andlw	128
  4546  0BCC  00D6               	movwf	??___fldiv
  4547  0BCD  0856               	movf	??___fldiv,w
  4548  0BCE  06DF               	xorwf	___fldiv@sign,f
  4549  0BCF                     l2208:	
  4550  0BCF  0851               	movf	___fldiv@a+3,w
  4551  0BD0  00D6               	movwf	??___fldiv
  4552  0BD1  0756               	addwf	??___fldiv,w
  4553  0BD2  00D7               	movwf	??___fldiv+1
  4554  0BD3  0857               	movf	??___fldiv+1,w
  4555  0BD4  00E7               	movwf	___fldiv@aexp
  4556  0BD5                     l2210:	
  4557  0BD5  1FD0               	btfss	___fldiv@a+2,7
  4558  0BD6  2BD8               	goto	u2561
  4559  0BD7  2BD9               	goto	u2560
  4560  0BD8                     u2561:	
  4561  0BD8  2BDA               	goto	l2214
  4562  0BD9                     u2560:	
  4563  0BD9                     l2212:	
  4564  0BD9  1467               	bsf	___fldiv@aexp,0
  4565  0BDA                     l2214:	
  4566  0BDA  0867               	movf	___fldiv@aexp,w
  4567  0BDB  1903               	btfsc	3,2
  4568  0BDC  2BDE               	goto	u2571
  4569  0BDD  2BDF               	goto	u2570
  4570  0BDE                     u2571:	
  4571  0BDE  2BEF               	goto	l2224
  4572  0BDF                     u2570:	
  4573  0BDF                     l2216:	
  4574  0BDF  0A67               	incf	___fldiv@aexp,w
  4575  0BE0  1D03               	btfss	3,2
  4576  0BE1  2BE3               	goto	u2581
  4577  0BE2  2BE4               	goto	u2580
  4578  0BE3                     u2581:	
  4579  0BE3  2BEC               	goto	l2220
  4580  0BE4                     u2580:	
  4581  0BE4                     l2218:	
  4582  0BE4  3000               	movlw	0
  4583  0BE5  00D1               	movwf	___fldiv@a+3
  4584  0BE6  3000               	movlw	0
  4585  0BE7  00D0               	movwf	___fldiv@a+2
  4586  0BE8  3000               	movlw	0
  4587  0BE9  00CF               	movwf	___fldiv@a+1
  4588  0BEA  3000               	movlw	0
  4589  0BEB  00CE               	movwf	___fldiv@a
  4590  0BEC                     l2220:	
  4591  0BEC  17D0               	bsf	___fldiv@a+2,7
  4592  0BED                     l2222:	
  4593  0BED  01D1               	clrf	___fldiv@a+3
  4594  0BEE  2BF7               	goto	l605
  4595  0BEF                     l2224:	
  4596  0BEF  3000               	movlw	0
  4597  0BF0  00D1               	movwf	___fldiv@a+3
  4598  0BF1  3000               	movlw	0
  4599  0BF2  00D0               	movwf	___fldiv@a+2
  4600  0BF3  3000               	movlw	0
  4601  0BF4  00CF               	movwf	___fldiv@a+1
  4602  0BF5  3000               	movlw	0
  4603  0BF6  00CE               	movwf	___fldiv@a
  4604  0BF7                     l605:	
  4605  0BF7  0851               	movf	___fldiv@a+3,w
  4606  0BF8  0450               	iorwf	___fldiv@a+2,w
  4607  0BF9  044F               	iorwf	___fldiv@a+1,w
  4608  0BFA  044E               	iorwf	___fldiv@a,w
  4609  0BFB  1D03               	skipz
  4610  0BFC  2BFE               	goto	u2591
  4611  0BFD  2BFF               	goto	u2590
  4612  0BFE                     u2591:	
  4613  0BFE  2C18               	goto	l2234
  4614  0BFF                     u2590:	
  4615  0BFF                     l2226:	
  4616  0BFF  3000               	movlw	0
  4617  0C00  00D5               	movwf	___fldiv@b+3
  4618  0C01  3000               	movlw	0
  4619  0C02  00D4               	movwf	___fldiv@b+2
  4620  0C03  3000               	movlw	0
  4621  0C04  00D3               	movwf	___fldiv@b+1
  4622  0C05  3000               	movlw	0
  4623  0C06  00D2               	movwf	___fldiv@b
  4624  0C07  3080               	movlw	128
  4625  0C08  04D4               	iorwf	___fldiv@b+2,f
  4626  0C09  307F               	movlw	127
  4627  0C0A  04D5               	iorwf	___fldiv@b+3,f
  4628  0C0B                     l2228:	
  4629  0C0B  085F               	movf	___fldiv@sign,w
  4630  0C0C  00D6               	movwf	??___fldiv
  4631  0C0D  0856               	movf	??___fldiv,w
  4632  0C0E  04D5               	iorwf	___fldiv@b+3,f
  4633  0C0F                     l2230:	
  4634  0C0F  0855               	movf	___fldiv@b+3,w
  4635  0C10  00D1               	movwf	?___fldiv+3
  4636  0C11  0854               	movf	___fldiv@b+2,w
  4637  0C12  00D0               	movwf	?___fldiv+2
  4638  0C13  0853               	movf	___fldiv@b+1,w
  4639  0C14  00CF               	movwf	?___fldiv+1
  4640  0C15  0852               	movf	___fldiv@b,w
  4641  0C16  00CE               	movwf	?___fldiv
  4642  0C17  2D77               	goto	l607
  4643  0C18                     l2234:	
  4644  0C18  0866               	movf	___fldiv@bexp,w
  4645  0C19  1D03               	btfss	3,2
  4646  0C1A  2C1C               	goto	u2601
  4647  0C1B  2C1D               	goto	u2600
  4648  0C1C                     u2601:	
  4649  0C1C  2C26               	goto	l2240
  4650  0C1D                     u2600:	
  4651  0C1D                     l2236:	
  4652  0C1D  3000               	movlw	0
  4653  0C1E  00D1               	movwf	?___fldiv+3
  4654  0C1F  3000               	movlw	0
  4655  0C20  00D0               	movwf	?___fldiv+2
  4656  0C21  3000               	movlw	0
  4657  0C22  00CF               	movwf	?___fldiv+1
  4658  0C23  3000               	movlw	0
  4659  0C24  00CE               	movwf	?___fldiv
  4660  0C25  2D77               	goto	l607
  4661  0C26                     l2240:	
  4662  0C26  0866               	movf	___fldiv@bexp,w
  4663  0C27  00D6               	movwf	??___fldiv
  4664  0C28  01D7               	clrf	??___fldiv+1
  4665  0C29  0857               	movf	??___fldiv+1,w
  4666  0C2A  00D9               	movwf	??___fldiv+3
  4667  0C2B  0867               	movf	___fldiv@aexp,w
  4668  0C2C  0256               	subwf	??___fldiv,w
  4669  0C2D  00D8               	movwf	??___fldiv+2
  4670  0C2E  1C03               	skipc
  4671  0C2F  03D9               	decf	??___fldiv+3,f
  4672  0C30  0858               	movf	??___fldiv+2,w
  4673  0C31  3E7F               	addlw	127
  4674  0C32  00E0               	movwf	___fldiv@new_exp
  4675  0C33  0859               	movf	??___fldiv+3,w
  4676  0C34  1803               	skipnc
  4677  0C35  3E01               	addlw	1
  4678  0C36  3E00               	addlw	0
  4679  0C37  00E1               	movwf	___fldiv@new_exp+1
  4680  0C38                     l2242:	
  4681  0C38  0855               	movf	___fldiv@b+3,w
  4682  0C39  00DE               	movwf	___fldiv@rem+3
  4683  0C3A  0854               	movf	___fldiv@b+2,w
  4684  0C3B  00DD               	movwf	___fldiv@rem+2
  4685  0C3C  0853               	movf	___fldiv@b+1,w
  4686  0C3D  00DC               	movwf	___fldiv@rem+1
  4687  0C3E  0852               	movf	___fldiv@b,w
  4688  0C3F  00DB               	movwf	___fldiv@rem
  4689  0C40                     l2244:	
  4690  0C40  3000               	movlw	0
  4691  0C41  00D5               	movwf	___fldiv@b+3
  4692  0C42  3000               	movlw	0
  4693  0C43  00D4               	movwf	___fldiv@b+2
  4694  0C44  3000               	movlw	0
  4695  0C45  00D3               	movwf	___fldiv@b+1
  4696  0C46  3000               	movlw	0
  4697  0C47  00D2               	movwf	___fldiv@b
  4698  0C48                     l2246:	
  4699  0C48  3000               	movlw	0
  4700  0C49  00E5               	movwf	___fldiv@grs+3
  4701  0C4A  3000               	movlw	0
  4702  0C4B  00E4               	movwf	___fldiv@grs+2
  4703  0C4C  3000               	movlw	0
  4704  0C4D  00E3               	movwf	___fldiv@grs+1
  4705  0C4E  3000               	movlw	0
  4706  0C4F  00E2               	movwf	___fldiv@grs
  4707  0C50                     l2248:	
  4708  0C50  01E7               	clrf	___fldiv@aexp
  4709  0C51  2C9C               	goto	l2268
  4710  0C52                     l2250:	
  4711  0C52  0867               	movf	___fldiv@aexp,w
  4712  0C53  1903               	btfsc	3,2
  4713  0C54  2C56               	goto	u2611
  4714  0C55  2C57               	goto	u2610
  4715  0C56                     u2611:	
  4716  0C56  2C77               	goto	l2260
  4717  0C57                     u2610:	
  4718  0C57                     l2252:	
  4719  0C57  3001               	movlw	1
  4720  0C58  00D6               	movwf	??___fldiv
  4721  0C59                     u2625:	
  4722  0C59  1003               	clrc
  4723  0C5A  0DDB               	rlf	___fldiv@rem,f
  4724  0C5B  0DDC               	rlf	___fldiv@rem+1,f
  4725  0C5C  0DDD               	rlf	___fldiv@rem+2,f
  4726  0C5D  0DDE               	rlf	___fldiv@rem+3,f
  4727  0C5E  0BD6               	decfsz	??___fldiv,f
  4728  0C5F  2C59               	goto	u2625
  4729  0C60  3001               	movlw	1
  4730  0C61  00D6               	movwf	??___fldiv
  4731  0C62                     u2635:	
  4732  0C62  1003               	clrc
  4733  0C63  0DD2               	rlf	___fldiv@b,f
  4734  0C64  0DD3               	rlf	___fldiv@b+1,f
  4735  0C65  0DD4               	rlf	___fldiv@b+2,f
  4736  0C66  0DD5               	rlf	___fldiv@b+3,f
  4737  0C67  0BD6               	decfsz	??___fldiv,f
  4738  0C68  2C62               	goto	u2635
  4739  0C69                     l2254:	
  4740  0C69  1FE5               	btfss	___fldiv@grs+3,7
  4741  0C6A  2C6C               	goto	u2641
  4742  0C6B  2C6D               	goto	u2640
  4743  0C6C                     u2641:	
  4744  0C6C  2C6E               	goto	l2258
  4745  0C6D                     u2640:	
  4746  0C6D                     l2256:	
  4747  0C6D  1452               	bsf	___fldiv@b,0
  4748  0C6E                     l2258:	
  4749  0C6E  3001               	movlw	1
  4750  0C6F  00D6               	movwf	??___fldiv
  4751  0C70                     u2655:	
  4752  0C70  1003               	clrc
  4753  0C71  0DE2               	rlf	___fldiv@grs,f
  4754  0C72  0DE3               	rlf	___fldiv@grs+1,f
  4755  0C73  0DE4               	rlf	___fldiv@grs+2,f
  4756  0C74  0DE5               	rlf	___fldiv@grs+3,f
  4757  0C75  0BD6               	decfsz	??___fldiv,f
  4758  0C76  2C70               	goto	u2655
  4759  0C77                     l2260:	
  4760  0C77  0851               	movf	___fldiv@a+3,w
  4761  0C78  025E               	subwf	___fldiv@rem+3,w
  4762  0C79  1D03               	skipz
  4763  0C7A  2C85               	goto	u2665
  4764  0C7B  0850               	movf	___fldiv@a+2,w
  4765  0C7C  025D               	subwf	___fldiv@rem+2,w
  4766  0C7D  1D03               	skipz
  4767  0C7E  2C85               	goto	u2665
  4768  0C7F  084F               	movf	___fldiv@a+1,w
  4769  0C80  025C               	subwf	___fldiv@rem+1,w
  4770  0C81  1D03               	skipz
  4771  0C82  2C85               	goto	u2665
  4772  0C83  084E               	movf	___fldiv@a,w
  4773  0C84  025B               	subwf	___fldiv@rem,w
  4774  0C85                     u2665:	
  4775  0C85  1C03               	skipc
  4776  0C86  2C88               	goto	u2661
  4777  0C87  2C89               	goto	u2660
  4778  0C88                     u2661:	
  4779  0C88  2C98               	goto	l2266
  4780  0C89                     u2660:	
  4781  0C89                     l2262:	
  4782  0C89  1765               	bsf	___fldiv@grs+3,6
  4783  0C8A                     l2264:	
  4784  0C8A  084E               	movf	___fldiv@a,w
  4785  0C8B  02DB               	subwf	___fldiv@rem,f
  4786  0C8C  084F               	movf	___fldiv@a+1,w
  4787  0C8D  1C03               	skipc
  4788  0C8E  0F4F               	incfsz	___fldiv@a+1,w
  4789  0C8F  02DC               	subwf	___fldiv@rem+1,f
  4790  0C90  0850               	movf	___fldiv@a+2,w
  4791  0C91  1C03               	skipc
  4792  0C92  0F50               	incfsz	___fldiv@a+2,w
  4793  0C93  02DD               	subwf	___fldiv@rem+2,f
  4794  0C94  0851               	movf	___fldiv@a+3,w
  4795  0C95  1C03               	skipc
  4796  0C96  0F51               	incfsz	___fldiv@a+3,w
  4797  0C97  02DE               	subwf	___fldiv@rem+3,f
  4798  0C98                     l2266:	
  4799  0C98  3001               	movlw	1
  4800  0C99  00D6               	movwf	??___fldiv
  4801  0C9A  0856               	movf	??___fldiv,w
  4802  0C9B  07E7               	addwf	___fldiv@aexp,f
  4803  0C9C                     l2268:	
  4804  0C9C  301A               	movlw	26
  4805  0C9D  0267               	subwf	___fldiv@aexp,w
  4806  0C9E  1C03               	skipc
  4807  0C9F  2CA1               	goto	u2671
  4808  0CA0  2CA2               	goto	u2670
  4809  0CA1                     u2671:	
  4810  0CA1  2C52               	goto	l2250
  4811  0CA2                     u2670:	
  4812  0CA2                     l2270:	
  4813  0CA2  085E               	movf	___fldiv@rem+3,w
  4814  0CA3  045D               	iorwf	___fldiv@rem+2,w
  4815  0CA4  045C               	iorwf	___fldiv@rem+1,w
  4816  0CA5  045B               	iorwf	___fldiv@rem,w
  4817  0CA6  1903               	skipnz
  4818  0CA7  2CA9               	goto	u2681
  4819  0CA8  2CAA               	goto	u2680
  4820  0CA9                     u2681:	
  4821  0CA9  2CC9               	goto	l2284
  4822  0CAA                     u2680:	
  4823  0CAA                     l2272:	
  4824  0CAA  1462               	bsf	___fldiv@grs,0
  4825  0CAB  2CC9               	goto	l2284
  4826  0CAC                     l2274:	
  4827  0CAC  3001               	movlw	1
  4828  0CAD  00D6               	movwf	??___fldiv
  4829  0CAE                     u2695:	
  4830  0CAE  1003               	clrc
  4831  0CAF  0DD2               	rlf	___fldiv@b,f
  4832  0CB0  0DD3               	rlf	___fldiv@b+1,f
  4833  0CB1  0DD4               	rlf	___fldiv@b+2,f
  4834  0CB2  0DD5               	rlf	___fldiv@b+3,f
  4835  0CB3  0BD6               	decfsz	??___fldiv,f
  4836  0CB4  2CAE               	goto	u2695
  4837  0CB5                     l2276:	
  4838  0CB5  1FE5               	btfss	___fldiv@grs+3,7
  4839  0CB6  2CB8               	goto	u2701
  4840  0CB7  2CB9               	goto	u2700
  4841  0CB8                     u2701:	
  4842  0CB8  2CBA               	goto	l2280
  4843  0CB9                     u2700:	
  4844  0CB9                     l2278:	
  4845  0CB9  1452               	bsf	___fldiv@b,0
  4846  0CBA                     l2280:	
  4847  0CBA  3001               	movlw	1
  4848  0CBB  00D6               	movwf	??___fldiv
  4849  0CBC                     u2715:	
  4850  0CBC  1003               	clrc
  4851  0CBD  0DE2               	rlf	___fldiv@grs,f
  4852  0CBE  0DE3               	rlf	___fldiv@grs+1,f
  4853  0CBF  0DE4               	rlf	___fldiv@grs+2,f
  4854  0CC0  0DE5               	rlf	___fldiv@grs+3,f
  4855  0CC1  0BD6               	decfsz	??___fldiv,f
  4856  0CC2  2CBC               	goto	u2715
  4857  0CC3                     l2282:	
  4858  0CC3  30FF               	movlw	255
  4859  0CC4  07E0               	addwf	___fldiv@new_exp,f
  4860  0CC5  1803               	skipnc
  4861  0CC6  0AE1               	incf	___fldiv@new_exp+1,f
  4862  0CC7  30FF               	movlw	255
  4863  0CC8  07E1               	addwf	___fldiv@new_exp+1,f
  4864  0CC9                     l2284:	
  4865  0CC9  1FD4               	btfss	___fldiv@b+2,7
  4866  0CCA  2CCC               	goto	u2721
  4867  0CCB  2CCD               	goto	u2720
  4868  0CCC                     u2721:	
  4869  0CCC  2CAC               	goto	l2274
  4870  0CCD                     u2720:	
  4871  0CCD                     l2286:	
  4872  0CCD  01E7               	clrf	___fldiv@aexp
  4873  0CCE                     l2288:	
  4874  0CCE  1FE5               	btfss	___fldiv@grs+3,7
  4875  0CCF  2CD1               	goto	u2731
  4876  0CD0  2CD2               	goto	u2730
  4877  0CD1                     u2731:	
  4878  0CD1  2CEE               	goto	l2296
  4879  0CD2                     u2730:	
  4880  0CD2                     l2290:	
  4881  0CD2  30FF               	movlw	255
  4882  0CD3  0562               	andwf	___fldiv@grs,w
  4883  0CD4  00D6               	movwf	??___fldiv
  4884  0CD5  30FF               	movlw	255
  4885  0CD6  0563               	andwf	___fldiv@grs+1,w
  4886  0CD7  00D7               	movwf	??___fldiv+1
  4887  0CD8  30FF               	movlw	255
  4888  0CD9  0564               	andwf	___fldiv@grs+2,w
  4889  0CDA  00D8               	movwf	??___fldiv+2
  4890  0CDB  307F               	movlw	127
  4891  0CDC  0565               	andwf	___fldiv@grs+3,w
  4892  0CDD  00D9               	movwf	??___fldiv+3
  4893  0CDE  0859               	movf	??___fldiv+3,w
  4894  0CDF  0458               	iorwf	??___fldiv+2,w
  4895  0CE0  0457               	iorwf	??___fldiv+1,w
  4896  0CE1  0456               	iorwf	??___fldiv,w
  4897  0CE2  1903               	skipnz
  4898  0CE3  2CE5               	goto	u2741
  4899  0CE4  2CE6               	goto	u2740
  4900  0CE5                     u2741:	
  4901  0CE5  2CE9               	goto	l621
  4902  0CE6                     u2740:	
  4903  0CE6                     l2292:	
  4904  0CE6  01E7               	clrf	___fldiv@aexp
  4905  0CE7  0AE7               	incf	___fldiv@aexp,f
  4906  0CE8  2CEE               	goto	l2296
  4907  0CE9                     l621:	
  4908  0CE9  1C52               	btfss	___fldiv@b,0
  4909  0CEA  2CEC               	goto	u2751
  4910  0CEB  2CED               	goto	u2750
  4911  0CEC                     u2751:	
  4912  0CEC  2CEE               	goto	l2296
  4913  0CED                     u2750:	
  4914  0CED  2CE6               	goto	l2292
  4915  0CEE                     l2296:	
  4916  0CEE  0867               	movf	___fldiv@aexp,w
  4917  0CEF  1903               	btfsc	3,2
  4918  0CF0  2CF2               	goto	u2761
  4919  0CF1  2CF3               	goto	u2760
  4920  0CF2                     u2761:	
  4921  0CF2  2D24               	goto	l2306
  4922  0CF3                     u2760:	
  4923  0CF3                     l2298:	
  4924  0CF3  3001               	movlw	1
  4925  0CF4  07D2               	addwf	___fldiv@b,f
  4926  0CF5  3000               	movlw	0
  4927  0CF6  1803               	skipnc
  4928  0CF7  3001               	movlw	1
  4929  0CF8  07D3               	addwf	___fldiv@b+1,f
  4930  0CF9  3000               	movlw	0
  4931  0CFA  1803               	skipnc
  4932  0CFB  3001               	movlw	1
  4933  0CFC  07D4               	addwf	___fldiv@b+2,f
  4934  0CFD  3000               	movlw	0
  4935  0CFE  1803               	skipnc
  4936  0CFF  3001               	movlw	1
  4937  0D00  07D5               	addwf	___fldiv@b+3,f
  4938  0D01                     l2300:	
  4939  0D01  1C55               	btfss	___fldiv@b+3,0
  4940  0D02  2D04               	goto	u2771
  4941  0D03  2D05               	goto	u2770
  4942  0D04                     u2771:	
  4943  0D04  2D24               	goto	l2306
  4944  0D05                     u2770:	
  4945  0D05                     l2302:	
  4946  0D05  0852               	movf	___fldiv@b,w
  4947  0D06  00D6               	movwf	??___fldiv
  4948  0D07  0853               	movf	___fldiv@b+1,w
  4949  0D08  00D7               	movwf	??___fldiv+1
  4950  0D09  0854               	movf	___fldiv@b+2,w
  4951  0D0A  00D8               	movwf	??___fldiv+2
  4952  0D0B  0855               	movf	___fldiv@b+3,w
  4953  0D0C  00D9               	movwf	??___fldiv+3
  4954  0D0D  3001               	movlw	1
  4955  0D0E  00DA               	movwf	??___fldiv+4
  4956  0D0F                     u2785:	
  4957  0D0F  0D59               	rlf	??___fldiv+3,w
  4958  0D10  0CD9               	rrf	??___fldiv+3,f
  4959  0D11  0CD8               	rrf	??___fldiv+2,f
  4960  0D12  0CD7               	rrf	??___fldiv+1,f
  4961  0D13  0CD6               	rrf	??___fldiv,f
  4962  0D14                     u2780:	
  4963  0D14  0BDA               	decfsz	??___fldiv+4,f
  4964  0D15  2D0F               	goto	u2785
  4965  0D16  0859               	movf	??___fldiv+3,w
  4966  0D17  00D5               	movwf	___fldiv@b+3
  4967  0D18  0858               	movf	??___fldiv+2,w
  4968  0D19  00D4               	movwf	___fldiv@b+2
  4969  0D1A  0857               	movf	??___fldiv+1,w
  4970  0D1B  00D3               	movwf	___fldiv@b+1
  4971  0D1C  0856               	movf	??___fldiv,w
  4972  0D1D  00D2               	movwf	___fldiv@b
  4973  0D1E                     l2304:	
  4974  0D1E  3001               	movlw	1
  4975  0D1F  07E0               	addwf	___fldiv@new_exp,f
  4976  0D20  1803               	skipnc
  4977  0D21  0AE1               	incf	___fldiv@new_exp+1,f
  4978  0D22  3000               	movlw	0
  4979  0D23  07E1               	addwf	___fldiv@new_exp+1,f
  4980  0D24                     l2306:	
  4981  0D24  0861               	movf	___fldiv@new_exp+1,w
  4982  0D25  3A80               	xorlw	128
  4983  0D26  00FF               	movwf	btemp+1
  4984  0D27  3080               	movlw	128
  4985  0D28  027F               	subwf	btemp+1,w
  4986  0D29  1D03               	skipz
  4987  0D2A  2D2D               	goto	u2795
  4988  0D2B  30FF               	movlw	255
  4989  0D2C  0260               	subwf	___fldiv@new_exp,w
  4990  0D2D                     u2795:	
  4991  0D2D  1C03               	skipc
  4992  0D2E  2D30               	goto	u2791
  4993  0D2F  2D31               	goto	u2790
  4994  0D30                     u2791:	
  4995  0D30  2D3F               	goto	l2310
  4996  0D31                     u2790:	
  4997  0D31                     l2308:	
  4998  0D31  30FF               	movlw	255
  4999  0D32  1283               	bcf	3,5	;RP0=0, select bank0
  5000  0D33  1303               	bcf	3,6	;RP1=0, select bank0
  5001  0D34  00E0               	movwf	___fldiv@new_exp
  5002  0D35  3000               	movlw	0
  5003  0D36  00E1               	movwf	___fldiv@new_exp+1
  5004  0D37  3000               	movlw	0
  5005  0D38  00D5               	movwf	___fldiv@b+3
  5006  0D39  3000               	movlw	0
  5007  0D3A  00D4               	movwf	___fldiv@b+2
  5008  0D3B  3000               	movlw	0
  5009  0D3C  00D3               	movwf	___fldiv@b+1
  5010  0D3D  3000               	movlw	0
  5011  0D3E  00D2               	movwf	___fldiv@b
  5012  0D3F                     l2310:	
  5013  0D3F  1283               	bcf	3,5	;RP0=0, select bank0
  5014  0D40  1303               	bcf	3,6	;RP1=0, select bank0
  5015  0D41  0861               	movf	___fldiv@new_exp+1,w
  5016  0D42  3A80               	xorlw	128
  5017  0D43  00FF               	movwf	btemp+1
  5018  0D44  3080               	movlw	128
  5019  0D45  027F               	subwf	btemp+1,w
  5020  0D46  1D03               	skipz
  5021  0D47  2D4A               	goto	u2805
  5022  0D48  3001               	movlw	1
  5023  0D49  0260               	subwf	___fldiv@new_exp,w
  5024  0D4A                     u2805:	
  5025  0D4A  1803               	skipnc
  5026  0D4B  2D4D               	goto	u2801
  5027  0D4C  2D4E               	goto	u2800
  5028  0D4D                     u2801:	
  5029  0D4D  2D5B               	goto	l627
  5030  0D4E                     u2800:	
  5031  0D4E                     l2312:	
  5032  0D4E  1283               	bcf	3,5	;RP0=0, select bank0
  5033  0D4F  1303               	bcf	3,6	;RP1=0, select bank0
  5034  0D50  01E0               	clrf	___fldiv@new_exp
  5035  0D51  01E1               	clrf	___fldiv@new_exp+1
  5036  0D52                     l2314:	
  5037  0D52  3000               	movlw	0
  5038  0D53  00D5               	movwf	___fldiv@b+3
  5039  0D54  3000               	movlw	0
  5040  0D55  00D4               	movwf	___fldiv@b+2
  5041  0D56  3000               	movlw	0
  5042  0D57  00D3               	movwf	___fldiv@b+1
  5043  0D58  3000               	movlw	0
  5044  0D59  00D2               	movwf	___fldiv@b
  5045  0D5A                     l2316:	
  5046  0D5A  01DF               	clrf	___fldiv@sign
  5047  0D5B                     l627:	
  5048  0D5B  1283               	bcf	3,5	;RP0=0, select bank0
  5049  0D5C  1303               	bcf	3,6	;RP1=0, select bank0
  5050  0D5D  0860               	movf	___fldiv@new_exp,w
  5051  0D5E  00D6               	movwf	??___fldiv
  5052  0D5F  0856               	movf	??___fldiv,w
  5053  0D60  00E6               	movwf	___fldiv@bexp
  5054  0D61                     l2318:	
  5055  0D61  1C66               	btfss	___fldiv@bexp,0
  5056  0D62  2D64               	goto	u2811
  5057  0D63  2D65               	goto	u2810
  5058  0D64                     u2811:	
  5059  0D64  2D67               	goto	l2322
  5060  0D65                     u2810:	
  5061  0D65                     l2320:	
  5062  0D65  17D4               	bsf	___fldiv@b+2,7
  5063  0D66  2D6B               	goto	l629
  5064  0D67                     l2322:	
  5065  0D67  307F               	movlw	127
  5066  0D68  00D6               	movwf	??___fldiv
  5067  0D69  0856               	movf	??___fldiv,w
  5068  0D6A  05D4               	andwf	___fldiv@b+2,f
  5069  0D6B                     l629:	
  5070  0D6B  0866               	movf	___fldiv@bexp,w
  5071  0D6C  00D6               	movwf	??___fldiv
  5072  0D6D  1003               	clrc
  5073  0D6E  0C56               	rrf	??___fldiv,w
  5074  0D6F  00D7               	movwf	??___fldiv+1
  5075  0D70  0857               	movf	??___fldiv+1,w
  5076  0D71  00D5               	movwf	___fldiv@b+3
  5077  0D72  085F               	movf	___fldiv@sign,w
  5078  0D73  00D6               	movwf	??___fldiv
  5079  0D74  0856               	movf	??___fldiv,w
  5080  0D75  04D5               	iorwf	___fldiv@b+3,f
  5081  0D76  2C0F               	goto	l2230
  5082  0D77                     l607:	
  5083  0D77  0008               	return
  5084  0D78                     __end_of___fldiv:	
  5085                           
  5086                           	psect	text9
  5087  093C                     __ptext9:	
  5088 ;; *************** function _Lcd_Write_Number *****************
  5089 ;; Defined at:
  5090 ;;		line 72 in file "LCD8bits.c"
  5091 ;; Parameters:    Size  Location     Type
  5092 ;;  var             1    wreg     unsigned char 
  5093 ;; Auto vars:     Size  Location     Type
  5094 ;;  var             1   26[BANK0 ] unsigned char 
  5095 ;;  str             4   22[BANK0 ] unsigned char [4]
  5096 ;; Return value:  Size  Location     Type
  5097 ;;                  1    wreg      void 
  5098 ;; Registers used:
  5099 ;;		wreg, fsr0l, fsr0h, status,2, status,0, btemp+1, pclath, cstack
  5100 ;; Tracked objects:
  5101 ;;		On entry : 0/0
  5102 ;;		On exit  : 0/0
  5103 ;;		Unchanged: 0/0
  5104 ;; Data sizes:     COMMON   BANK0   BANK1   BANK3   BANK2
  5105 ;;      Params:         0       0       0       0       0
  5106 ;;      Locals:         0       5       0       0       0
  5107 ;;      Temps:          0       3       0       0       0
  5108 ;;      Totals:         0       8       0       0       0
  5109 ;;Total ram usage:        8 bytes
  5110 ;; Hardware stack levels used:    1
  5111 ;; Hardware stack levels required when called:    3
  5112 ;; This function calls:
  5113 ;;		_Lcd_Write_String
  5114 ;;		_sprintf
  5115 ;; This function is called by:
  5116 ;;		_main
  5117 ;; This function uses a non-reentrant model
  5118 ;;
  5119                           
  5120                           
  5121                           ;psect for function _Lcd_Write_Number
  5122  093C                     _Lcd_Write_Number:	
  5123                           
  5124                           ;incstack = 0
  5125                           ; Regs used in _Lcd_Write_Number: [wreg-fsr0h+status,2+status,0+btemp+1+pclath+cstack]
  5126                           ;Lcd_Write_Number@var stored from wreg
  5127  093C  1283               	bcf	3,5	;RP0=0, select bank0
  5128  093D  1303               	bcf	3,6	;RP1=0, select bank0
  5129  093E  00BA               	movwf	Lcd_Write_Number@var
  5130  093F                     l2716:	
  5131                           
  5132                           ;LCD8bits.c: 73:     char str[4];;LCD8bits.c: 74:     sprintf(str, "%d", var);
  5133  093F  301A               	movlw	(low ((STR_7-__stringbase)| (0+32768)))& (0+255)
  5134  0940  00B3               	movwf	??_Lcd_Write_Number
  5135  0941  0833               	movf	??_Lcd_Write_Number,w
  5136  0942  00A6               	movwf	sprintf@f
  5137  0943  083A               	movf	Lcd_Write_Number@var,w
  5138  0944  00B4               	movwf	??_Lcd_Write_Number+1
  5139  0945  01B5               	clrf	??_Lcd_Write_Number+2
  5140  0946  0834               	movf	??_Lcd_Write_Number+1,w
  5141  0947  00A7               	movwf	?_sprintf+1
  5142  0948  0835               	movf	??_Lcd_Write_Number+2,w
  5143  0949  00A8               	movwf	?_sprintf+2
  5144  094A  3036               	movlw	(low (Lcd_Write_Number@str| 0))& (0+255)
  5145  094B  120A  118A  2662  120A  158A  	fcall	_sprintf
  5146                           
  5147                           ;LCD8bits.c: 75:     Lcd_Write_String(str);
  5148  0950  3036               	movlw	(low (Lcd_Write_Number@str| 0))& (0+255)
  5149  0951  00F4               	movwf	Lcd_Write_String@a
  5150  0952  3000               	movlw	0
  5151  0953  00F5               	movwf	Lcd_Write_String@a+1
  5152  0954  120A  158A  224B  120A  158A  	fcall	_Lcd_Write_String
  5153  0959                     l142:	
  5154  0959  0008               	return
  5155  095A                     __end_of_Lcd_Write_Number:	
  5156                           
  5157                           	psect	text10
  5158  0662                     __ptext10:	
  5159 ;; *************** function _sprintf *****************
  5160 ;; Defined at:
  5161 ;;		line 505 in file "C:\Program Files (x86)\Microchip\xc8\v2.10\pic\sources\c90\common\doprnt.c"
  5162 ;; Parameters:    Size  Location     Type
  5163 ;;  sp              1    wreg     PTR unsigned char 
  5164 ;;		 -> Lcd_Write_Number@str(4), 
  5165 ;;  f               1    6[BANK0 ] PTR const unsigned char 
  5166 ;;		 -> STR_7(3), 
  5167 ;; Auto vars:     Size  Location     Type
  5168 ;;  sp              1   17[BANK0 ] PTR unsigned char 
  5169 ;;		 -> Lcd_Write_Number@str(4), 
  5170 ;;  tmpval          4    0        struct .
  5171 ;;  val             2   15[BANK0 ] unsigned int 
  5172 ;;  cp              2    0        PTR const unsigned char 
  5173 ;;  len             2    0        unsigned int 
  5174 ;;  c               1   18[BANK0 ] unsigned char 
  5175 ;;  prec            1   14[BANK0 ] char 
  5176 ;;  flag            1   13[BANK0 ] unsigned char 
  5177 ;;  ap              1   12[BANK0 ] PTR void [1]
  5178 ;;		 -> ?_sprintf(2), 
  5179 ;; Return value:  Size  Location     Type
  5180 ;;                  2    6[BANK0 ] int 
  5181 ;; Registers used:
  5182 ;;		wreg, fsr0l, fsr0h, status,2, status,0, btemp+1, pclath, cstack
  5183 ;; Tracked objects:
  5184 ;;		On entry : 0/0
  5185 ;;		On exit  : 0/0
  5186 ;;		Unchanged: 0/0
  5187 ;; Data sizes:     COMMON   BANK0   BANK1   BANK3   BANK2
  5188 ;;      Params:         0       3       0       0       0
  5189 ;;      Locals:         0       7       0       0       0
  5190 ;;      Temps:          0       3       0       0       0
  5191 ;;      Totals:         0      13       0       0       0
  5192 ;;Total ram usage:       13 bytes
  5193 ;; Hardware stack levels used:    1
  5194 ;; Hardware stack levels required when called:    2
  5195 ;; This function calls:
  5196 ;;		___lwdiv
  5197 ;;		___lwmod
  5198 ;; This function is called by:
  5199 ;;		_Lcd_Write_Number
  5200 ;; This function uses a non-reentrant model
  5201 ;;
  5202                           
  5203                           
  5204                           ;psect for function _sprintf
  5205  0662                     _sprintf:	
  5206                           
  5207                           ;incstack = 0
  5208                           ; Regs used in _sprintf: [wreg-fsr0h+status,2+status,0+btemp+1+pclath+cstack]
  5209                           ;sprintf@sp stored from wreg
  5210  0662  1283               	bcf	3,5	;RP0=0, select bank0
  5211  0663  1303               	bcf	3,6	;RP1=0, select bank0
  5212  0664  00B1               	movwf	sprintf@sp
  5213  0665                     l2640:	
  5214                           
  5215                           ;C:\Program Files (x86)\Microchip\xc8\v2.10\pic\sources\c90\common\doprnt.c: 505: sprint
      +                          f(char * sp, const char * f, ...);C:\Program Files (x86)\Microchip\xc8\v2.10\pic\sources
      +                          \c90\common\doprnt.c: 506: {;C:\Program Files (x86)\Microchip\xc8\v2.10\pic\sources\c90\
      +                          common\doprnt.c: 507:  va_list ap;;C:\Program Files (x86)\Microchip\xc8\v2.10\pic\source
      +                          s\c90\common\doprnt.c: 512:  char c;;C:\Program Files (x86)\Microchip\xc8\v2.10\pic\sour
      +                          ces\c90\common\doprnt.c: 521:  signed char prec;;C:\Program Files (x86)\Microchip\xc8\v2
      +                          .10\pic\sources\c90\common\doprnt.c: 525:  unsigned char flag;
  5216  0665  3027               	movlw	(low ((?_sprintf| 0+1)))& (0+255)
  5217  0666  00A9               	movwf	??_sprintf
  5218  0667  0829               	movf	??_sprintf,w
  5219  0668  00AC               	movwf	sprintf@ap
  5220                           
  5221                           ;C:\Program Files (x86)\Microchip\xc8\v2.10\pic\sources\c90\common\doprnt.c: 553:  while
      +                          ((c = *f++)) {
  5222  0669  2F35               	goto	l2692
  5223  066A                     l2642:	
  5224                           
  5225                           ;C:\Program Files (x86)\Microchip\xc8\v2.10\pic\sources\c90\common\doprnt.c: 555:   if(c
      +                           != '%')
  5226  066A  3025               	movlw	37
  5227  066B  0632               	xorwf	sprintf@c,w
  5228  066C  1903               	btfsc	3,2
  5229  066D  2E6F               	goto	u3451
  5230  066E  2E70               	goto	u3450
  5231  066F                     u3451:	
  5232  066F  2E7C               	goto	l2648
  5233  0670                     u3450:	
  5234  0670                     l2644:	
  5235                           
  5236                           ;C:\Program Files (x86)\Microchip\xc8\v2.10\pic\sources\c90\common\doprnt.c: 557:   {;C:
      +                          \Program Files (x86)\Microchip\xc8\v2.10\pic\sources\c90\common\doprnt.c: 558:    ((*sp+
      +                          + = (c)));
  5237  0670  0832               	movf	sprintf@c,w
  5238  0671  00A9               	movwf	??_sprintf
  5239  0672  0831               	movf	sprintf@sp,w
  5240  0673  0084               	movwf	4
  5241  0674  0829               	movf	??_sprintf,w
  5242  0675  1383               	bcf	3,7	;select IRP bank0
  5243  0676  0080               	movwf	0
  5244  0677                     l2646:	
  5245  0677  3001               	movlw	1
  5246  0678  00A9               	movwf	??_sprintf
  5247  0679  0829               	movf	??_sprintf,w
  5248  067A  07B1               	addwf	sprintf@sp,f
  5249                           
  5250                           ;C:\Program Files (x86)\Microchip\xc8\v2.10\pic\sources\c90\common\doprnt.c: 559:    con
      +                          tinue;
  5251  067B  2F35               	goto	l2692
  5252  067C                     l2648:	
  5253                           
  5254                           ;C:\Program Files (x86)\Microchip\xc8\v2.10\pic\sources\c90\common\doprnt.c: 565:   flag
      +                           = 0;
  5255  067C  01AD               	clrf	sprintf@flag
  5256  067D                     l2652:	
  5257                           ;C:\Program Files (x86)\Microchip\xc8\v2.10\pic\sources\c90\common\doprnt.c: 661:   swit
      +                          ch(c = *f++) {
  5258                           
  5259  067D  3001               	movlw	1
  5260  067E  07A6               	addwf	sprintf@f,f
  5261  067F  30FF               	movlw	-1
  5262  0680  0726               	addwf	sprintf@f,w
  5263  0681  0084               	movwf	4
  5264  0682  120A  118A  27D2  120A  118A  	fcall	stringdir
  5265  0687  00B2               	movwf	sprintf@c
  5266  0688  00A9               	movwf	??_sprintf
  5267  0689  01AA               	clrf	??_sprintf+1
  5268                           
  5269                           ; Switch on 2 bytes has been partitioned into a top level switch of size 1, and 1 sub-sw
      +                          itches
  5270                           ; Switch size 1, requested type "simple"
  5271                           ; Number of cases is 1, Range of values is 0 to 0
  5272                           ; switch strategies available:
  5273                           ; Name         Instructions Cycles
  5274                           ; simple_byte            4     3 (average)
  5275                           ; direct_byte           11     8 (fixed)
  5276                           ; jumptable            260     6 (fixed)
  5277                           ;	Chosen strategy is simple_byte
  5278  068A  082A               	movf	??_sprintf+1,w
  5279  068B  3A00               	xorlw	0	; case 0
  5280  068C  1903               	skipnz
  5281  068D  2E8F               	goto	l2984
  5282  068E  2F35               	goto	l2692
  5283  068F                     l2984:	
  5284                           
  5285                           ; Switch size 1, requested type "simple"
  5286                           ; Number of cases is 3, Range of values is 0 to 105
  5287                           ; switch strategies available:
  5288                           ; Name         Instructions Cycles
  5289                           ; simple_byte           10     6 (average)
  5290                           ; jumptable            260     6 (fixed)
  5291                           ;	Chosen strategy is simple_byte
  5292  068F  0829               	movf	??_sprintf,w
  5293  0690  3A00               	xorlw	0	; case 0
  5294  0691  1903               	skipnz
  5295  0692  2F47               	goto	l2694
  5296  0693  3A64               	xorlw	100	; case 100
  5297  0694  1903               	skipnz
  5298  0695  2E9A               	goto	l2654
  5299  0696  3A0D               	xorlw	13	; case 105
  5300  0697  1903               	skipnz
  5301  0698  2E9A               	goto	l2654
  5302  0699  2F35               	goto	l2692
  5303  069A                     l2654:	
  5304                           
  5305                           ;C:\Program Files (x86)\Microchip\xc8\v2.10\pic\sources\c90\common\doprnt.c: 1279:   {;C
      +                          :\Program Files (x86)\Microchip\xc8\v2.10\pic\sources\c90\common\doprnt.c: 1285:     val
      +                           = (unsigned int)(*(int *)__va_arg((*(int **)ap), (int)0));
  5306  069A  082C               	movf	sprintf@ap,w
  5307  069B  0084               	movwf	4
  5308  069C  1383               	bcf	3,7	;select IRP bank0
  5309  069D  0800               	movf	0,w
  5310  069E  00AF               	movwf	sprintf@val
  5311  069F  0A84               	incf	4,f
  5312  06A0  0800               	movf	0,w
  5313  06A1  00B0               	movwf	sprintf@val+1
  5314  06A2                     l2656:	
  5315  06A2  3002               	movlw	2
  5316  06A3  00A9               	movwf	??_sprintf
  5317  06A4  0829               	movf	??_sprintf,w
  5318  06A5  07AC               	addwf	sprintf@ap,f
  5319  06A6                     l2658:	
  5320                           
  5321                           ;C:\Program Files (x86)\Microchip\xc8\v2.10\pic\sources\c90\common\doprnt.c: 1287:    if
      +                          ((int)val < 0) {
  5322  06A6  1FB0               	btfss	sprintf@val+1,7
  5323  06A7  2EA9               	goto	u3461
  5324  06A8  2EAA               	goto	u3460
  5325  06A9                     u3461:	
  5326  06A9  2EB3               	goto	l2664
  5327  06AA                     u3460:	
  5328  06AA                     l2660:	
  5329                           
  5330                           ;C:\Program Files (x86)\Microchip\xc8\v2.10\pic\sources\c90\common\doprnt.c: 1288:     f
      +                          lag |= 0x03;
  5331  06AA  3003               	movlw	3
  5332  06AB  00A9               	movwf	??_sprintf
  5333  06AC  0829               	movf	??_sprintf,w
  5334  06AD  04AD               	iorwf	sprintf@flag,f
  5335  06AE                     l2662:	
  5336                           
  5337                           ;C:\Program Files (x86)\Microchip\xc8\v2.10\pic\sources\c90\common\doprnt.c: 1289:     v
      +                          al = -val;
  5338  06AE  09AF               	comf	sprintf@val,f
  5339  06AF  09B0               	comf	sprintf@val+1,f
  5340  06B0  0AAF               	incf	sprintf@val,f
  5341  06B1  1903               	skipnz
  5342  06B2  0AB0               	incf	sprintf@val+1,f
  5343  06B3                     l2664:	
  5344                           
  5345                           ;C:\Program Files (x86)\Microchip\xc8\v2.10\pic\sources\c90\common\doprnt.c: 1292:   };C
      +                          :\Program Files (x86)\Microchip\xc8\v2.10\pic\sources\c90\common\doprnt.c: 1331:    for(
      +                          c = 1 ; c != sizeof dpowers/sizeof dpowers[0] ; c++)
  5346  06B3  01B2               	clrf	sprintf@c
  5347  06B4  0AB2               	incf	sprintf@c,f
  5348  06B5                     l2670:	
  5349                           
  5350                           ;C:\Program Files (x86)\Microchip\xc8\v2.10\pic\sources\c90\common\doprnt.c: 1332:     i
      +                          f(val < dpowers[c])
  5351  06B5  0832               	movf	sprintf@c,w
  5352  06B6  00A9               	movwf	??_sprintf
  5353  06B7  0729               	addwf	??_sprintf,w
  5354  06B8  3E01               	addlw	low ((_dpowers-__stringbase)| (0+32768))
  5355  06B9  0084               	movwf	4
  5356  06BA  120A  118A  27D2  120A  118A  	fcall	stringdir
  5357  06BF  00AA               	movwf	??_sprintf+1
  5358  06C0  120A  118A  27D2  120A  118A  	fcall	stringdir
  5359  06C5  00AB               	movwf	??_sprintf+2
  5360  06C6  082B               	movf	??_sprintf+2,w
  5361  06C7  0230               	subwf	sprintf@val+1,w
  5362  06C8  1D03               	skipz
  5363  06C9  2ECC               	goto	u3475
  5364  06CA  082A               	movf	??_sprintf+1,w
  5365  06CB  022F               	subwf	sprintf@val,w
  5366  06CC                     u3475:	
  5367  06CC  1803               	skipnc
  5368  06CD  2ECF               	goto	u3471
  5369  06CE  2ED0               	goto	u3470
  5370  06CF                     u3471:	
  5371  06CF  2ED1               	goto	l2674
  5372  06D0                     u3470:	
  5373  06D0  2EDB               	goto	l2676
  5374  06D1                     l2674:	
  5375  06D1  3001               	movlw	1
  5376  06D2  00A9               	movwf	??_sprintf
  5377  06D3  0829               	movf	??_sprintf,w
  5378  06D4  07B2               	addwf	sprintf@c,f
  5379  06D5  3005               	movlw	5
  5380  06D6  0632               	xorwf	sprintf@c,w
  5381  06D7  1D03               	btfss	3,2
  5382  06D8  2EDA               	goto	u3481
  5383  06D9  2EDB               	goto	u3480
  5384  06DA                     u3481:	
  5385  06DA  2EB5               	goto	l2670
  5386  06DB                     u3480:	
  5387  06DB                     l2676:	
  5388                           
  5389                           ;C:\Program Files (x86)\Microchip\xc8\v2.10\pic\sources\c90\common\doprnt.c: 1448:   {;C
      +                          :\Program Files (x86)\Microchip\xc8\v2.10\pic\sources\c90\common\doprnt.c: 1464:    if(f
      +                          lag & 0x03)
  5390  06DB  082D               	movf	sprintf@flag,w
  5391  06DC  3903               	andlw	3
  5392  06DD  1903               	btfsc	3,2
  5393  06DE  2EE0               	goto	u3491
  5394  06DF  2EE1               	goto	u3490
  5395  06E0                     u3491:	
  5396  06E0  2EEC               	goto	l2682
  5397  06E1                     u3490:	
  5398  06E1                     l2678:	
  5399                           
  5400                           ;C:\Program Files (x86)\Microchip\xc8\v2.10\pic\sources\c90\common\doprnt.c: 1465:     (
      +                          (*sp++ = ('-')));
  5401  06E1  302D               	movlw	45
  5402  06E2  00A9               	movwf	??_sprintf
  5403  06E3  0831               	movf	sprintf@sp,w
  5404  06E4  0084               	movwf	4
  5405  06E5  0829               	movf	??_sprintf,w
  5406  06E6  1383               	bcf	3,7	;select IRP bank0
  5407  06E7  0080               	movwf	0
  5408  06E8                     l2680:	
  5409  06E8  3001               	movlw	1
  5410  06E9  00A9               	movwf	??_sprintf
  5411  06EA  0829               	movf	??_sprintf,w
  5412  06EB  07B1               	addwf	sprintf@sp,f
  5413  06EC                     l2682:	
  5414                           
  5415                           ;C:\Program Files (x86)\Microchip\xc8\v2.10\pic\sources\c90\common\doprnt.c: 1495:   };C
      +                          :\Program Files (x86)\Microchip\xc8\v2.10\pic\sources\c90\common\doprnt.c: 1498:   prec 
      +                          = c;
  5416  06EC  0832               	movf	sprintf@c,w
  5417  06ED  00A9               	movwf	??_sprintf
  5418  06EE  0829               	movf	??_sprintf,w
  5419  06EF  00AE               	movwf	sprintf@prec
  5420                           
  5421                           ;C:\Program Files (x86)\Microchip\xc8\v2.10\pic\sources\c90\common\doprnt.c: 1500:   whi
      +                          le(prec--) {
  5422  06F0  2F2C               	goto	l2690
  5423  06F1                     l2684:	
  5424                           
  5425                           ;C:\Program Files (x86)\Microchip\xc8\v2.10\pic\sources\c90\common\doprnt.c: 1504:    {;
      +                          C:\Program Files (x86)\Microchip\xc8\v2.10\pic\sources\c90\common\doprnt.c: 1515:     c 
      +                          = (val / dpowers[(unsigned char)prec]) % 10 + '0';
  5426  06F1  300A               	movlw	10
  5427  06F2  00A0               	movwf	___lwmod@divisor
  5428  06F3  3000               	movlw	0
  5429  06F4  00A1               	movwf	___lwmod@divisor+1
  5430  06F5  082E               	movf	sprintf@prec,w
  5431  06F6  00A9               	movwf	??_sprintf
  5432  06F7  0729               	addwf	??_sprintf,w
  5433  06F8  3E01               	addlw	low ((_dpowers-__stringbase)| (0+32768))
  5434  06F9  0084               	movwf	4
  5435  06FA  120A  118A  27D2  120A  118A  	fcall	stringdir
  5436  06FF  00F2               	movwf	___lwdiv@divisor
  5437  0700  120A  118A  27D2  120A  118A  	fcall	stringdir
  5438  0705  00F3               	movwf	___lwdiv@divisor+1
  5439  0706  0830               	movf	sprintf@val+1,w
  5440  0707  00F5               	movwf	___lwdiv@dividend+1
  5441  0708  082F               	movf	sprintf@val,w
  5442  0709  00F4               	movwf	___lwdiv@dividend
  5443  070A  120A  158A  2207  120A  118A  	fcall	___lwdiv
  5444  070F  0873               	movf	?___lwdiv+1,w
  5445  0710  1283               	bcf	3,5	;RP0=0, select bank0
  5446  0711  1303               	bcf	3,6	;RP1=0, select bank0
  5447  0712  00A3               	movwf	___lwmod@dividend+1
  5448  0713  0872               	movf	?___lwdiv,w
  5449  0714  00A2               	movwf	___lwmod@dividend
  5450  0715  120A  158A  21CB  120A  118A  	fcall	___lwmod
  5451  071A  1283               	bcf	3,5	;RP0=0, select bank0
  5452  071B  1303               	bcf	3,6	;RP1=0, select bank0
  5453  071C  0820               	movf	?___lwmod,w
  5454  071D  3E30               	addlw	48
  5455  071E  00AA               	movwf	??_sprintf+1
  5456  071F  082A               	movf	??_sprintf+1,w
  5457  0720  00B2               	movwf	sprintf@c
  5458  0721                     l2686:	
  5459                           
  5460                           ;C:\Program Files (x86)\Microchip\xc8\v2.10\pic\sources\c90\common\doprnt.c: 1549:    };
      +                          C:\Program Files (x86)\Microchip\xc8\v2.10\pic\sources\c90\common\doprnt.c: 1550:    ((*
      +                          sp++ = (c)));
  5461  0721  0832               	movf	sprintf@c,w
  5462  0722  00A9               	movwf	??_sprintf
  5463  0723  0831               	movf	sprintf@sp,w
  5464  0724  0084               	movwf	4
  5465  0725  0829               	movf	??_sprintf,w
  5466  0726  1383               	bcf	3,7	;select IRP bank0
  5467  0727  0080               	movwf	0
  5468  0728                     l2688:	
  5469  0728  3001               	movlw	1
  5470  0729  00A9               	movwf	??_sprintf
  5471  072A  0829               	movf	??_sprintf,w
  5472  072B  07B1               	addwf	sprintf@sp,f
  5473  072C                     l2690:	
  5474                           
  5475                           ;C:\Program Files (x86)\Microchip\xc8\v2.10\pic\sources\c90\common\doprnt.c: 1500:   whi
      +                          le(prec--) {
  5476  072C  30FF               	movlw	255
  5477  072D  00A9               	movwf	??_sprintf
  5478  072E  0829               	movf	??_sprintf,w
  5479  072F  07AE               	addwf	sprintf@prec,f
  5480  0730  0A2E               	incf	sprintf@prec,w
  5481  0731  1D03               	btfss	3,2
  5482  0732  2F34               	goto	u3501
  5483  0733  2F35               	goto	u3500
  5484  0734                     u3501:	
  5485  0734  2EF1               	goto	l2684
  5486  0735                     u3500:	
  5487  0735                     l2692:	
  5488                           
  5489                           ;C:\Program Files (x86)\Microchip\xc8\v2.10\pic\sources\c90\common\doprnt.c: 553:  while
      +                          ((c = *f++)) {
  5490  0735  3001               	movlw	1
  5491  0736  07A6               	addwf	sprintf@f,f
  5492  0737  30FF               	movlw	-1
  5493  0738  0726               	addwf	sprintf@f,w
  5494  0739  0084               	movwf	4
  5495  073A  120A  118A  27D2  120A  118A  	fcall	stringdir
  5496  073F  00A9               	movwf	??_sprintf
  5497  0740  0829               	movf	??_sprintf,w
  5498  0741  00B2               	movwf	sprintf@c
  5499  0742  0832               	movf	sprintf@c,w
  5500  0743  1D03               	btfss	3,2
  5501  0744  2F46               	goto	u3511
  5502  0745  2F47               	goto	u3510
  5503  0746                     u3511:	
  5504  0746  2E6A               	goto	l2642
  5505  0747                     u3510:	
  5506  0747                     l2694:	
  5507                           
  5508                           ;C:\Program Files (x86)\Microchip\xc8\v2.10\pic\sources\c90\common\doprnt.c: 1564:  *sp 
      +                          = 0;
  5509  0747  0831               	movf	sprintf@sp,w
  5510  0748  0084               	movwf	4
  5511  0749  1383               	bcf	3,7	;select IRP bank0
  5512  074A  0180               	clrf	0
  5513  074B                     l252:	
  5514  074B  0008               	return
  5515  074C                     __end_of_sprintf:	
  5516                           
  5517                           	psect	text11
  5518  09CB                     __ptext11:	
  5519 ;; *************** function ___lwmod *****************
  5520 ;; Defined at:
  5521 ;;		line 5 in file "C:\Program Files (x86)\Microchip\xc8\v2.10\pic\sources\c90\common\lwmod.c"
  5522 ;; Parameters:    Size  Location     Type
  5523 ;;  divisor         2    0[BANK0 ] unsigned int 
  5524 ;;  dividend        2    2[BANK0 ] unsigned int 
  5525 ;; Auto vars:     Size  Location     Type
  5526 ;;  counter         1    5[BANK0 ] unsigned char 
  5527 ;; Return value:  Size  Location     Type
  5528 ;;                  2    0[BANK0 ] unsigned int 
  5529 ;; Registers used:
  5530 ;;		wreg, status,2, status,0
  5531 ;; Tracked objects:
  5532 ;;		On entry : 0/0
  5533 ;;		On exit  : 0/0
  5534 ;;		Unchanged: 0/0
  5535 ;; Data sizes:     COMMON   BANK0   BANK1   BANK3   BANK2
  5536 ;;      Params:         0       4       0       0       0
  5537 ;;      Locals:         0       1       0       0       0
  5538 ;;      Temps:          0       1       0       0       0
  5539 ;;      Totals:         0       6       0       0       0
  5540 ;;Total ram usage:        6 bytes
  5541 ;; Hardware stack levels used:    1
  5542 ;; Hardware stack levels required when called:    1
  5543 ;; This function calls:
  5544 ;;		Nothing
  5545 ;; This function is called by:
  5546 ;;		_sprintf
  5547 ;; This function uses a non-reentrant model
  5548 ;;
  5549                           
  5550                           
  5551                           ;psect for function ___lwmod
  5552  09CB                     ___lwmod:	
  5553  09CB                     l2610:	
  5554                           ;incstack = 0
  5555                           ; Regs used in ___lwmod: [wreg+status,2+status,0]
  5556                           
  5557  09CB  1283               	bcf	3,5	;RP0=0, select bank0
  5558  09CC  1303               	bcf	3,6	;RP1=0, select bank0
  5559  09CD  0820               	movf	___lwmod@divisor,w
  5560  09CE  0421               	iorwf	___lwmod@divisor+1,w
  5561  09CF  1903               	btfsc	3,2
  5562  09D0  29D2               	goto	u3361
  5563  09D1  29D3               	goto	u3360
  5564  09D2                     u3361:	
  5565  09D2  2A02               	goto	l2628
  5566  09D3                     u3360:	
  5567  09D3                     l2612:	
  5568  09D3  01A5               	clrf	___lwmod@counter
  5569  09D4  0AA5               	incf	___lwmod@counter,f
  5570  09D5  29E1               	goto	l2618
  5571  09D6                     l2614:	
  5572  09D6  3001               	movlw	1
  5573  09D7                     u3375:	
  5574  09D7  1003               	clrc
  5575  09D8  0DA0               	rlf	___lwmod@divisor,f
  5576  09D9  0DA1               	rlf	___lwmod@divisor+1,f
  5577  09DA  3EFF               	addlw	-1
  5578  09DB  1D03               	skipz
  5579  09DC  29D7               	goto	u3375
  5580  09DD                     l2616:	
  5581  09DD  3001               	movlw	1
  5582  09DE  00A4               	movwf	??___lwmod
  5583  09DF  0824               	movf	??___lwmod,w
  5584  09E0  07A5               	addwf	___lwmod@counter,f
  5585  09E1                     l2618:	
  5586  09E1  1FA1               	btfss	___lwmod@divisor+1,7
  5587  09E2  29E4               	goto	u3381
  5588  09E3  29E5               	goto	u3380
  5589  09E4                     u3381:	
  5590  09E4  29D6               	goto	l2614
  5591  09E5                     u3380:	
  5592  09E5                     l2620:	
  5593  09E5  0821               	movf	___lwmod@divisor+1,w
  5594  09E6  0223               	subwf	___lwmod@dividend+1,w
  5595  09E7  1D03               	skipz
  5596  09E8  29EB               	goto	u3395
  5597  09E9  0820               	movf	___lwmod@divisor,w
  5598  09EA  0222               	subwf	___lwmod@dividend,w
  5599  09EB                     u3395:	
  5600  09EB  1C03               	skipc
  5601  09EC  29EE               	goto	u3391
  5602  09ED  29EF               	goto	u3390
  5603  09EE                     u3391:	
  5604  09EE  29F5               	goto	l2624
  5605  09EF                     u3390:	
  5606  09EF                     l2622:	
  5607  09EF  0820               	movf	___lwmod@divisor,w
  5608  09F0  02A2               	subwf	___lwmod@dividend,f
  5609  09F1  0821               	movf	___lwmod@divisor+1,w
  5610  09F2  1C03               	skipc
  5611  09F3  03A3               	decf	___lwmod@dividend+1,f
  5612  09F4  02A3               	subwf	___lwmod@dividend+1,f
  5613  09F5                     l2624:	
  5614  09F5  3001               	movlw	1
  5615  09F6                     u3405:	
  5616  09F6  1003               	clrc
  5617  09F7  0CA1               	rrf	___lwmod@divisor+1,f
  5618  09F8  0CA0               	rrf	___lwmod@divisor,f
  5619  09F9  3EFF               	addlw	-1
  5620  09FA  1D03               	skipz
  5621  09FB  29F6               	goto	u3405
  5622  09FC                     l2626:	
  5623  09FC  3001               	movlw	1
  5624  09FD  02A5               	subwf	___lwmod@counter,f
  5625  09FE  1D03               	btfss	3,2
  5626  09FF  2A01               	goto	u3411
  5627  0A00  2A02               	goto	u3410
  5628  0A01                     u3411:	
  5629  0A01  29E5               	goto	l2620
  5630  0A02                     u3410:	
  5631  0A02                     l2628:	
  5632  0A02  0823               	movf	___lwmod@dividend+1,w
  5633  0A03  00A1               	movwf	?___lwmod+1
  5634  0A04  0822               	movf	___lwmod@dividend,w
  5635  0A05  00A0               	movwf	?___lwmod
  5636  0A06                     l538:	
  5637  0A06  0008               	return
  5638  0A07                     __end_of___lwmod:	
  5639                           
  5640                           	psect	text12
  5641  0A07                     __ptext12:	
  5642 ;; *************** function ___lwdiv *****************
  5643 ;; Defined at:
  5644 ;;		line 5 in file "C:\Program Files (x86)\Microchip\xc8\v2.10\pic\sources\c90\common\lwdiv.c"
  5645 ;; Parameters:    Size  Location     Type
  5646 ;;  divisor         2    2[COMMON] unsigned int 
  5647 ;;  dividend        2    4[COMMON] unsigned int 
  5648 ;; Auto vars:     Size  Location     Type
  5649 ;;  quotient        2    7[COMMON] unsigned int 
  5650 ;;  counter         1    9[COMMON] unsigned char 
  5651 ;; Return value:  Size  Location     Type
  5652 ;;                  2    2[COMMON] unsigned int 
  5653 ;; Registers used:
  5654 ;;		wreg, status,2, status,0
  5655 ;; Tracked objects:
  5656 ;;		On entry : 0/0
  5657 ;;		On exit  : 0/0
  5658 ;;		Unchanged: 0/0
  5659 ;; Data sizes:     COMMON   BANK0   BANK1   BANK3   BANK2
  5660 ;;      Params:         4       0       0       0       0
  5661 ;;      Locals:         3       0       0       0       0
  5662 ;;      Temps:          1       0       0       0       0
  5663 ;;      Totals:         8       0       0       0       0
  5664 ;;Total ram usage:        8 bytes
  5665 ;; Hardware stack levels used:    1
  5666 ;; Hardware stack levels required when called:    1
  5667 ;; This function calls:
  5668 ;;		Nothing
  5669 ;; This function is called by:
  5670 ;;		_sprintf
  5671 ;; This function uses a non-reentrant model
  5672 ;;
  5673                           
  5674                           
  5675                           ;psect for function ___lwdiv
  5676  0A07                     ___lwdiv:	
  5677  0A07                     l1692:	
  5678                           ;incstack = 0
  5679                           ; Regs used in ___lwdiv: [wreg+status,2+status,0]
  5680                           
  5681  0A07  01F7               	clrf	___lwdiv@quotient
  5682  0A08  01F8               	clrf	___lwdiv@quotient+1
  5683  0A09                     l1694:	
  5684  0A09  0872               	movf	___lwdiv@divisor,w
  5685  0A0A  0473               	iorwf	___lwdiv@divisor+1,w
  5686  0A0B  1903               	btfsc	3,2
  5687  0A0C  2A0E               	goto	u1691
  5688  0A0D  2A0F               	goto	u1690
  5689  0A0E                     u1691:	
  5690  0A0E  2A46               	goto	l1714
  5691  0A0F                     u1690:	
  5692  0A0F                     l1696:	
  5693  0A0F  01F9               	clrf	___lwdiv@counter
  5694  0A10  0AF9               	incf	___lwdiv@counter,f
  5695  0A11  2A1D               	goto	l1702
  5696  0A12                     l1698:	
  5697  0A12  3001               	movlw	1
  5698  0A13                     u1705:	
  5699  0A13  1003               	clrc
  5700  0A14  0DF2               	rlf	___lwdiv@divisor,f
  5701  0A15  0DF3               	rlf	___lwdiv@divisor+1,f
  5702  0A16  3EFF               	addlw	-1
  5703  0A17  1D03               	skipz
  5704  0A18  2A13               	goto	u1705
  5705  0A19                     l1700:	
  5706  0A19  3001               	movlw	1
  5707  0A1A  00F6               	movwf	??___lwdiv
  5708  0A1B  0876               	movf	??___lwdiv,w
  5709  0A1C  07F9               	addwf	___lwdiv@counter,f
  5710  0A1D                     l1702:	
  5711  0A1D  1FF3               	btfss	___lwdiv@divisor+1,7
  5712  0A1E  2A20               	goto	u1711
  5713  0A1F  2A21               	goto	u1710
  5714  0A20                     u1711:	
  5715  0A20  2A12               	goto	l1698
  5716  0A21                     u1710:	
  5717  0A21                     l1704:	
  5718  0A21  3001               	movlw	1
  5719  0A22                     u1725:	
  5720  0A22  1003               	clrc
  5721  0A23  0DF7               	rlf	___lwdiv@quotient,f
  5722  0A24  0DF8               	rlf	___lwdiv@quotient+1,f
  5723  0A25  3EFF               	addlw	-1
  5724  0A26  1D03               	skipz
  5725  0A27  2A22               	goto	u1725
  5726  0A28  0873               	movf	___lwdiv@divisor+1,w
  5727  0A29  0275               	subwf	___lwdiv@dividend+1,w
  5728  0A2A  1D03               	skipz
  5729  0A2B  2A2E               	goto	u1735
  5730  0A2C  0872               	movf	___lwdiv@divisor,w
  5731  0A2D  0274               	subwf	___lwdiv@dividend,w
  5732  0A2E                     u1735:	
  5733  0A2E  1C03               	skipc
  5734  0A2F  2A31               	goto	u1731
  5735  0A30  2A32               	goto	u1730
  5736  0A31                     u1731:	
  5737  0A31  2A39               	goto	l1710
  5738  0A32                     u1730:	
  5739  0A32                     l1706:	
  5740  0A32  0872               	movf	___lwdiv@divisor,w
  5741  0A33  02F4               	subwf	___lwdiv@dividend,f
  5742  0A34  0873               	movf	___lwdiv@divisor+1,w
  5743  0A35  1C03               	skipc
  5744  0A36  03F5               	decf	___lwdiv@dividend+1,f
  5745  0A37  02F5               	subwf	___lwdiv@dividend+1,f
  5746  0A38                     l1708:	
  5747  0A38  1477               	bsf	___lwdiv@quotient,0
  5748  0A39                     l1710:	
  5749  0A39  3001               	movlw	1
  5750  0A3A                     u1745:	
  5751  0A3A  1003               	clrc
  5752  0A3B  0CF3               	rrf	___lwdiv@divisor+1,f
  5753  0A3C  0CF2               	rrf	___lwdiv@divisor,f
  5754  0A3D  3EFF               	addlw	-1
  5755  0A3E  1D03               	skipz
  5756  0A3F  2A3A               	goto	u1745
  5757  0A40                     l1712:	
  5758  0A40  3001               	movlw	1
  5759  0A41  02F9               	subwf	___lwdiv@counter,f
  5760  0A42  1D03               	btfss	3,2
  5761  0A43  2A45               	goto	u1751
  5762  0A44  2A46               	goto	u1750
  5763  0A45                     u1751:	
  5764  0A45  2A21               	goto	l1704
  5765  0A46                     u1750:	
  5766  0A46                     l1714:	
  5767  0A46  0878               	movf	___lwdiv@quotient+1,w
  5768  0A47  00F3               	movwf	?___lwdiv+1
  5769  0A48  0877               	movf	___lwdiv@quotient,w
  5770  0A49  00F2               	movwf	?___lwdiv
  5771  0A4A                     l528:	
  5772  0A4A  0008               	return
  5773  0A4B                     __end_of___lwdiv:	
  5774                           
  5775                           	psect	text13
  5776  0A4B                     __ptext13:	
  5777 ;; *************** function _Lcd_Write_String *****************
  5778 ;; Defined at:
  5779 ;;		line 65 in file "LCD8bits.c"
  5780 ;; Parameters:    Size  Location     Type
  5781 ;;  a               2    4[COMMON] PTR unsigned char 
  5782 ;;		 -> Lcd_Write_Number@str(4), STR_5(2), STR_3(5), STR_2(5), 
  5783 ;;		 -> STR_1(5), 
  5784 ;; Auto vars:     Size  Location     Type
  5785 ;;  i               2    0[BANK0 ] int 
  5786 ;; Return value:  Size  Location     Type
  5787 ;;                  1    wreg      void 
  5788 ;; Registers used:
  5789 ;;		wreg, fsr0l, fsr0h, status,2, status,0, btemp+1, pclath, cstack
  5790 ;; Tracked objects:
  5791 ;;		On entry : 0/0
  5792 ;;		On exit  : 0/0
  5793 ;;		Unchanged: 0/0
  5794 ;; Data sizes:     COMMON   BANK0   BANK1   BANK3   BANK2
  5795 ;;      Params:         2       0       0       0       0
  5796 ;;      Locals:         0       2       0       0       0
  5797 ;;      Temps:          3       0       0       0       0
  5798 ;;      Totals:         5       2       0       0       0
  5799 ;;Total ram usage:        7 bytes
  5800 ;; Hardware stack levels used:    1
  5801 ;; Hardware stack levels required when called:    2
  5802 ;; This function calls:
  5803 ;;		_Lcd_Write_Char
  5804 ;; This function is called by:
  5805 ;;		_main
  5806 ;;		_Lcd_Write_Number
  5807 ;; This function uses a non-reentrant model
  5808 ;;
  5809                           
  5810                           
  5811                           ;psect for function _Lcd_Write_String
  5812  0A4B                     _Lcd_Write_String:	
  5813  0A4B                     l2632:	
  5814                           ;incstack = 0
  5815                           ; Regs used in _Lcd_Write_String: [wreg-fsr0h+status,2+status,0+btemp+1+pclath+cstack]
  5816                           
  5817                           
  5818                           ;LCD8bits.c: 65: void Lcd_Write_String(char *a);LCD8bits.c: 66: {;LCD8bits.c: 67:  int i
      +                          ;;LCD8bits.c: 68:  for(i=0;a[i]!='\0';i++)
  5819  0A4B  1283               	bcf	3,5	;RP0=0, select bank0
  5820  0A4C  1303               	bcf	3,6	;RP1=0, select bank0
  5821  0A4D  01A0               	clrf	Lcd_Write_String@i
  5822  0A4E  01A1               	clrf	Lcd_Write_String@i+1
  5823  0A4F  2A74               	goto	l2638
  5824  0A50                     l2634:	
  5825                           
  5826                           ;LCD8bits.c: 69:     Lcd_Write_Char(a[i]);
  5827  0A50  0820               	movf	Lcd_Write_String@i,w
  5828  0A51  0774               	addwf	Lcd_Write_String@a,w
  5829  0A52  00F7               	movwf	??_Lcd_Write_String+1
  5830  0A53  0875               	movf	Lcd_Write_String@a+1,w
  5831  0A54  00F6               	movwf	??_Lcd_Write_String
  5832  0A55  1803               	skipnc
  5833  0A56  0AF6               	incf	??_Lcd_Write_String,f
  5834  0A57  1FA0               	btfss	Lcd_Write_String@i,7
  5835  0A58  2A5A               	goto	u3420
  5836  0A59  03F6               	decf	??_Lcd_Write_String,f
  5837  0A5A                     u3420:	
  5838  0A5A  0876               	movf	??_Lcd_Write_String,w
  5839  0A5B  00F8               	movwf	??_Lcd_Write_String+2
  5840  0A5C  0878               	movf	??_Lcd_Write_String+2,w
  5841  0A5D  1283               	bcf	3,5	;RP0=0, select bank0
  5842  0A5E  1303               	bcf	3,6	;RP1=0, select bank0
  5843  0A5F  00FF               	movwf	btemp+1
  5844  0A60  0877               	movf	??_Lcd_Write_String+1,w
  5845  0A61  0084               	movwf	4
  5846  0A62  120A  118A  27C8  120A  158A  	fcall	stringtab
  5847  0A67  120A  158A  20BA  120A  158A  	fcall	_Lcd_Write_Char
  5848  0A6C                     l2636:	
  5849  0A6C  3001               	movlw	1
  5850  0A6D  1283               	bcf	3,5	;RP0=0, select bank0
  5851  0A6E  1303               	bcf	3,6	;RP1=0, select bank0
  5852  0A6F  07A0               	addwf	Lcd_Write_String@i,f
  5853  0A70  1803               	skipnc
  5854  0A71  0AA1               	incf	Lcd_Write_String@i+1,f
  5855  0A72  3000               	movlw	0
  5856  0A73  07A1               	addwf	Lcd_Write_String@i+1,f
  5857  0A74                     l2638:	
  5858  0A74  0820               	movf	Lcd_Write_String@i,w
  5859  0A75  0774               	addwf	Lcd_Write_String@a,w
  5860  0A76  00F7               	movwf	??_Lcd_Write_String+1
  5861  0A77  0875               	movf	Lcd_Write_String@a+1,w
  5862  0A78  00F6               	movwf	??_Lcd_Write_String
  5863  0A79  1803               	skipnc
  5864  0A7A  0AF6               	incf	??_Lcd_Write_String,f
  5865  0A7B  1FA0               	btfss	Lcd_Write_String@i,7
  5866  0A7C  2A7E               	goto	u3430
  5867  0A7D  03F6               	decf	??_Lcd_Write_String,f
  5868  0A7E                     u3430:	
  5869  0A7E  0876               	movf	??_Lcd_Write_String,w
  5870  0A7F  00F8               	movwf	??_Lcd_Write_String+2
  5871  0A80  0878               	movf	??_Lcd_Write_String+2,w
  5872  0A81  1283               	bcf	3,5	;RP0=0, select bank0
  5873  0A82  1303               	bcf	3,6	;RP1=0, select bank0
  5874  0A83  00FF               	movwf	btemp+1
  5875  0A84  0877               	movf	??_Lcd_Write_String+1,w
  5876  0A85  0084               	movwf	4
  5877  0A86  120A  118A  27C8  120A  158A  	fcall	stringtab
  5878  0A8B  3A00               	xorlw	0
  5879  0A8C  1D03               	skipz
  5880  0A8D  2A8F               	goto	u3441
  5881  0A8E  2A90               	goto	u3440
  5882  0A8F                     u3441:	
  5883  0A8F  2A50               	goto	l2634
  5884  0A90                     u3440:	
  5885  0A90                     l139:	
  5886  0A90  0008               	return
  5887  0A91                     __end_of_Lcd_Write_String:	
  5888                           
  5889                           	psect	text14
  5890  08BA                     __ptext14:	
  5891 ;; *************** function _Lcd_Write_Char *****************
  5892 ;; Defined at:
  5893 ;;		line 56 in file "LCD8bits.c"
  5894 ;; Parameters:    Size  Location     Type
  5895 ;;  a               1    wreg     unsigned char 
  5896 ;; Auto vars:     Size  Location     Type
  5897 ;;  a               1    3[COMMON] unsigned char 
  5898 ;; Return value:  Size  Location     Type
  5899 ;;                  1    wreg      void 
  5900 ;; Registers used:
  5901 ;;		wreg
  5902 ;; Tracked objects:
  5903 ;;		On entry : 0/0
  5904 ;;		On exit  : 0/0
  5905 ;;		Unchanged: 0/0
  5906 ;; Data sizes:     COMMON   BANK0   BANK1   BANK3   BANK2
  5907 ;;      Params:         0       0       0       0       0
  5908 ;;      Locals:         1       0       0       0       0
  5909 ;;      Temps:          1       0       0       0       0
  5910 ;;      Totals:         2       0       0       0       0
  5911 ;;Total ram usage:        2 bytes
  5912 ;; Hardware stack levels used:    1
  5913 ;; Hardware stack levels required when called:    1
  5914 ;; This function calls:
  5915 ;;		Nothing
  5916 ;; This function is called by:
  5917 ;;		_main
  5918 ;;		_Lcd_Write_String
  5919 ;; This function uses a non-reentrant model
  5920 ;;
  5921                           
  5922                           
  5923                           ;psect for function _Lcd_Write_Char
  5924  08BA                     _Lcd_Write_Char:	
  5925                           
  5926                           ;incstack = 0
  5927                           ; Regs used in _Lcd_Write_Char: [wreg]
  5928                           ;Lcd_Write_Char@a stored from wreg
  5929  08BA  00F3               	movwf	Lcd_Write_Char@a
  5930  08BB                     l2602:	
  5931                           
  5932                           ;LCD8bits.c: 56: void Lcd_Write_Char(char a);LCD8bits.c: 57: {;LCD8bits.c: 58:    PORTBb
      +                          its.RB6 = 1;
  5933  08BB  1283               	bcf	3,5	;RP0=0, select bank0
  5934  08BC  1303               	bcf	3,6	;RP1=0, select bank0
  5935  08BD  1706               	bsf	6,6	;volatile
  5936  08BE                     l2604:	
  5937                           
  5938                           ;LCD8bits.c: 59:    PORTD = a;
  5939  08BE  0873               	movf	Lcd_Write_Char@a,w
  5940  08BF  0088               	movwf	8	;volatile
  5941  08C0                     l2606:	
  5942                           
  5943                           ;LCD8bits.c: 60:    PORTBbits.RB7 = 1;
  5944  08C0  1786               	bsf	6,7	;volatile
  5945                           
  5946                           ;LCD8bits.c: 61:    _delay((unsigned long)((40)*(4000000/4000000.0)));
  5947  08C1  300D               	movlw	13
  5948  08C2  00F2               	movwf	??_Lcd_Write_Char
  5949  08C3                     u4077:	
  5950  08C3  0BF2               	decfsz	??_Lcd_Write_Char,f
  5951  08C4  28C3               	goto	u4077
  5952  08C5                     l2608:	
  5953                           
  5954                           ;LCD8bits.c: 62:    PORTBbits.RB7 = 0;
  5955  08C5  1283               	bcf	3,5	;RP0=0, select bank0
  5956  08C6  1303               	bcf	3,6	;RP1=0, select bank0
  5957  08C7  1386               	bcf	6,7	;volatile
  5958  08C8                     l133:	
  5959  08C8  0008               	return
  5960  08C9                     __end_of_Lcd_Write_Char:	
  5961                           
  5962                           	psect	text15
  5963  095A                     __ptext15:	
  5964 ;; *************** function _Lcd_Set_Cursor *****************
  5965 ;; Defined at:
  5966 ;;		line 24 in file "LCD8bits.c"
  5967 ;; Parameters:    Size  Location     Type
  5968 ;;  x               1    wreg     unsigned char 
  5969 ;;  y               1    5[COMMON] unsigned char 
  5970 ;; Auto vars:     Size  Location     Type
  5971 ;;  x               1    7[COMMON] unsigned char 
  5972 ;;  temp            1    8[COMMON] unsigned char 
  5973 ;; Return value:  Size  Location     Type
  5974 ;;                  1    wreg      void 
  5975 ;; Registers used:
  5976 ;;		wreg, status,2, status,0, pclath, cstack
  5977 ;; Tracked objects:
  5978 ;;		On entry : 0/0
  5979 ;;		On exit  : 0/0
  5980 ;;		Unchanged: 0/0
  5981 ;; Data sizes:     COMMON   BANK0   BANK1   BANK3   BANK2
  5982 ;;      Params:         1       0       0       0       0
  5983 ;;      Locals:         2       0       0       0       0
  5984 ;;      Temps:          1       0       0       0       0
  5985 ;;      Totals:         4       0       0       0       0
  5986 ;;Total ram usage:        4 bytes
  5987 ;; Hardware stack levels used:    1
  5988 ;; Hardware stack levels required when called:    2
  5989 ;; This function calls:
  5990 ;;		_Lcd_Cmd
  5991 ;; This function is called by:
  5992 ;;		_main
  5993 ;; This function uses a non-reentrant model
  5994 ;;
  5995                           
  5996                           
  5997                           ;psect for function _Lcd_Set_Cursor
  5998  095A                     _Lcd_Set_Cursor:	
  5999                           
  6000                           ;incstack = 0
  6001                           ; Regs used in _Lcd_Set_Cursor: [wreg+status,2+status,0+pclath+cstack]
  6002                           ;Lcd_Set_Cursor@x stored from wreg
  6003  095A  00F7               	movwf	Lcd_Set_Cursor@x
  6004  095B                     l2078:	
  6005                           
  6006                           ;LCD8bits.c: 24: void Lcd_Set_Cursor(uint8_t x, uint8_t y);LCD8bits.c: 25: {;LCD8bits.c:
      +                           26:  char temp;;LCD8bits.c: 27:  if(x == 1)
  6007  095B  0377               	decf	Lcd_Set_Cursor@x,w
  6008  095C  1D03               	btfss	3,2
  6009  095D  295F               	goto	u2411
  6010  095E  2960               	goto	u2410
  6011  095F                     u2411:	
  6012  095F  296C               	goto	l2084
  6013  0960                     u2410:	
  6014  0960                     l2080:	
  6015                           
  6016                           ;LCD8bits.c: 28:  {;LCD8bits.c: 29:    temp = 0x80 + y - 1;
  6017  0960  0875               	movf	Lcd_Set_Cursor@y,w
  6018  0961  3E7F               	addlw	127
  6019  0962  00F6               	movwf	??_Lcd_Set_Cursor
  6020  0963  0876               	movf	??_Lcd_Set_Cursor,w
  6021  0964  00F8               	movwf	Lcd_Set_Cursor@temp
  6022  0965                     l2082:	
  6023                           
  6024                           ;LCD8bits.c: 30:       Lcd_Cmd(temp);
  6025  0965  0878               	movf	Lcd_Set_Cursor@temp,w
  6026  0966  120A  158A  20DD  120A  158A  	fcall	_Lcd_Cmd
  6027                           
  6028                           ;LCD8bits.c: 31:  }
  6029  096B  297D               	goto	l127
  6030  096C                     l2084:	
  6031  096C  3002               	movlw	2
  6032  096D  0677               	xorwf	Lcd_Set_Cursor@x,w
  6033  096E  1D03               	btfss	3,2
  6034  096F  2971               	goto	u2421
  6035  0970  2972               	goto	u2420
  6036  0971                     u2421:	
  6037  0971  297D               	goto	l127
  6038  0972                     u2420:	
  6039  0972                     l2086:	
  6040                           
  6041                           ;LCD8bits.c: 33:  {;LCD8bits.c: 34:   temp = 0xC0 + y - 1;
  6042  0972  0875               	movf	Lcd_Set_Cursor@y,w
  6043  0973  3EBF               	addlw	191
  6044  0974  00F6               	movwf	??_Lcd_Set_Cursor
  6045  0975  0876               	movf	??_Lcd_Set_Cursor,w
  6046  0976  00F8               	movwf	Lcd_Set_Cursor@temp
  6047  0977                     l2088:	
  6048                           
  6049                           ;LCD8bits.c: 35:   Lcd_Cmd(temp);
  6050  0977  0878               	movf	Lcd_Set_Cursor@temp,w
  6051  0978  120A  158A  20DD  120A  158A  	fcall	_Lcd_Cmd
  6052  097D                     l127:	
  6053  097D  0008               	return
  6054  097E                     __end_of_Lcd_Set_Cursor:	
  6055                           
  6056                           	psect	text16
  6057  0A91                     __ptext16:	
  6058 ;; *************** function _Lcd_Init *****************
  6059 ;; Defined at:
  6060 ;;		line 39 in file "LCD8bits.c"
  6061 ;; Parameters:    Size  Location     Type
  6062 ;;		None
  6063 ;; Auto vars:     Size  Location     Type
  6064 ;;		None
  6065 ;; Return value:  Size  Location     Type
  6066 ;;                  1    wreg      void 
  6067 ;; Registers used:
  6068 ;;		wreg, status,2, status,0, pclath, cstack
  6069 ;; Tracked objects:
  6070 ;;		On entry : 0/0
  6071 ;;		On exit  : 0/0
  6072 ;;		Unchanged: 0/0
  6073 ;; Data sizes:     COMMON   BANK0   BANK1   BANK3   BANK2
  6074 ;;      Params:         0       0       0       0       0
  6075 ;;      Locals:         0       0       0       0       0
  6076 ;;      Temps:          2       0       0       0       0
  6077 ;;      Totals:         2       0       0       0       0
  6078 ;;Total ram usage:        2 bytes
  6079 ;; Hardware stack levels used:    1
  6080 ;; Hardware stack levels required when called:    2
  6081 ;; This function calls:
  6082 ;;		_Lcd_Cmd
  6083 ;; This function is called by:
  6084 ;;		_main
  6085 ;; This function uses a non-reentrant model
  6086 ;;
  6087                           
  6088                           
  6089                           ;psect for function _Lcd_Init
  6090  0A91                     _Lcd_Init:	
  6091  0A91                     l2058:	
  6092                           ;incstack = 0
  6093                           ; Regs used in _Lcd_Init: [wreg+status,2+status,0+pclath+cstack]
  6094                           
  6095                           
  6096                           ;LCD8bits.c: 41:   _delay((unsigned long)((15)*(4000000/4000.0)));
  6097  0A91  3014               	movlw	20
  6098  0A92  00F6               	movwf	??_Lcd_Init+1
  6099  0A93  3079               	movlw	121
  6100  0A94  00F5               	movwf	??_Lcd_Init
  6101  0A95                     u4087:	
  6102  0A95  0BF5               	decfsz	??_Lcd_Init,f
  6103  0A96  2A95               	goto	u4087
  6104  0A97  0BF6               	decfsz	??_Lcd_Init+1,f
  6105  0A98  2A95               	goto	u4087
  6106  0A99  2A9A               	nop2
  6107  0A9A                     l2060:	
  6108                           
  6109                           ;LCD8bits.c: 42:   Lcd_Cmd(0x030);
  6110  0A9A  3030               	movlw	48
  6111  0A9B  120A  158A  20DD  120A  158A  	fcall	_Lcd_Cmd
  6112  0AA0                     l2062:	
  6113                           
  6114                           ;LCD8bits.c: 43:  _delay((unsigned long)((5)*(4000000/4000.0)));
  6115  0AA0  3007               	movlw	7
  6116  0AA1  00F6               	movwf	??_Lcd_Init+1
  6117  0AA2  307D               	movlw	125
  6118  0AA3  00F5               	movwf	??_Lcd_Init
  6119  0AA4                     u4097:	
  6120  0AA4  0BF5               	decfsz	??_Lcd_Init,f
  6121  0AA5  2AA4               	goto	u4097
  6122  0AA6  0BF6               	decfsz	??_Lcd_Init+1,f
  6123  0AA7  2AA4               	goto	u4097
  6124                           
  6125                           ;LCD8bits.c: 44:   Lcd_Cmd(0x030);
  6126  0AA8  3030               	movlw	48
  6127  0AA9  120A  158A  20DD  120A  158A  	fcall	_Lcd_Cmd
  6128  0AAE                     l2064:	
  6129                           
  6130                           ;LCD8bits.c: 45:  _delay((unsigned long)((11)*(4000000/4000.0)));
  6131  0AAE  300F               	movlw	15
  6132  0AAF  00F6               	movwf	??_Lcd_Init+1
  6133  0AB0  3047               	movlw	71
  6134  0AB1  00F5               	movwf	??_Lcd_Init
  6135  0AB2                     u4107:	
  6136  0AB2  0BF5               	decfsz	??_Lcd_Init,f
  6137  0AB3  2AB2               	goto	u4107
  6138  0AB4  0BF6               	decfsz	??_Lcd_Init+1,f
  6139  0AB5  2AB2               	goto	u4107
  6140  0AB6  2AB7               	nop2
  6141  0AB7                     l2066:	
  6142                           
  6143                           ;LCD8bits.c: 46:   Lcd_Cmd(0x030);
  6144  0AB7  3030               	movlw	48
  6145  0AB8  120A  158A  20DD  120A  158A  	fcall	_Lcd_Cmd
  6146                           
  6147                           ;LCD8bits.c: 47:   _delay((unsigned long)((160)*(4000000/4000.0)));
  6148  0ABD  30D0               	movlw	208
  6149  0ABE  00F6               	movwf	??_Lcd_Init+1
  6150  0ABF  30C9               	movlw	201
  6151  0AC0  00F5               	movwf	??_Lcd_Init
  6152  0AC1                     u4117:	
  6153  0AC1  0BF5               	decfsz	??_Lcd_Init,f
  6154  0AC2  2AC1               	goto	u4117
  6155  0AC3  0BF6               	decfsz	??_Lcd_Init+1,f
  6156  0AC4  2AC1               	goto	u4117
  6157  0AC5  2AC6               	nop2
  6158  0AC6                     l2068:	
  6159                           
  6160                           ;LCD8bits.c: 49:   Lcd_Cmd(0x38);
  6161  0AC6  3038               	movlw	56
  6162  0AC7  120A  158A  20DD  120A  158A  	fcall	_Lcd_Cmd
  6163  0ACC                     l2070:	
  6164                           
  6165                           ;LCD8bits.c: 51:   Lcd_Cmd(0x01);
  6166  0ACC  3001               	movlw	1
  6167  0ACD  120A  158A  20DD  120A  158A  	fcall	_Lcd_Cmd
  6168  0AD2                     l2072:	
  6169                           
  6170                           ;LCD8bits.c: 52:   Lcd_Cmd(0x06);
  6171  0AD2  3006               	movlw	6
  6172  0AD3  120A  158A  20DD  120A  158A  	fcall	_Lcd_Cmd
  6173  0AD8                     l2074:	
  6174                           
  6175                           ;LCD8bits.c: 53:   Lcd_Cmd(0x0C);
  6176  0AD8  300C               	movlw	12
  6177  0AD9  120A  158A  20DD  120A  158A  	fcall	_Lcd_Cmd
  6178  0ADE                     l130:	
  6179  0ADE  0008               	return
  6180  0ADF                     __end_of_Lcd_Init:	
  6181                           
  6182                           	psect	text17
  6183  08AD                     __ptext17:	
  6184 ;; *************** function _Lcd_Clear *****************
  6185 ;; Defined at:
  6186 ;;		line 18 in file "LCD8bits.c"
  6187 ;; Parameters:    Size  Location     Type
  6188 ;;		None
  6189 ;; Auto vars:     Size  Location     Type
  6190 ;;		None
  6191 ;; Return value:  Size  Location     Type
  6192 ;;                  1    wreg      void 
  6193 ;; Registers used:
  6194 ;;		wreg, status,2, status,0, pclath, cstack
  6195 ;; Tracked objects:
  6196 ;;		On entry : 0/0
  6197 ;;		On exit  : 0/0
  6198 ;;		Unchanged: 0/0
  6199 ;; Data sizes:     COMMON   BANK0   BANK1   BANK3   BANK2
  6200 ;;      Params:         0       0       0       0       0
  6201 ;;      Locals:         0       0       0       0       0
  6202 ;;      Temps:          0       0       0       0       0
  6203 ;;      Totals:         0       0       0       0       0
  6204 ;;Total ram usage:        0 bytes
  6205 ;; Hardware stack levels used:    1
  6206 ;; Hardware stack levels required when called:    2
  6207 ;; This function calls:
  6208 ;;		_Lcd_Cmd
  6209 ;; This function is called by:
  6210 ;;		_main
  6211 ;; This function uses a non-reentrant model
  6212 ;;
  6213                           
  6214                           
  6215                           ;psect for function _Lcd_Clear
  6216  08AD                     _Lcd_Clear:	
  6217  08AD                     l2076:	
  6218                           ;incstack = 0
  6219                           ; Regs used in _Lcd_Clear: [wreg+status,2+status,0+pclath+cstack]
  6220                           
  6221                           
  6222                           ;LCD8bits.c: 20:  Lcd_Cmd(0);
  6223  08AD  3000               	movlw	0
  6224  08AE  120A  158A  20DD  120A  158A  	fcall	_Lcd_Cmd
  6225                           
  6226                           ;LCD8bits.c: 21:  Lcd_Cmd(1);
  6227  08B3  3001               	movlw	1
  6228  08B4  120A  158A  20DD  120A  158A  	fcall	_Lcd_Cmd
  6229  08B9                     l121:	
  6230  08B9  0008               	return
  6231  08BA                     __end_of_Lcd_Clear:	
  6232                           
  6233                           	psect	text18
  6234  08DD                     __ptext18:	
  6235 ;; *************** function _Lcd_Cmd *****************
  6236 ;; Defined at:
  6237 ;;		line 9 in file "LCD8bits.c"
  6238 ;; Parameters:    Size  Location     Type
  6239 ;;  z               1    wreg     unsigned char 
  6240 ;; Auto vars:     Size  Location     Type
  6241 ;;  z               1    4[COMMON] unsigned char 
  6242 ;; Return value:  Size  Location     Type
  6243 ;;                  1    wreg      void 
  6244 ;; Registers used:
  6245 ;;		wreg
  6246 ;; Tracked objects:
  6247 ;;		On entry : 0/0
  6248 ;;		On exit  : 0/0
  6249 ;;		Unchanged: 0/0
  6250 ;; Data sizes:     COMMON   BANK0   BANK1   BANK3   BANK2
  6251 ;;      Params:         0       0       0       0       0
  6252 ;;      Locals:         1       0       0       0       0
  6253 ;;      Temps:          2       0       0       0       0
  6254 ;;      Totals:         3       0       0       0       0
  6255 ;;Total ram usage:        3 bytes
  6256 ;; Hardware stack levels used:    1
  6257 ;; Hardware stack levels required when called:    1
  6258 ;; This function calls:
  6259 ;;		Nothing
  6260 ;; This function is called by:
  6261 ;;		_Lcd_Clear
  6262 ;;		_Lcd_Set_Cursor
  6263 ;;		_Lcd_Init
  6264 ;; This function uses a non-reentrant model
  6265 ;;
  6266                           
  6267                           
  6268                           ;psect for function _Lcd_Cmd
  6269  08DD                     _Lcd_Cmd:	
  6270                           
  6271                           ;incstack = 0
  6272                           ; Regs used in _Lcd_Cmd: [wreg]
  6273                           ;Lcd_Cmd@z stored from wreg
  6274  08DD  00F4               	movwf	Lcd_Cmd@z
  6275  08DE                     l1748:	
  6276                           
  6277                           ;LCD8bits.c: 9: void Lcd_Cmd(uint8_t z);LCD8bits.c: 10: {;LCD8bits.c: 11:  PORTBbits.RB6
      +                           = 0;
  6278  08DE  1283               	bcf	3,5	;RP0=0, select bank0
  6279  08DF  1303               	bcf	3,6	;RP1=0, select bank0
  6280  08E0  1306               	bcf	6,6	;volatile
  6281  08E1                     l1750:	
  6282                           
  6283                           ;LCD8bits.c: 12:  PORTD = z;
  6284  08E1  0874               	movf	Lcd_Cmd@z,w
  6285  08E2  0088               	movwf	8	;volatile
  6286  08E3                     l1752:	
  6287                           
  6288                           ;LCD8bits.c: 13:  PORTBbits.RB7 = 1;
  6289  08E3  1786               	bsf	6,7	;volatile
  6290                           
  6291                           ;LCD8bits.c: 14:     _delay((unsigned long)((4)*(4000000/4000.0)));
  6292  08E4  3006               	movlw	6
  6293  08E5  00F3               	movwf	??_Lcd_Cmd+1
  6294  08E6  3030               	movlw	48
  6295  08E7  00F2               	movwf	??_Lcd_Cmd
  6296  08E8                     u4127:	
  6297  08E8  0BF2               	decfsz	??_Lcd_Cmd,f
  6298  08E9  28E8               	goto	u4127
  6299  08EA  0BF3               	decfsz	??_Lcd_Cmd+1,f
  6300  08EB  28E8               	goto	u4127
  6301  08EC  0000               	nop
  6302  08ED                     l1754:	
  6303                           
  6304                           ;LCD8bits.c: 15:     PORTBbits.RB7 = 0;
  6305  08ED  1283               	bcf	3,5	;RP0=0, select bank0
  6306  08EE  1303               	bcf	3,6	;RP1=0, select bank0
  6307  08EF  1386               	bcf	6,7	;volatile
  6308  08F0                     l118:	
  6309  08F0  0008               	return
  6310  08F1                     __end_of_Lcd_Cmd:	
  6311                           
  6312                           	psect	text19
  6313  0909                     __ptext19:	
  6314 ;; *************** function _ADC2 *****************
  6315 ;; Defined at:
  6316 ;;		line 27 in file "ADC.c"
  6317 ;; Parameters:    Size  Location     Type
  6318 ;;		None
  6319 ;; Auto vars:     Size  Location     Type
  6320 ;;		None
  6321 ;; Return value:  Size  Location     Type
  6322 ;;                  1    wreg      void 
  6323 ;; Registers used:
  6324 ;;		wreg, status,2, status,0
  6325 ;; Tracked objects:
  6326 ;;		On entry : 0/0
  6327 ;;		On exit  : 0/0
  6328 ;;		Unchanged: 0/0
  6329 ;; Data sizes:     COMMON   BANK0   BANK1   BANK3   BANK2
  6330 ;;      Params:         0       0       0       0       0
  6331 ;;      Locals:         0       0       0       0       0
  6332 ;;      Temps:          0       0       0       0       0
  6333 ;;      Totals:         0       0       0       0       0
  6334 ;;Total ram usage:        0 bytes
  6335 ;; Hardware stack levels used:    1
  6336 ;; Hardware stack levels required when called:    1
  6337 ;; This function calls:
  6338 ;;		Nothing
  6339 ;; This function is called by:
  6340 ;;		_main
  6341 ;; This function uses a non-reentrant model
  6342 ;;
  6343                           
  6344                           
  6345                           ;psect for function _ADC2
  6346  0909                     _ADC2:	
  6347  0909                     l2118:	
  6348                           ;incstack = 0
  6349                           ; Regs used in _ADC2: [wreg+status,2+status,0]
  6350                           
  6351                           
  6352                           ;ADC.c: 29:     INTCONbits.GIE = 1;
  6353  0909  178B               	bsf	11,7	;volatile
  6354                           
  6355                           ;ADC.c: 30:     INTCONbits.PEIE = 1;
  6356  090A  170B               	bsf	11,6	;volatile
  6357  090B                     l2120:	
  6358                           
  6359                           ;ADC.c: 31:     ADCON0bits.ADCS=01;
  6360  090B  1283               	bcf	3,5	;RP0=0, select bank0
  6361  090C  1303               	bcf	3,6	;RP1=0, select bank0
  6362  090D  081F               	movf	31,w	;volatile
  6363  090E  393F               	andlw	-193
  6364  090F  3840               	iorlw	64
  6365  0910  009F               	movwf	31	;volatile
  6366  0911                     l2122:	
  6367                           
  6368                           ;ADC.c: 32:     ADCON0bits.CHS0=1;
  6369  0911  151F               	bsf	31,2	;volatile
  6370  0912                     l2124:	
  6371                           
  6372                           ;ADC.c: 33:     ADCON0bits.CHS1=0;
  6373  0912  119F               	bcf	31,3	;volatile
  6374  0913                     l2126:	
  6375                           
  6376                           ;ADC.c: 34:     ADCON0bits.CHS2=0;
  6377  0913  121F               	bcf	31,4	;volatile
  6378  0914                     l2128:	
  6379                           
  6380                           ;ADC.c: 35:     ADCON0bits.CHS3=0;
  6381  0914  129F               	bcf	31,5	;volatile
  6382  0915                     l2130:	
  6383                           
  6384                           ;ADC.c: 36:     ADCON0bits.ADON=1;
  6385  0915  141F               	bsf	31,0	;volatile
  6386  0916                     l2132:	
  6387                           
  6388                           ;ADC.c: 37:     ADCON1bits.ADFM=0;
  6389  0916  1683               	bsf	3,5	;RP0=1, select bank1
  6390  0917  1303               	bcf	3,6	;RP1=0, select bank1
  6391  0918  139F               	bcf	31,7	;volatile
  6392  0919                     l2134:	
  6393                           
  6394                           ;ADC.c: 38:     ADCON1bits.VCFG0=0;
  6395  0919  121F               	bcf	31,4	;volatile
  6396  091A                     l2136:	
  6397                           
  6398                           ;ADC.c: 39:     ADCON1bits.VCFG1=0;
  6399  091A  129F               	bcf	31,5	;volatile
  6400  091B                     l2138:	
  6401                           
  6402                           ;ADC.c: 40:     PIE1bits.ADIE=1;
  6403  091B  170C               	bsf	12,6	;volatile
  6404  091C                     l2140:	
  6405                           
  6406                           ;ADC.c: 41:     PIR1bits.ADIF=0;
  6407  091C  1283               	bcf	3,5	;RP0=0, select bank0
  6408  091D  1303               	bcf	3,6	;RP1=0, select bank0
  6409  091E  130C               	bcf	12,6	;volatile
  6410  091F                     l2142:	
  6411                           
  6412                           ;ADC.c: 43:     ADCON0bits.GO_DONE=1;
  6413  091F  149F               	bsf	31,1	;volatile
  6414  0920                     l107:	
  6415  0920  0008               	return
  6416  0921                     __end_of_ADC2:	
  6417                           
  6418                           	psect	text20
  6419  08F1                     __ptext20:	
  6420 ;; *************** function _ADC1 *****************
  6421 ;; Defined at:
  6422 ;;		line 5 in file "ADC.c"
  6423 ;; Parameters:    Size  Location     Type
  6424 ;;		None
  6425 ;; Auto vars:     Size  Location     Type
  6426 ;;		None
  6427 ;; Return value:  Size  Location     Type
  6428 ;;                  1    wreg      void 
  6429 ;; Registers used:
  6430 ;;		wreg, status,2, status,0
  6431 ;; Tracked objects:
  6432 ;;		On entry : 0/0
  6433 ;;		On exit  : 0/0
  6434 ;;		Unchanged: 0/0
  6435 ;; Data sizes:     COMMON   BANK0   BANK1   BANK3   BANK2
  6436 ;;      Params:         0       0       0       0       0
  6437 ;;      Locals:         0       0       0       0       0
  6438 ;;      Temps:          0       0       0       0       0
  6439 ;;      Totals:         0       0       0       0       0
  6440 ;;Total ram usage:        0 bytes
  6441 ;; Hardware stack levels used:    1
  6442 ;; Hardware stack levels required when called:    1
  6443 ;; This function calls:
  6444 ;;		Nothing
  6445 ;; This function is called by:
  6446 ;;		_main
  6447 ;; This function uses a non-reentrant model
  6448 ;;
  6449                           
  6450                           
  6451                           ;psect for function _ADC1
  6452  08F1                     _ADC1:	
  6453  08F1                     l2090:	
  6454                           ;incstack = 0
  6455                           ; Regs used in _ADC1: [wreg+status,2+status,0]
  6456                           
  6457                           
  6458                           ;ADC.c: 7:     INTCONbits.GIE = 1;
  6459  08F1  178B               	bsf	11,7	;volatile
  6460                           
  6461                           ;ADC.c: 8:     INTCONbits.PEIE = 1;
  6462  08F2  170B               	bsf	11,6	;volatile
  6463  08F3                     l2092:	
  6464                           
  6465                           ;ADC.c: 10:     ADCON0bits.ADCS=01;
  6466  08F3  1283               	bcf	3,5	;RP0=0, select bank0
  6467  08F4  1303               	bcf	3,6	;RP1=0, select bank0
  6468  08F5  081F               	movf	31,w	;volatile
  6469  08F6  393F               	andlw	-193
  6470  08F7  3840               	iorlw	64
  6471  08F8  009F               	movwf	31	;volatile
  6472  08F9                     l2094:	
  6473                           
  6474                           ;ADC.c: 11:     ADCON0bits.CHS0=0;
  6475  08F9  111F               	bcf	31,2	;volatile
  6476  08FA                     l2096:	
  6477                           
  6478                           ;ADC.c: 12:     ADCON0bits.CHS1=0;
  6479  08FA  119F               	bcf	31,3	;volatile
  6480  08FB                     l2098:	
  6481                           
  6482                           ;ADC.c: 13:     ADCON0bits.CHS2=0;
  6483  08FB  121F               	bcf	31,4	;volatile
  6484  08FC                     l2100:	
  6485                           
  6486                           ;ADC.c: 14:     ADCON0bits.CHS3=0;
  6487  08FC  129F               	bcf	31,5	;volatile
  6488  08FD                     l2102:	
  6489                           
  6490                           ;ADC.c: 15:     ADCON0bits.ADON=1;
  6491  08FD  141F               	bsf	31,0	;volatile
  6492  08FE                     l2104:	
  6493                           
  6494                           ;ADC.c: 16:     ADCON1bits.ADFM=0;
  6495  08FE  1683               	bsf	3,5	;RP0=1, select bank1
  6496  08FF  1303               	bcf	3,6	;RP1=0, select bank1
  6497  0900  139F               	bcf	31,7	;volatile
  6498  0901                     l2106:	
  6499                           
  6500                           ;ADC.c: 17:     ADCON1bits.VCFG0=0;
  6501  0901  121F               	bcf	31,4	;volatile
  6502  0902                     l2108:	
  6503                           
  6504                           ;ADC.c: 18:     ADCON1bits.VCFG1=0;
  6505  0902  129F               	bcf	31,5	;volatile
  6506  0903                     l2110:	
  6507                           
  6508                           ;ADC.c: 19:     PIE1bits.ADIE=1;
  6509  0903  170C               	bsf	12,6	;volatile
  6510  0904                     l2112:	
  6511                           
  6512                           ;ADC.c: 20:     PIR1bits.ADIF=0;
  6513  0904  1283               	bcf	3,5	;RP0=0, select bank0
  6514  0905  1303               	bcf	3,6	;RP1=0, select bank0
  6515  0906  130C               	bcf	12,6	;volatile
  6516  0907                     l2114:	
  6517                           
  6518                           ;ADC.c: 24:     ADCON0bits.GO_DONE=1;
  6519  0907  149F               	bsf	31,1	;volatile
  6520  0908                     l104:	
  6521  0908  0008               	return
  6522  0909                     __end_of_ADC1:	
  6523                           
  6524                           	psect	text21
  6525  08C9                     __ptext21:	
  6526 ;; *************** function _ISR *****************
  6527 ;; Defined at:
  6528 ;;		line 52 in file "main.c"
  6529 ;; Parameters:    Size  Location     Type
  6530 ;;		None
  6531 ;; Auto vars:     Size  Location     Type
  6532 ;;		None
  6533 ;; Return value:  Size  Location     Type
  6534 ;;                  1    wreg      void 
  6535 ;; Registers used:
  6536 ;;		None
  6537 ;; Tracked objects:
  6538 ;;		On entry : 0/0
  6539 ;;		On exit  : 0/0
  6540 ;;		Unchanged: 0/0
  6541 ;; Data sizes:     COMMON   BANK0   BANK1   BANK3   BANK2
  6542 ;;      Params:         0       0       0       0       0
  6543 ;;      Locals:         0       0       0       0       0
  6544 ;;      Temps:          2       0       0       0       0
  6545 ;;      Totals:         2       0       0       0       0
  6546 ;;Total ram usage:        2 bytes
  6547 ;; Hardware stack levels used:    1
  6548 ;; This function calls:
  6549 ;;		Nothing
  6550 ;; This function is called by:
  6551 ;;		Interrupt level 1
  6552 ;; This function uses a non-reentrant model
  6553 ;;
  6554                           
  6555                           
  6556                           ;psect for function _ISR
  6557  08C9                     _ISR:	
  6558  08C9                     i1l1590:	
  6559                           
  6560                           ;main.c: 53:     INTCONbits.GIE = 0;
  6561  08C9  138B               	bcf	11,7	;volatile
  6562                           
  6563                           ;main.c: 54:     INTCONbits.PEIE = 0;
  6564  08CA  130B               	bcf	11,6	;volatile
  6565                           
  6566                           ;main.c: 55:     if (PIR1bits.ADIF == 1){
  6567  08CB  1283               	bcf	3,5	;RP0=0, select bank0
  6568  08CC  1303               	bcf	3,6	;RP1=0, select bank0
  6569  08CD  1F0C               	btfss	12,6	;volatile
  6570  08CE  28D0               	goto	u165_21
  6571  08CF  28D1               	goto	u165_20
  6572  08D0                     u165_21:	
  6573  08D0  28D4               	goto	i1l75
  6574  08D1                     u165_20:	
  6575  08D1                     i1l1592:	
  6576                           
  6577                           ;main.c: 56:         adc = 1;
  6578  08D1  01FB               	clrf	_adc
  6579  08D2  0AFB               	incf	_adc,f
  6580                           
  6581                           ;main.c: 65:         PIR1bits.ADIF = 0;
  6582  08D3  130C               	bcf	12,6	;volatile
  6583  08D4                     i1l75:	
  6584                           ;main.c: 67:     }
  6585                           
  6586                           
  6587                           ;main.c: 68:     INTCONbits.GIE = 1;
  6588  08D4  178B               	bsf	11,7	;volatile
  6589                           
  6590                           ;main.c: 69:     INTCONbits.PEIE = 1;
  6591  08D5  170B               	bsf	11,6	;volatile
  6592  08D6                     i1l76:	
  6593  08D6  0871               	movf	??_ISR+1,w
  6594  08D7  008A               	movwf	10
  6595  08D8  0E70               	swapf	??_ISR^(0+4294967168),w
  6596  08D9  0083               	movwf	3
  6597  08DA  0EFE               	swapf	btemp,f
  6598  08DB  0E7E               	swapf	btemp,w
  6599  08DC  0009               	retfie
  6600  08DD                     __end_of_ISR:	
  6601  007E                     btemp	set	126	;btemp
  6602  007E                     wtemp0	set	126
  6603                           
  6604                           	psect	intentry
  6605  0004                     __pintentry:	
  6606                           ;incstack = 0
  6607                           ; Regs used in _ISR: []
  6608                           
  6609  0004                     interrupt_function:	
  6610  007E                     saved_w	set	btemp
  6611  0004  00FE               	movwf	btemp
  6612  0005  0E03               	swapf	3,w
  6613  0006  00F0               	movwf	??_ISR
  6614  0007  080A               	movf	10,w
  6615  0008  00F1               	movwf	??_ISR+1
  6616  0009  120A  158A  28C9   	ljmp	_ISR


Data Sizes:
    Strings     22
    Constant    10
    Data        0
    BSS         21
    Persistent  0
    Stack       0

Auto Spaces:
    Space          Size  Autos    Used
    COMMON           14     10      12
    BANK0            80     76      79
    BANK1            80      0      16
    BANK3            96      0       0
    BANK2            96      0       0

Pointer List with Targets:

    sprintf@f	PTR const unsigned char  size(1) Largest target is 3
		 -> STR_7(CODE[3]), 

    sprintf@sp	PTR unsigned char  size(1) Largest target is 4
		 -> Lcd_Write_Number@str(BANK0[4]), 

    sprintf@ap	PTR void [1] size(1) Largest target is 2
		 -> ?_sprintf(BANK0[2]), 

    Lcd_Write_String@a	PTR unsigned char  size(2) Largest target is 5
		 -> Lcd_Write_Number@str(BANK0[4]), STR_5(CODE[2]), STR_3(CODE[5]), STR_2(CODE[5]), 
		 -> STR_1(CODE[5]), 


Critical Paths under _main in COMMON

    _main->___xxtofl
    ___flsub->___fladd
    ___flsub->___xxtofl
    ___flmul->___xxtofl
    _sprintf->___lwdiv
    ___lwmod->___lwdiv
    _Lcd_Write_String->_Lcd_Write_Char
    _Lcd_Set_Cursor->_Lcd_Cmd
    _Lcd_Init->_Lcd_Cmd
    _Lcd_Clear->_Lcd_Cmd

Critical Paths under _ISR in COMMON

    None.

Critical Paths under _main in BANK0

    _main->___fldiv
    ___flsub->___fladd
    ___flmul->___flsub
    ___fldiv->___flmul
    _Lcd_Write_Number->_sprintf
    _sprintf->___lwmod

Critical Paths under _ISR in BANK0

    None.

Critical Paths under _main in BANK1

    None.

Critical Paths under _ISR in BANK1

    None.

Critical Paths under _main in BANK3

    None.

Critical Paths under _ISR in BANK3

    None.

Critical Paths under _main in BANK2

    None.

Critical Paths under _ISR in BANK2

    None.

Call Graph Tables:

 ---------------------------------------------------------------------------------
 (Depth) Function   	        Calls       Base Space   Used Autos Params    Refs
 ---------------------------------------------------------------------------------
 (0) _main                                                 4     4      0   12630
                                             72 BANK0      4     4      0
                               _ADC1
                               _ADC2
                          _Lcd_Clear
                           _Lcd_Init
                     _Lcd_Set_Cursor
                     _Lcd_Write_Char
                   _Lcd_Write_Number
                   _Lcd_Write_String
                            ___fldiv
                            ___flmul
                            ___flsub
                            ___fltol
                           ___xxtofl
                               _init
 ---------------------------------------------------------------------------------
 (1) _init                                                 0     0      0       0
 ---------------------------------------------------------------------------------
 (1) ___xxtofl                                            14    10      4     626
                                              2 COMMON     8     4      4
                                              0 BANK0      6     6      0
 ---------------------------------------------------------------------------------
 (1) ___fltol                                             11     7      4     697
                                              2 COMMON     6     2      4
                                              0 BANK0      5     5      0
 ---------------------------------------------------------------------------------
 (1) ___flsub                                              8     0      8    2485
                                             12 BANK0      8     0      8
                            ___fladd
                           ___xxtofl (ARG)
 ---------------------------------------------------------------------------------
 (2) ___fladd                                             20    12      8    2136
                                              2 COMMON     8     0      8
                                              0 BANK0     12    12      0
 ---------------------------------------------------------------------------------
 (1) ___flmul                                             26    18      8    3893
                                             20 BANK0     26    18      8
                          __Umul8_16
                            ___flsub (ARG)
                           ___xxtofl (ARG)
 ---------------------------------------------------------------------------------
 (2) __Umul8_16                                            9     7      2     980
                                              2 COMMON     4     2      2
                                              0 BANK0      5     5      0
 ---------------------------------------------------------------------------------
 (1) ___fldiv                                             26    18      8    1425
                                             46 BANK0     26    18      8
                            ___flmul (ARG)
 ---------------------------------------------------------------------------------
 (1) _Lcd_Write_Number                                     8     8      0    2282
                                             19 BANK0      8     8      0
                   _Lcd_Write_String
                            _sprintf
 ---------------------------------------------------------------------------------
 (2) _sprintf                                             21    18      3    1548
                                              6 BANK0     13    10      3
                            ___lwdiv
                            ___lwmod
 ---------------------------------------------------------------------------------
 (3) ___lwmod                                              6     2      4     412
                                              0 BANK0      6     2      4
                            ___lwdiv (ARG)
 ---------------------------------------------------------------------------------
 (3) ___lwdiv                                              8     4      4     314
                                              2 COMMON     8     4      4
 ---------------------------------------------------------------------------------
 (1) _Lcd_Write_String                                     7     5      2     611
                                              4 COMMON     5     3      2
                                              0 BANK0      2     2      0
                     _Lcd_Write_Char
 ---------------------------------------------------------------------------------
 (2) _Lcd_Write_Char                                       2     2      0      31
                                              2 COMMON     2     2      0
 ---------------------------------------------------------------------------------
 (1) _Lcd_Set_Cursor                                       4     3      1     536
                                              5 COMMON     4     3      1
                            _Lcd_Cmd
 ---------------------------------------------------------------------------------
 (1) _Lcd_Init                                             2     2      0      22
                                              5 COMMON     2     2      0
                            _Lcd_Cmd
 ---------------------------------------------------------------------------------
 (1) _Lcd_Clear                                            0     0      0      22
                            _Lcd_Cmd
 ---------------------------------------------------------------------------------
 (2) _Lcd_Cmd                                              3     3      0      22
                                              2 COMMON     3     3      0
 ---------------------------------------------------------------------------------
 (1) _ADC2                                                 0     0      0       0
 ---------------------------------------------------------------------------------
 (1) _ADC1                                                 0     0      0       0
 ---------------------------------------------------------------------------------
 Estimated maximum stack depth 3
 ---------------------------------------------------------------------------------
 (Depth) Function   	        Calls       Base Space   Used Autos Params    Refs
 ---------------------------------------------------------------------------------
 (4) _ISR                                                  2     2      0       0
                                              0 COMMON     2     2      0
 ---------------------------------------------------------------------------------
 Estimated maximum stack depth 4
 ---------------------------------------------------------------------------------

 Call Graph Graphs:

 _main (ROOT)
   _ADC1
   _ADC2
   _Lcd_Clear
     _Lcd_Cmd
   _Lcd_Init
     _Lcd_Cmd
   _Lcd_Set_Cursor
     _Lcd_Cmd
   _Lcd_Write_Char
   _Lcd_Write_Number
     _Lcd_Write_String
       _Lcd_Write_Char
     _sprintf
       ___lwdiv
       ___lwmod
         ___lwdiv (ARG)
   _Lcd_Write_String
     _Lcd_Write_Char
   ___fldiv
     ___flmul (ARG)
       __Umul8_16
       ___flsub (ARG)
         ___fladd
         ___xxtofl (ARG)
       ___xxtofl (ARG)
   ___flmul
     __Umul8_16
     ___flsub (ARG)
       ___fladd
       ___xxtofl (ARG)
     ___xxtofl (ARG)
   ___flsub
     ___fladd
     ___xxtofl (ARG)
   ___fltol
   ___xxtofl
   _init

 _ISR (ROOT)

 Address spaces:
Name               Size   Autos  Total    Cost      Usage
BITCOMMON            E      0       0       0        0.0%
EEDATA             100      0       0       0        0.0%
NULL                 0      0       0       0        0.0%
CODE                 0      0       0       0        0.0%
COMMON               E      A       C       1       85.7%
BITSFR0              0      0       0       1        0.0%
SFR0                 0      0       0       1        0.0%
BITSFR1              0      0       0       2        0.0%
SFR1                 0      0       0       2        0.0%
STACK                0      0       0       2        0.0%
ABS                  0      0      6B       3        0.0%
BITBANK0            50      0       0       4        0.0%
BITSFR3              0      0       0       4        0.0%
SFR3                 0      0       0       4        0.0%
BANK0               50     4C      4F       5       98.8%
BITSFR2              0      0       0       5        0.0%
SFR2                 0      0       0       5        0.0%
BITBANK1            50      0       0       6        0.0%
BANK1               50      0      10       7       20.0%
BITBANK3            60      0       0       8        0.0%
BANK3               60      0       0       9        0.0%
BITBANK2            60      0       0      10        0.0%
BANK2               60      0       0      11        0.0%
DATA                 0      0      6B      12        0.0%


Microchip Technology PIC Macro Assembler V2.10 build 88905656 
Symbol Table                                                                                   Wed Feb 12 14:26:19 2020

             ___fldiv@aexp 0067               ___fldiv@bexp 0066                          pc 0002  
             ___fldiv@sign 005F                __CFG_CP$OFF 0000                         l81 03CE  
                       l91 093B                         fsr 0004        __Umul8_16@word_mpld 0022  
                      l104 0908                        l121 08B9                        l130 0ADE  
                      l107 0920                        l133 08C8                        l118 08F0  
                      l142 0959                        l127 097D                        l139 0A90  
                      l252 074B                        l442 07C7                        l452 07C7  
                      l621 0CE9                        l605 0BF7                        l702 09B8  
                      l607 0D77                        l528 0A4A                        l704 09CA  
                      l553 0E82                        l449 07B2                        l538 0A06  
                      l570 0F4D                        l562 0FFF                        l627 0D5B  
                      l651 02EF                        l555 0E59                        l580 0F93  
                      l629 0D6B                        l645 0383                        l549 0DDB  
                      l574 0F71                        l591 0FF3                        l583 0FD1  
                      l592 0FFF                        l657 0377                        l595 09A1  
                      l683 0B03                        l685 0B9A                        l696 0B64  
                      l697 0B70                        l689 0B48               __CFG_CPD$OFF 0000  
                      _ISR 08C9                        _adc 007B                        fsr0 0004  
                      indf 0000               ___flmul@aexp 0042               ___flmul@bexp 0047  
             ___flmul@sign 0041               ___flmul@temp 004C               ___flmul@prod 0048  
             __CFG_LVP$OFF 0000                       ?_ISR 0070               ___fltol@exp1 0077  
                     l2000 0FE8                       l2010 0FFE                       l2002 0FE9  
                     l2100 08FC                       l2004 0FED                       l2110 0903  
                     l2102 08FD                       l2006 0FEF                       l2030 0928  
                     l2112 0904                       l2104 08FE                       l2120 090B  
                     l2200 0BBF                       l2008 0FFA                       l2040 092D  
                     l2032 0929                       l2114 0907                       l2106 0901  
                     l2130 0915                       l2122 0911                       l2210 0BD5  
                     l2202 0BC0                       l2050 0937                       l2042 0930  
                     l2034 092A                       l2026 0921                       l2108 0902  
                     l2140 091C                       l2132 0916                       l2124 0912  
                     l2060 0A9A                       l2300 0D01                       l2220 0BEC  
                     l2212 0BD9                       l2204 0BC2                       l2052 0938  
                     l2044 0932                       l2036 092B                       l2028 0927  
                     l2142 091F                       l2134 0919                       l2126 0913  
                     l2118 0909                       l2070 0ACC                       l2062 0AA0  
                     l2310 0D3F                       l2302 0D05                       l2230 0C0F  
                     l2222 0BED                       l2214 0BDA                       l2206 0BCA  
                     l2054 0939                       l2046 0935                       l2038 092C  
                     l2136 091A                       l2128 0914                       l2072 0AD2  
                     l2064 0AAE                       l2080 0960                       l2320 0D65  
                     l2312 0D4E                       l2304 0D1E                       l2240 0C26  
                     l2216 0BDF                       l2224 0BEF                       l2208 0BCF  
                     l2056 093A                       l2048 0936                       l2090 08F1  
                     l2138 091B                       l2074 0AD8                       l2066 0AB7  
                     l2058 0A91                       l2082 0965                       l2322 0D67  
                     l2314 0D52                       l2306 0D24                       l2250 0C52  
                     l2242 0C38                       l2226 0BFF                       l2234 0C18  
                     l2218 0BE4                       l2092 08F3                       l2076 08AD  
                     l2068 0AC6                       l2084 096C                       l1700 0A19  
                     l2316 0D5A                       l2308 0D31                       l2252 0C57  
                     l2260 0C77                       l2244 0C40                       l2236 0C1D  
                     l2228 0C0B                       l2180 097E                       l2500 0B72  
                     l2094 08F9                       l2086 0972                       l2078 095B  
                     l1710 0A39                       l1702 0A1D                       l2318 0D61  
                     l2270 0CA2                       l2262 0C89                       l2254 0C69  
                     l2246 0C48                       l2190 0BA8                       l2182 0982  
                     l2502 0B88                       l2096 08FA                       l2088 0977  
                     l1712 0A40                       l1704 0A21                       l2280 0CBA  
                     l2272 0CAA                       l2264 0C8A                       l2256 0C6D  
                     l2248 0C50                       l2192 0BAC                       l2504 0B8D  
                     l2098 08FB                       l2602 08BB                       l1706 0A32  
                     l1714 0A46                       l2610 09CB                       l2290 0CD2  
                     l2282 0CC3                       l2274 0CAC                       l2266 0C98  
                     l2258 0C6E                       l2194 0BAD                       l2186 0B9B  
                     l2506 0B91                       l2604 08BE                       l1708 0A38  
                     l2620 09E5                       l2612 09D3                       l2292 0CE6  
                     l2276 0CB5                       l2284 0CC9                       l2268 0C9C  
                     l2196 0BB2                       l2188 0BA2                       l1900 0E3D  
                     l1820 0D7F                       l2508 0B92                       l1750 08E1  
                     l2606 08C0                       l2622 09EF                       l2614 09D6  
                     l2286 0CCD                       l2278 0CB9                       l2198 0BB7  
                     l2710 09C1                       l2702 09A5                       l1910 0E6D  
                     l1902 0E5D                       l1830 0D94                       l1822 0D85  
                     l2470 0AE7                       _ADC1 08F1                       l1752 08E3  
                     l2608 08C5                       l2632 0A4B                       l2624 09F5  
                     l2616 09DD                       l2640 0665                       l2296 0CEE  
                     l2288 0CCE                       l2712 09C6                       l2704 09A7  
                     l2800 00A0                       l1912 0E76                       l1904 0E66  
                     l1840 0DAC                       l1832 0D9C                       l1824 0D89  
                     l2720 0759                       l2480 0B14                       l2472 0AEB  
                     _ADC2 0909                       l1754 08ED                       l2634 0A50  
                     l2626 09FC                       l2618 09E1                       l2642 066A  
                     l2298 0CF3                       l2706 09AE                       l2810 012E  
                     l2802 00AD                       l1930 0EBC                       l1922 0E94  
                     l1906 0E68                       l1914 0E7A                       l1850 0DBE  
                     l1842 0DB2                       l1834 0D9D                       l1826 0D8A  
                     l1818 0D78                       l2730 0780                       l2490 0B3F  
                     l2482 0B19                       l2474 0AFB                       l1748 08DE  
                     l2636 0A6C                       l1692 0A07                       l2628 0A02  
                     l2660 06AA                       l2652 067D                       l2644 0670  
                     l2716 093F                       l2708 09B2                       l2820 0190  
                     l2812 014A                       l2804 00CA                       l1932 0EBE  
                     l1924 0EAB                       l1916 0E86                       l1940 0ED1  
                     l1908 0E6C                       l1852 0DC3                       l1860 0DD3  
                     l1844 0DB3                       l1828 0D8F                       l1836 0D9F  
                     l2740 078E                       l2732 0782                       l2724 0762  
                     l2492 0B4F                       l2484 0B26                       l2476 0B0B  
                     l2468 0AE2                       l2900 03B9                       l2638 0A74  
                     l1694 0A09                       l2670 06B5                       l2662 06AE  
                     l2654 069A                       l2646 0677                       l2830 0220  
                     l2822 01AD                       l2814 0153                       l2806 00E6  
                     l1942 0EE7                       l1950 0F3F                       l1934 0EC2  
                     l1926 0EAF                       l1918 0E8B                       l1870 0DF1  
                     l1862 0DE1                       l1854 0DC8                       l1846 0DB9  
                     l1838 0DA7                       l2750 07B7                       l2734 0786  
                     l2742 07A0                       l2726 0777                       l2718 074C  
                     l2494 0B5A                       l2486 0B2D                       l2910 03F8  
                     l2902 03C5                       l1696 0A0F                       l2680 06E8  
                     l2664 06B3                       l2656 06A2                       l2648 067C  
                     l2840 02B2                       l2832 024D                       l2824 01C6  
                     l2816 0163                       l2808 0112                       l2760 0034  
                     l1960 0F6C                       l1952 0F55                       l1944 0F25  
                     l1936 0EC3                       l1928 0EB3                       l1880 0E05  
                     l1872 0DF5                       l1864 0DE5                       l1856 0DD0  
                     l1848 0DBD                       l2752 07BC                       l2728 0778  
                     l2496 0B5E                       l2488 0B31                       l2920 04E0  
                     l2912 03FB                       l2904 03D3                       l1698 0A12  
                     l2690 072C                       l2682 06EC                       l2674 06D1  
                     l2658 06A6                       l2842 02BB                       l2850 02CF  
                     l2834 0273                       l2826 01E3                       l2818 0180  
                     l2770 0049                       l2762 0035                       l2754 0023  
                     l1970 0F7F                       l1962 0F70                       l1954 0F5A  
                     l1946 0F2B                       l1938 0ECC                       l1890 0E19  
                     l1882 0E09                       l1874 0DF9                       l1866 0DE9  
                     l1858 0DD1                       l2498 0B68                       l2930 0502  
                     l2922 04E8                       l2914 0451                       l2906 03D8  
                     l2684 06F1                       l2676 06DB                       l2692 0735  
                     l2852 02D3                       l2844 02BF                       l2836 029B  
                     l2828 0210                       l2780 0061                       l2772 0051  
                     l2764 003A                       l2756 002A                       l1980 0F90  
                     l1964 0F75                       l1972 0F81                       l1948 0F30  
                     l1892 0E1D                       l1884 0E0D                       l1876 0DFD  
                     l1868 0DED                       l2748 07A7                       l2940 052C  
                     l2932 0509                       l2924 04F0                       l2916 0464  
                     l2908 03F7                       l2686 0721                       l2678 06E1  
                     l2694 0747                       l2870 0324                       l2862 02F4  
                     l2854 02D4                       l2846 02C0                       l2838 02A4  
                     l2790 007D                       l2782 0066                       l2774 0056  
                     l2766 003F                       l2758 0030                       l1990 0FAF  
                     l1966 0F78                       l1958 0F63                       l1974 0F85  
                     l1894 0E21                       l1886 0E11                       l1878 0E01  
                     l2950 05B8                       l2942 054B                       l2934 0518  
                     l2926 04F6                       l2918 04CD                       l2688 0728  
                     l2880 035B                       l2864 02F9                       l2872 032A  
                     l2856 02D8                       l2848 02C9                       l2792 0082  
                     l2784 006B                       l2776 005C                       l2768 0047  
                     l1992 0FCD                       l1984 0F98                       l1976 0F86  
                     l1968 0F7A                       l1888 0E15                       l1896 0E25  
                     l2960 064C                       l2952 0621                       l2944 054C  
                     l2936 0522                       l2928 04FC                       l2890 037B  
                     l2882 035D                       l2874 0337                       l2866 0307  
                     l2858 02EC                       l2794 0087                       l2786 0073  
                     l2778 0060                       l1994 0FD6                       l1986 0F9D  
                     l1978 0F8A                       l1898 0E26                       l2962 0654  
                     l2954 0634                       l2946 054F                       l2938 0527  
                     l2884 036B                       l2876 0342                       l2868 030B  
                     l2788 0075                       l1996 0FDB                       l1988 0FAB  
                     l2956 063E                       l2948 05A5                       l2886 036F  
                     l2878 0351                       l2798 0090                       l1998 0FE3  
                     l2958 0646                       l2894 0384                       l2984 068F  
                     l2888 0370                       l2896 039B                       l2898 03A4  
                     STR_1 07E2                       STR_2 07E7                       STR_3 07EC  
                     STR_4 07F4                       STR_5 07F6                       STR_6 07F4  
                     STR_7 07F1                       u2000 0DE5                       u2001 0DE4  
                     u2010 0E3D                       u2011 0E3C                       u2020 0E46  
                     u2101 0E9D                       u2021 0E44                       u2110 0EAF  
                     u2102 0EA4                       u2030 0E47                       u2111 0EAE  
                     u2103 0EAB                       u2015 0E39                       u2200 0F5A  
                     u2120 0EB3                       u2040 0E5D                       u2201 0F59  
                     u2121 0EB2                       u2041 0E5C                       u2130 0EC2  
                     u2050 0E6C                       u2131 0EC1                       u2051 0E6B  
                     u2300 0FAF                       u2220 0F70                       u2301 0FAE  
                     u2221 0F6F                       u2310 0FBE                       u2230 0F75  
                     u2150 0EE7                       u2070 0E82                       u2231 0F74  
                     u2215 0F65                       u2151 0EE6                       u2071 0E81  
                     u4000 0351                       u2320 0FCD                       u2240 0F7F  
                     u2080 0E86                       u3200 0AEB                       u4001 0350  
                     u2321 0FCC                       u2241 0F7E                       u2161 0EFE  
                     u2153 0EE3                       u2145 0EC5                       u2081 0E85  
                     u2065 0E6F                       u3201 0AEA                       u2410 0960  
                     u4010 036F                       u2330 0FD6                       u2250 0F85  
                     u2170 0F12                       u2162 0EFF                       u2090 0E8B  
                     u3210 0B0B                       u2411 095F                       u4011 036E  
                     u2331 0FD5                       u2315 0FB9                       u2251 0F84  
                     u2171 0F13                       u2163 0F04                       u2091 0E8A  
                     u3211 0B0A                       u2420 0972                       u2340 0FDB  
                     u2260 0F8A                       u2180 0F30                       u2172 0F18  
                     u2164 0F05                       u3300 0B7D                       u4020 03D8  
                     u2421 0971                       u4005 034D                       u2341 0FDA  
                     u2261 0F89                       u2181 0F2F                       u2173 0F19  
                     u2165 0F0A                       u4021 03D7                       u1710 0A21  
                     u2350 0FE8                       u2270 0F90                       u2190 0F55  
                     u2166 0F0B                       u3310 0B8D                       u3230 0B2C  
                     u4030 0502                       u1711 0A20                       u2351 0FE7  
                     u2271 0F8F                       u2191 0F54                       u3311 0B8C  
                     u3231 0B2B                       u4031 0501                       u2600 0C1D  
                     u2360 0FED                       u2280 0F97                       u3320 0B91  
                     u4040 052C                       u1705 0A13                       u2601 0C1C  
                     u2361 0FEC                       u2281 0F96                       u3321 0B90  
                     u3305 0B78                       u3225 0B1E                       u4041 052B  
                     u1730 0A32                       u3410 0A02                       u2610 0C57  
                     u2530 0BAC                       u2370 0FFE                       u2290 0F9D  
                     u3250 0B4E                       u4107 0AB2                       u1731 0A31  
                     u3411 0A01                       u2611 0C56                       u2531 0BAB  
                     u2371 0FFD                       u2291 0F9C                       u3251 0B4D  
                     u3420 0A5A                       u3500 0735                       u2700 0CB9  
                     u2540 0BB2                       u4117 0AC1                       u1725 0A22  
                     u3405 09F6                       u3501 0734                       u2701 0CB8  
                     u2541 0BB1                       u3245 0B40                       u3430 0A7E  
                     u1750 0A46                       u3510 0747                       u2550 0BB7  
                     u3270 0B5E                       u3190 0AE7                       u4127 08E8  
                     u1751 0A45                       u1735 0A2E                       u3511 0746  
                     u2551 0BB6                       u3271 0B5D                       u3191 0AE6  
                     u3440 0A90                       u3360 09D3                       u2800 0D4E  
                     u2720 0CCD                       u2640 0C6D                       u2560 0BD9  
                     u3520 09B2                       u1920 0D89                       u3600 079F  
                     u3280 0B64                       u3441 0A8F                       u1745 0A3A  
                     u3361 09D2                       u2801 0D4D                       u2721 0CCC  
                     u2641 0C6C                       u2625 0C59                       u2561 0BD8  
                     u3521 09B1                       u1921 0D88                       u3601 079E  
                     u3281 0B63                       u3265 0B53                       u4057 051E  
                     u1690 0A0F                       u3450 0670                       u2810 0D65  
                     u2730 0CD2                       u2570 0BDF                       u1930 0D8F  
                     u3610 07A6                       u3290 0B68                       u1691 0A0E  
                     u3451 066F                       u2811 0D64                       u2731 0CD1  
                     u2715 0CBC                       u2635 0C62                       u2571 0BDE  
                     u1931 0D8E                       u3611 07A5                       u3291 0B67  
                     u4067 065A                       u3380 09E5                       u3460 06AA  
                     u2740 0CE6                       u2660 0C89                       u2580 0BE4  
                     u3540 09C6                       u3700 006B                       u1940 0D94  
                     u4077 08C3                       u3381 09E4                       u3461 06A9  
                     u2805 0D4A                       u2741 0CE5                       u2661 0C88  
                     u2581 0BE3                       u3541 09C5                       u3701 006A  
                     u1941 0D93                       u3390 09EF                       u3470 06D0  
                     u2750 0CED                       u2670 0CA2                       u2590 0BFF  
                     u3710 0082                       u1950 0DB2                       u3630 07B7  
                     u3550 0759                       u4087 0A95                       u3391 09EE  
                     u3375 09D7                       u3471 06CF                       u2751 0CEC  
                     u2671 0CA1                       u2655 0C70                       u2591 0BFE  
                     u3535 09B9                       u3711 0081                       u1951 0DB1  
                     u3631 07B6                       u3551 0758                       u3480 06DB  
                     u2760 0CF3                       u2680 0CAA                       u3720 0087  
                     u1960 0DBD                       u3640 07BC                       u3560 0770  
                     u4097 0AA4                       u3481 06DA                       u2761 0CF2  
                     u2681 0CA9                       u2665 0C85                       u3721 0086  
                     u1961 0DBC                       u3641 07BB                       u3625 07A9  
                     u3490 06E1                       u2770 0D05                       u3650 0034  
                     u1970 0DC3                       u3570 0786                       u3395 09EB  
                     u3491 06E0                       u3475 06CC                       u2771 0D04  
                     u3811 01D5                       u3731 00D8                       u3651 0033  
                     u1971 0DC2                       u3571 0785                       u2780 0D14  
                     u3900 02BF                       u3812 01DC                       u3732 00DF  
                     u3660 003A                       u1980 0DC8                       u3580 078D  
                     u3901 02BE                       u3821 0202                       u3813 01E3  
                     u3805 01AF                       u3741 00F4                       u3733 00E6  
                     u3661 0039                       u1981 0DC7                       u3581 078C  
                     u3565 076B                       u2790 0D31                       u3822 0209  
                     u3742 00FB                       u3670 003F                       u1990 0DE1  
                     u2791 0D30                       u2695 0CAE                       u3831 022F  
                     u3823 0210                       u3751 0120                       u3743 0102  
                     u3671 003E                       u1991 0DE0                       u3920 02D3  
                     u3840 0259                       u3832 0236                       u3752 0127  
                     u3680 0060                       u2785 0D0F                       u3921 02D2  
                     u3833 023D                       u3761 013C                       u3753 012E  
                     u3681 005F                       u3930 02D8                       u3762 0143  
                     u3690 0066                       u2795 0D2D                       u3931 02D7  
                     u3915 02C2                       u3851 0265                       u3763 014A  
                     u3691 0065                       u3595 078F                       u3940 02EC  
                     u3860 0281                       u3852 026C                       u3941 02EB  
                     u3853 0273                       u3845 0254                       u3781 0172  
                     u3950 02F3                       u3782 0179                       u3951 02F2  
                     u3871 028D                       u3791 019F                       u3783 0180  
                     u3775 014C                       u3960 02F9                       u3872 0294  
                     u3792 01A6                       u3961 02F8                       u3873 029B  
                     u3865 027C                       u3793 01AD                       u3970 030B  
                     i1l75 08D4                       u3971 030A                       i1l76 08D6  
                     u3980 031A                       u3885 029D                       u3990 0337  
                     u3991 0336                       u3895 02B4                       u3985 0315  
                     u3995 0333          ?_Lcd_Write_Number 0070               __CFG_WRT$OFF 0000  
                     _dec1 007A                       _dec2 006C          ?_Lcd_Write_String 0074  
                     _ent1 006E                       _ent2 006D                       _main 0384  
                     _init 0921                       _pot1 00AC                       _pot2 00A8  
                     btemp 007E         ??_Lcd_Write_Number 0033                       start 000C  
       ??_Lcd_Write_String 0076              __CFG_IESO$OFF 0000            ___fldiv@new_exp 0060  
          __end_of_Lcd_Cmd 08F1                      ??_ISR 0070                      ?_ADC1 0070  
                    ?_ADC2 0070              ___fltol@sign1 0076            __end_of___fladd 1000  
                    ?_main 0070                      ?_init 0070            __end_of___fldiv 0D78  
            __CFG_WDTE$OFF 0000            __end_of___flmul 0384            __end_of___flsub 09A2  
          __end_of___fltol 07C8                      _ANSEL 0188            __end_of___lwdiv 0A4B  
          __end_of___lwmod 0A07                      _PORTA 0005                      _PORTB 0006  
                    _PORTC 0007                      _PORTD 0008    __size_of_Lcd_Set_Cursor 0024  
                    _TRISB 0086                      _TRISC 0087                      _TRISD 0088  
           __CFG_FCMEN$OFF 0000                      _deci1 00A4                      _deci2 00A0  
          __end_of_dpowers 07E2             __CFG_BOREN$OFF 0000                      pclath 000A  
                    status 0003                      wtemp0 007E            __end_of_sprintf 074C  
             __end_of_ADC1 0909               __end_of_ADC2 0921           __end_of_Lcd_Init 0ADF  
           __CFG_MCLRE$OFF 0000            __initialization 000F               __end_of_main 0662  
             __end_of_init 093C                     ??_ADC1 0072                     ??_ADC2 0072  
                   ??_main 0068                     ??_init 0072         __size_of_Lcd_Clear 000D  
                   _ADRESH 001E                     _ANSELH 0189                     i1l1590 08C9  
                   i1l1592 08D1                     _INTCON 000B                     u165_20 08D1  
                   u165_21 08D0                  ??_Lcd_Cmd 0072    __size_of_Lcd_Write_Char 000F  
         __end_of___xxtofl 0B9B             __CFG_PWRTE$OFF 0000                  ??___fladd 0020  
                ??___fldiv 0056                  ??___flmul 003C                  ??___flsub 007A  
                ??___fltol 0020                  ??___lwdiv 0076                  ??___lwmod 0024  
       __size_of__Umul8_16 0029                     saved_w 007E                  ??_sprintf 0029  
          Lcd_Set_Cursor@x 0077            Lcd_Set_Cursor@y 0075               ___xxtofl@arg 0022  
             ___xxtofl@exp 0021               ___xxtofl@val 0072    __end_of__initialization 001F  
        __end_of_Lcd_Clear 08BA                 ___fltol@f1 0072             __pcstackCOMMON 0070  
           _Lcd_Set_Cursor 095A                  ?_Lcd_Init 0070                 __pbssBANK0 006C  
               __pbssBANK1 00A0          __end_of__Umul8_16 09CB                 __pmaintext 0384  
               __pintentry 0004  __size_of_Lcd_Write_Number 001E  __size_of_Lcd_Write_String 0046  
   __end_of_Lcd_Set_Cursor 097E                  ?___xxtofl 0072                 ??_Lcd_Init 0075  
               __stringtab 07C8             _Lcd_Write_Char 08BA                    _Lcd_Cmd 08DD  
                  ___fladd 0D78                    ___fldiv 0B9B                    ___flmul 0023  
                  ___flsub 097E                    ___fltol 074C                    ___lwdiv 0A07  
                  ___lwmod 09CB            ?_Lcd_Set_Cursor 0075                    __ptext1 0921  
                  __ptext2 0ADF                    __ptext3 074C                    __ptext4 097E  
                  __ptext5 0D78                    __ptext6 0023                    __ptext7 09A2  
                  __ptext8 0B9B                    __ptext9 093C               __size_of_ISR 0014  
                  _dpowers 07D8                 ??___xxtofl 0076                    _sprintf 0662  
                  clrloop0 07F9     __end_of_Lcd_Write_Char 08C9       end_of_initialization 001F  
                _PORTBbits 0006                ___fladd@grs 002B              ___xxtofl@sign 0020  
                _TRISAbits 0085                ___fldiv@grs 0062                ___fldiv@rem 005B  
          ?_Lcd_Write_Char 0070          Lcd_Write_String@a 0074          Lcd_Write_String@i 0020  
              ___flmul@grs 0043                  _Lcd_Clear 08AD           _Lcd_Write_Number 093C  
         _Lcd_Write_String 0A4B        start_initialization 000F                __end_of_ISR 08DD  
        __size_of_Lcd_Init 004E   __CFG_FOSC$INTRC_NOCLKOUT 0000                 ?_Lcd_Clear 0070  
                __Umul8_16 09A2            Lcd_Write_Char@a 0073                  ___fladd@a 0076  
                ___fladd@b 0072                  ___fldiv@a 004E                  ___fldiv@b 0052  
                ___flmul@a 0038                  ___flmul@b 0034                __pbssCOMMON 007A  
                ___flsub@a 002C                  ___flsub@b 0030                  ___latbits 0002  
            __pcstackBANK0 0020          __size_of___xxtofl 00BC                   ?_Lcd_Cmd 0070  
              sprintf@flag 002D                sprintf@prec 002E           ___lwdiv@dividend 0074  
         ??_Lcd_Set_Cursor 0076                   ?___fladd 0072                   ?___fldiv 004E  
                 ?___flmul 0034                   ?___flsub 002C                   ?___fltol 0072  
               ?__Umul8_16 0072                   ?___lwdiv 0072                   ?___lwmod 0020  
                __pstrings 07C8           ___lwdiv@quotient 0077                   ?_sprintf 0026  
        interrupt_function 0004                  clear_ram0 07F8                   _PIE1bits 008C  
                 Lcd_Cmd@z 0074                   _PIR1bits 000C                ??_Lcd_Clear 0075  
               _ADCON0bits 001F                __stringbase 07D7                 _ADCON1bits 009F  
         ??_Lcd_Write_Char 0072                   _Lcd_Init 0A91   __end_of_Lcd_Write_Number 095A  
 __end_of_Lcd_Write_String 0A91           __size_of_Lcd_Cmd 0014                ??__Umul8_16 0074  
         __size_of___fladd 0288           __size_of___fldiv 01DD           __size_of___flmul 0361  
         __size_of___flsub 0024           __size_of___fltol 007C           __size_of___lwdiv 0044  
         __size_of___lwmod 003C         __end_of__stringtab 07D8                 sprintf@val 002F  
                 ___xxtofl 0ADF            ___lwdiv@divisor 0072            ___lwdiv@counter 0079  
                 __ptext10 0662                   __ptext11 09CB                   __ptext20 08F1  
                 __ptext12 0A07                   __ptext21 08C9                   __ptext13 0A4B  
                 __ptext14 08BA                   __ptext15 095A                   __ptext16 0A91  
                 __ptext17 08AD                   __ptext18 08DD                   __ptext19 0909  
        __CFG_BOR4V$BOR40V 0000              __size_of_ADC1 0018              __size_of_ADC2 0018  
         __size_of_sprintf 00EA              __size_of_main 02DE              __size_of_init 001B  
               _INTCONbits 000B                   intlevel1 0000                  sprintf@ap 002C  
                sprintf@sp 0031           ___lwmod@dividend 0022                  stringcode 07D2  
               _OSCCONbits 008F         Lcd_Set_Cursor@temp 0078     __Umul8_16@multiplicand 0072  
                 sprintf@c 0032                   sprintf@f 0026            ___lwmod@divisor 0020  
          ___lwmod@counter 0025                   stringdir 07D2                   stringtab 07C8  
            ___fladd@signs 0028               ___fladd@aexp 0029               ___fladd@bexp 002A  
     __Umul8_16@multiplier 0024        Lcd_Write_Number@var 003A        Lcd_Write_Number@str 0036  
        __Umul8_16@product 0020  
