

Microchip MPLAB XC8 Assembler V2.10 build 88905656 
                                                                                               Wed Feb 26 12:24:52 2020

Microchip MPLAB XC8 C Compiler v2.10 (Free license) build 20190730164152 Og1 
     1                           	processor	16F887
     2                           	opt	pw 120
     3                           	opt	flic
     4                           	psect	strings,global,class=STRING,delta=2
     5                           	psect	cinit,global,class=CODE,merge=1,delta=2
     6                           	psect	bssBANK0,global,class=BANK0,space=1,delta=1
     7                           	psect	bssBANK1,global,class=BANK1,space=1,delta=1
     8                           	psect	cstackCOMMON,global,class=COMMON,space=1,delta=1
     9                           	psect	cstackBANK0,global,class=BANK0,space=1,delta=1
    10                           	psect	maintext,global,class=CODE,split=1,delta=2
    11                           	psect	text1,local,class=CODE,merge=1,delta=2
    12                           	psect	text2,local,class=CODE,merge=1,delta=2
    13                           	psect	text3,local,class=CODE,merge=1,delta=2,group=1
    14                           	psect	text4,local,class=CODE,merge=1,delta=2,group=1
    15                           	psect	text5,local,class=CODE,merge=1,delta=2,group=1
    16                           	psect	text6,local,class=CODE,merge=1,delta=2,group=1
    17                           	psect	text7,local,class=CODE,merge=1,delta=2,group=1
    18                           	psect	text8,local,class=CODE,merge=1,delta=2,group=1
    19                           	psect	text9,local,class=CODE,merge=1,delta=2,group=1
    20                           	psect	text10,local,class=CODE,merge=1,delta=2,group=1
    21                           	psect	text11,local,class=CODE,merge=1,delta=2
    22                           	psect	text12,local,class=CODE,merge=1,delta=2
    23                           	psect	text13,local,class=CODE,merge=1,delta=2,group=1
    24                           	psect	text14,local,class=CODE,merge=1,delta=2,group=1
    25                           	psect	text15,local,class=CODE,merge=1,delta=2
    26                           	psect	text16,local,class=CODE,merge=1,delta=2
    27                           	psect	text17,local,class=CODE,merge=1,delta=2
    28                           	psect	text18,local,class=CODE,merge=1,delta=2
    29                           	psect	text19,local,class=CODE,merge=1,delta=2
    30                           	psect	text20,local,class=CODE,merge=1,delta=2
    31                           	psect	text21,local,class=CODE,merge=1,delta=2
    32                           	psect	text22,local,class=CODE,merge=1,delta=2
    33                           	psect	text23,local,class=CODE,merge=1,delta=2
    34                           	psect	text24,local,class=CODE,merge=1,delta=2
    35                           	psect	text25,local,class=CODE,merge=1,delta=2
    36                           	psect	text26,local,class=CODE,merge=1,delta=2
    37                           	psect	text27,local,class=CODE,merge=1,delta=2,group=1
    38                           	dabs	1,0x7E,2
    39  0000                     
    40                           ; Version 2.10
    41                           ; Generated 31/07/2019 GMT
    42                           ; 
    43                           ; Copyright © 2019, Microchip Technology Inc. and its subsidiaries ("Microchip")
    44                           ; All rights reserved.
    45                           ; 
    46                           ; This software is developed by Microchip Technology Inc. and its subsidiaries ("Microch
      +                          ip").
    47                           ; 
    48                           ; Redistribution and use in source and binary forms, with or without modification, are
    49                           ; permitted provided that the following conditions are met:
    50                           ; 
    51                           ;     1. Redistributions of source code must retain the above copyright notice, this lis
      +                          t of
    52                           ;        conditions and the following disclaimer.
    53                           ; 
    54                           ;     2. Redistributions in binary form must reproduce the above copyright notice, this 
      +                          list
    55                           ;        of conditions and the following disclaimer in the documentation and/or other
    56                           ;        materials provided with the distribution.
    57                           ; 
    58                           ;     3. Microchip's name may not be used to endorse or promote products derived from th
      +                          is
    59                           ;        software without specific prior written permission.
    60                           ; 
    61                           ; THIS SOFTWARE IS PROVIDED BY MICROCHIP "AS IS" AND ANY EXPRESS OR IMPLIED WARRANTIES,
    62                           ; INCLUDING, BUT NOT LIMITED TO, THE IMPLIED WARRANTIES OF MERCHANTABILITY AND FITNESS F
      +                          OR
    63                           ; PURPOSE ARE DISCLAIMED.  IN NO EVENT SHALL MICROCHIP BE LIABLE FOR ANY DIRECT, INDIREC
      +                          T,
    64                           ; INCIDENTAL, SPECIAL, EXEMPLARY, OR CONSEQUENTIAL DAMAGES (INCLUDING BUT NOT LIMITED TO
    65                           ; PROCUREMENT OF SUBSTITUTE GOODS OR SERVICES; LOSS OF USE, DATA OR PROFITS; OR BUSINESS
    66                           ; INTERRUPTION) HOWSOEVER CAUSED AND ON ANY THEORY OF LIABILITY, WHETHER IN CONTRACT, ST
      +                          RICT
    67                           ; LIABILITY, OR TORT (INCLUDING NEGLIGENCE OR OTHERWISE) ARISING IN ANY WAY OUT OF THE U
      +                          SE OF
    68                           ; THIS SOFTWARE, EVEN IF ADVISED OF THE POSSIBILITY OF SUCH DAMAGE.
    69                           ; 
    70                           ; 
    71                           ; Code-generator required, PIC16F887 Definitions
    72                           ; 
    73                           ; SFR Addresses
    74  0000                     	;# 
    75  0001                     	;# 
    76  0002                     	;# 
    77  0003                     	;# 
    78  0004                     	;# 
    79  0005                     	;# 
    80  0006                     	;# 
    81  0007                     	;# 
    82  0008                     	;# 
    83  0009                     	;# 
    84  000A                     	;# 
    85  000B                     	;# 
    86  000C                     	;# 
    87  000D                     	;# 
    88  000E                     	;# 
    89  000E                     	;# 
    90  000F                     	;# 
    91  0010                     	;# 
    92  0011                     	;# 
    93  0012                     	;# 
    94  0013                     	;# 
    95  0014                     	;# 
    96  0015                     	;# 
    97  0015                     	;# 
    98  0016                     	;# 
    99  0017                     	;# 
   100  0018                     	;# 
   101  0019                     	;# 
   102  001A                     	;# 
   103  001B                     	;# 
   104  001B                     	;# 
   105  001C                     	;# 
   106  001D                     	;# 
   107  001E                     	;# 
   108  001F                     	;# 
   109  0081                     	;# 
   110  0085                     	;# 
   111  0086                     	;# 
   112  0087                     	;# 
   113  0088                     	;# 
   114  0089                     	;# 
   115  008C                     	;# 
   116  008D                     	;# 
   117  008E                     	;# 
   118  008F                     	;# 
   119  0090                     	;# 
   120  0091                     	;# 
   121  0092                     	;# 
   122  0093                     	;# 
   123  0093                     	;# 
   124  0093                     	;# 
   125  0094                     	;# 
   126  0095                     	;# 
   127  0096                     	;# 
   128  0097                     	;# 
   129  0098                     	;# 
   130  0099                     	;# 
   131  009A                     	;# 
   132  009B                     	;# 
   133  009C                     	;# 
   134  009D                     	;# 
   135  009E                     	;# 
   136  009F                     	;# 
   137  0105                     	;# 
   138  0107                     	;# 
   139  0108                     	;# 
   140  0109                     	;# 
   141  010C                     	;# 
   142  010C                     	;# 
   143  010D                     	;# 
   144  010E                     	;# 
   145  010F                     	;# 
   146  0185                     	;# 
   147  0187                     	;# 
   148  0188                     	;# 
   149  0189                     	;# 
   150  018C                     	;# 
   151  018D                     	;# 
   152  0000                     	;# 
   153  0001                     	;# 
   154  0002                     	;# 
   155  0003                     	;# 
   156  0004                     	;# 
   157  0005                     	;# 
   158  0006                     	;# 
   159  0007                     	;# 
   160  0008                     	;# 
   161  0009                     	;# 
   162  000A                     	;# 
   163  000B                     	;# 
   164  000C                     	;# 
   165  000D                     	;# 
   166  000E                     	;# 
   167  000E                     	;# 
   168  000F                     	;# 
   169  0010                     	;# 
   170  0011                     	;# 
   171  0012                     	;# 
   172  0013                     	;# 
   173  0014                     	;# 
   174  0015                     	;# 
   175  0015                     	;# 
   176  0016                     	;# 
   177  0017                     	;# 
   178  0018                     	;# 
   179  0019                     	;# 
   180  001A                     	;# 
   181  001B                     	;# 
   182  001B                     	;# 
   183  001C                     	;# 
   184  001D                     	;# 
   185  001E                     	;# 
   186  001F                     	;# 
   187  0081                     	;# 
   188  0085                     	;# 
   189  0086                     	;# 
   190  0087                     	;# 
   191  0088                     	;# 
   192  0089                     	;# 
   193  008C                     	;# 
   194  008D                     	;# 
   195  008E                     	;# 
   196  008F                     	;# 
   197  0090                     	;# 
   198  0091                     	;# 
   199  0092                     	;# 
   200  0093                     	;# 
   201  0093                     	;# 
   202  0093                     	;# 
   203  0094                     	;# 
   204  0095                     	;# 
   205  0096                     	;# 
   206  0097                     	;# 
   207  0098                     	;# 
   208  0099                     	;# 
   209  009A                     	;# 
   210  009B                     	;# 
   211  009C                     	;# 
   212  009D                     	;# 
   213  009E                     	;# 
   214  009F                     	;# 
   215  0105                     	;# 
   216  0107                     	;# 
   217  0108                     	;# 
   218  0109                     	;# 
   219  010C                     	;# 
   220  010C                     	;# 
   221  010D                     	;# 
   222  010E                     	;# 
   223  010F                     	;# 
   224  0185                     	;# 
   225  0187                     	;# 
   226  0188                     	;# 
   227  0189                     	;# 
   228  018C                     	;# 
   229  018D                     	;# 
   230  0000                     	;# 
   231  0001                     	;# 
   232  0002                     	;# 
   233  0003                     	;# 
   234  0004                     	;# 
   235  0005                     	;# 
   236  0006                     	;# 
   237  0007                     	;# 
   238  0008                     	;# 
   239  0009                     	;# 
   240  000A                     	;# 
   241  000B                     	;# 
   242  000C                     	;# 
   243  000D                     	;# 
   244  000E                     	;# 
   245  000E                     	;# 
   246  000F                     	;# 
   247  0010                     	;# 
   248  0011                     	;# 
   249  0012                     	;# 
   250  0013                     	;# 
   251  0014                     	;# 
   252  0015                     	;# 
   253  0015                     	;# 
   254  0016                     	;# 
   255  0017                     	;# 
   256  0018                     	;# 
   257  0019                     	;# 
   258  001A                     	;# 
   259  001B                     	;# 
   260  001B                     	;# 
   261  001C                     	;# 
   262  001D                     	;# 
   263  001E                     	;# 
   264  001F                     	;# 
   265  0081                     	;# 
   266  0085                     	;# 
   267  0086                     	;# 
   268  0087                     	;# 
   269  0088                     	;# 
   270  0089                     	;# 
   271  008C                     	;# 
   272  008D                     	;# 
   273  008E                     	;# 
   274  008F                     	;# 
   275  0090                     	;# 
   276  0091                     	;# 
   277  0092                     	;# 
   278  0093                     	;# 
   279  0093                     	;# 
   280  0093                     	;# 
   281  0094                     	;# 
   282  0095                     	;# 
   283  0096                     	;# 
   284  0097                     	;# 
   285  0098                     	;# 
   286  0099                     	;# 
   287  009A                     	;# 
   288  009B                     	;# 
   289  009C                     	;# 
   290  009D                     	;# 
   291  009E                     	;# 
   292  009F                     	;# 
   293  0105                     	;# 
   294  0107                     	;# 
   295  0108                     	;# 
   296  0109                     	;# 
   297  010C                     	;# 
   298  010C                     	;# 
   299  010D                     	;# 
   300  010E                     	;# 
   301  010F                     	;# 
   302  0185                     	;# 
   303  0187                     	;# 
   304  0188                     	;# 
   305  0189                     	;# 
   306  018C                     	;# 
   307  018D                     	;# 
   308  0000                     	;# 
   309  0001                     	;# 
   310  0002                     	;# 
   311  0003                     	;# 
   312  0004                     	;# 
   313  0005                     	;# 
   314  0006                     	;# 
   315  0007                     	;# 
   316  0008                     	;# 
   317  0009                     	;# 
   318  000A                     	;# 
   319  000B                     	;# 
   320  000C                     	;# 
   321  000D                     	;# 
   322  000E                     	;# 
   323  000E                     	;# 
   324  000F                     	;# 
   325  0010                     	;# 
   326  0011                     	;# 
   327  0012                     	;# 
   328  0013                     	;# 
   329  0014                     	;# 
   330  0015                     	;# 
   331  0015                     	;# 
   332  0016                     	;# 
   333  0017                     	;# 
   334  0018                     	;# 
   335  0019                     	;# 
   336  001A                     	;# 
   337  001B                     	;# 
   338  001B                     	;# 
   339  001C                     	;# 
   340  001D                     	;# 
   341  001E                     	;# 
   342  001F                     	;# 
   343  0081                     	;# 
   344  0085                     	;# 
   345  0086                     	;# 
   346  0087                     	;# 
   347  0088                     	;# 
   348  0089                     	;# 
   349  008C                     	;# 
   350  008D                     	;# 
   351  008E                     	;# 
   352  008F                     	;# 
   353  0090                     	;# 
   354  0091                     	;# 
   355  0092                     	;# 
   356  0093                     	;# 
   357  0093                     	;# 
   358  0093                     	;# 
   359  0094                     	;# 
   360  0095                     	;# 
   361  0096                     	;# 
   362  0097                     	;# 
   363  0098                     	;# 
   364  0099                     	;# 
   365  009A                     	;# 
   366  009B                     	;# 
   367  009C                     	;# 
   368  009D                     	;# 
   369  009E                     	;# 
   370  009F                     	;# 
   371  0105                     	;# 
   372  0107                     	;# 
   373  0108                     	;# 
   374  0109                     	;# 
   375  010C                     	;# 
   376  010C                     	;# 
   377  010D                     	;# 
   378  010E                     	;# 
   379  010F                     	;# 
   380  0185                     	;# 
   381  0187                     	;# 
   382  0188                     	;# 
   383  0189                     	;# 
   384  018C                     	;# 
   385  018D                     	;# 
   386                           
   387                           	psect	strings
   388  0800                     __pstrings:	
   389  0800                     stringtab:	
   390  0800                     __stringtab:	
   391                           
   392                           ;	String table - string pointers are 1 byte each
   393  0800  1BFF               	btfsc	btemp+1,7
   394  0801  280A               	ljmp	stringcode
   395  0802  1383               	bcf	3,7
   396  0803  187F               	btfsc	btemp+1,0
   397  0804  1783               	bsf	3,7
   398  0805  0800               	movf	0,w
   399  0806  0A84               	incf	4,f
   400  0807  1903               	skipnz
   401  0808  0AFF               	incf	btemp+1,f
   402  0809  0008               	return
   403  080A                     stringcode:	
   404  080A                     stringdir:	
   405  080A  3008               	movlw	high stringdir
   406  080B  008A               	movwf	10
   407  080C  0804               	movf	4,w
   408  080D  0A84               	incf	4,f
   409  080E  0782               	addwf	2,f
   410  080F                     __stringbase:	
   411  080F  3400               	retlw	0
   412  0810                     __end_of__stringtab:	
   413  0810                     _dpowers:	
   414  0810  3401               	retlw	1
   415  0811  3400               	retlw	0
   416  0812  340A               	retlw	10
   417  0813  3400               	retlw	0
   418  0814  3464               	retlw	100
   419  0815  3400               	retlw	0
   420  0816  34E8               	retlw	232
   421  0817  3403               	retlw	3
   422  0818  3410               	retlw	16
   423  0819  3427               	retlw	39
   424  081A                     __end_of_dpowers:	
   425  0006                     _PORTBbits	set	6
   426  0013                     _SSPBUF	set	19
   427  0014                     _SSPCON	set	20
   428  0008                     _PORTD	set	8
   429  0006                     _PORTB	set	6
   430  0063                     _SSPIF	set	99
   431  005E                     _PEIE	set	94
   432  005F                     _GIE	set	95
   433  0091                     _SSPCON2bits	set	145
   434  0087                     _TRISCbits	set	135
   435  0094                     _SSPSTAT	set	148
   436  0093                     _SSPADD	set	147
   437  0091                     _SSPCON2	set	145
   438  0088                     _TRISD	set	136
   439  0086                     _TRISB	set	134
   440  0463                     _SSPIE	set	1123
   441  043C                     _TRISC4	set	1084
   442  043B                     _TRISC3	set	1083
   443  0189                     _ANSELH	set	393
   444  0188                     _ANSEL	set	392
   445  081A                     STR_3:	
   446  081A  3454               	retlw	84	;'T'
   447  081B  3449               	retlw	73	;'I'
   448  081C  344D               	retlw	77	;'M'
   449  081D  3445               	retlw	69	;'E'
   450  081E  3400               	retlw	0
   451  081F                     STR_2:	
   452  081F  3443               	retlw	67	;'C'
   453  0820  344F               	retlw	79	;'O'
   454  0821  344E               	retlw	78	;'N'
   455  0822  3454               	retlw	84	;'T'
   456  0823  3400               	retlw	0
   457  0824                     STR_1:	
   458  0824  3441               	retlw	65	;'A'
   459  0825  3444               	retlw	68	;'D'
   460  0826  3443               	retlw	67	;'C'
   461  0827  3400               	retlw	0
   462  0828                     STR_7:	
   463  0828  3425               	retlw	37	;'%'
   464  0829  3464               	retlw	100	;'d'
   465  082A  3400               	retlw	0
   466  082B                     STR_4:	
   467  082B  342E               	retlw	46	;'.'
   468  082C  3400               	retlw	0
   469  082D                     STR_5:	
   470  082D  3430               	retlw	48	;'0'
   471  082E  3400               	retlw	0
   472  082F                     STR_6:	
   473  082F  343A               	retlw	58	;':'
   474  0830  3400               	retlw	0
   475                           
   476                           ; #config settings
   477  0000                     
   478                           	psect	cinit
   479  07EB                     start_initialization:	
   480  07EB                     __initialization:	
   481                           
   482                           ; Clear objects allocated to BANK0
   483  07EB  1283               	bcf	3,5	;RP0=0, select bank0
   484  07EC  1303               	bcf	3,6	;RP1=0, select bank0
   485  07ED  01E8               	clrf	__pbssBANK0& (0+127)
   486  07EE  01E9               	clrf	(__pbssBANK0+1)& (0+127)
   487  07EF  01EA               	clrf	(__pbssBANK0+2)& (0+127)
   488  07F0  01EB               	clrf	(__pbssBANK0+3)& (0+127)
   489  07F1  01EC               	clrf	(__pbssBANK0+4)& (0+127)
   490                           
   491                           ; Clear objects allocated to BANK1
   492  07F2  1683               	bsf	3,5	;RP0=1, select bank1
   493  07F3  1303               	bcf	3,6	;RP1=0, select bank1
   494  07F4  01A0               	clrf	__pbssBANK1& (0+127)
   495  07F5  01A1               	clrf	(__pbssBANK1+1)& (0+127)
   496  07F6  01A2               	clrf	(__pbssBANK1+2)& (0+127)
   497  07F7  01A3               	clrf	(__pbssBANK1+3)& (0+127)
   498  07F8  01A4               	clrf	(__pbssBANK1+4)& (0+127)
   499  07F9  01A5               	clrf	(__pbssBANK1+5)& (0+127)
   500  07FA  01A6               	clrf	(__pbssBANK1+6)& (0+127)
   501  07FB  01A7               	clrf	(__pbssBANK1+7)& (0+127)
   502  07FC                     end_of_initialization:	
   503                           ;End of C runtime variable initialization code
   504                           
   505  07FC                     __end_of__initialization:	
   506  07FC  0183               	clrf	3
   507  07FD  120A  118A  29E7   	ljmp	_main	;jump to C main() function
   508                           
   509                           	psect	bssBANK0
   510  0068                     __pbssBANK0:	
   511  0068                     _minutos:	
   512  0068                     	ds	1
   513  0069                     _segundos:	
   514  0069                     	ds	1
   515  006A                     _dec1:	
   516  006A                     	ds	1
   517  006B                     _ent1:	
   518  006B                     	ds	1
   519  006C                     _pvtoelquelolea:	
   520  006C                     	ds	1
   521                           
   522                           	psect	bssBANK1
   523  00A0                     __pbssBANK1:	
   524  00A0                     _deci1:	
   525  00A0                     	ds	4
   526  00A4                     _adc1:	
   527  00A4                     	ds	4
   528                           
   529                           	psect	cstackCOMMON
   530  0070                     __pcstackCOMMON:	
   531  0070                     ?_setup:	
   532  0070                     ?_Lcd_Init:	
   533                           ; 1 bytes @ 0x0
   534                           
   535  0070                     ?_Lcd_Clear:	
   536                           ; 1 bytes @ 0x0
   537                           
   538  0070                     ?_I2C_Master_Start:	
   539                           ; 1 bytes @ 0x0
   540                           
   541  0070                     ??_I2C_Master_Start:	
   542                           ; 1 bytes @ 0x0
   543                           
   544  0070                     ?_I2C_Master_Write:	
   545                           ; 1 bytes @ 0x0
   546                           
   547  0070                     ?_I2C_Master_Stop:	
   548                           ; 1 bytes @ 0x0
   549                           
   550  0070                     ??_I2C_Master_Stop:	
   551                           ; 1 bytes @ 0x0
   552                           
   553  0070                     ?_Lcd_Write_Number:	
   554                           ; 1 bytes @ 0x0
   555                           
   556  0070                     ?_Lcd_Write_Char:	
   557                           ; 1 bytes @ 0x0
   558                           
   559  0070                     ??_Lcd_Write_Char:	
   560                           ; 1 bytes @ 0x0
   561                           
   562  0070                     ?_main:	
   563                           ; 1 bytes @ 0x0
   564                           
   565  0070                     ?_I2C_Master_Wait:	
   566                           ; 1 bytes @ 0x0
   567                           
   568  0070                     ??_I2C_Master_Wait:	
   569                           ; 1 bytes @ 0x0
   570                           
   571  0070                     ?_Lcd_Cmd:	
   572                           ; 1 bytes @ 0x0
   573                           
   574  0070                     ??_Lcd_Cmd:	
   575                           ; 1 bytes @ 0x0
   576                           
   577  0070                     ?_I2C_Master_Read:	
   578                           ; 1 bytes @ 0x0
   579                           
   580  0070                     ?__Umul8_16:	
   581                           ; 2 bytes @ 0x0
   582                           
   583  0070                     ?___wmul:	
   584                           ; 2 bytes @ 0x0
   585                           
   586  0070                     ?___lwdiv:	
   587                           ; 2 bytes @ 0x0
   588                           
   589  0070                     ?___lldiv:	
   590                           ; 2 bytes @ 0x0
   591                           
   592  0070                     ?___fltol:	
   593                           ; 4 bytes @ 0x0
   594                           
   595  0070                     ?___fladd:	
   596                           ; 4 bytes @ 0x0
   597                           
   598  0070                     __Umul8_16@multiplicand:	
   599                           ; 4 bytes @ 0x0
   600                           
   601  0070                     I2C_Master_Write@d:	
   602                           ; 1 bytes @ 0x0
   603                           
   604  0070                     I2C_Master_Read@a:	
   605                           ; 2 bytes @ 0x0
   606                           
   607  0070                     ___wmul@multiplier:	
   608                           ; 2 bytes @ 0x0
   609                           
   610  0070                     ___lwdiv@divisor:	
   611                           ; 2 bytes @ 0x0
   612                           
   613  0070                     ___lldiv@divisor:	
   614                           ; 2 bytes @ 0x0
   615                           
   616  0070                     ___fltol@f1:	
   617                           ; 4 bytes @ 0x0
   618                           
   619  0070                     ___fladd@b:	
   620                           ; 4 bytes @ 0x0
   621                           
   622                           
   623                           ; 4 bytes @ 0x0
   624  0070                     	ds	1
   625  0071                     Lcd_Write_Char@a:	
   626                           
   627                           ; 1 bytes @ 0x1
   628  0071                     	ds	1
   629  0072                     ?_Lcd_Write_String:	
   630  0072                     ??_I2C_Master_Write:	
   631                           ; 1 bytes @ 0x2
   632                           
   633  0072                     ??_I2C_Master_Read:	
   634                           ; 1 bytes @ 0x2
   635                           
   636  0072                     ??__Umul8_16:	
   637                           ; 1 bytes @ 0x2
   638                           
   639  0072                     Lcd_Cmd@z:	
   640                           ; 1 bytes @ 0x2
   641                           
   642  0072                     Lcd_Write_String@a:	
   643                           ; 1 bytes @ 0x2
   644                           
   645  0072                     ___wmul@multiplicand:	
   646                           ; 2 bytes @ 0x2
   647                           
   648  0072                     ___lwdiv@dividend:	
   649                           ; 2 bytes @ 0x2
   650                           
   651                           
   652                           ; 2 bytes @ 0x2
   653  0072                     	ds	1
   654  0073                     ??_Lcd_Init:	
   655  0073                     ??_Lcd_Clear:	
   656                           ; 1 bytes @ 0x3
   657                           
   658  0073                     ?_Lcd_Set_Cursor:	
   659                           ; 1 bytes @ 0x3
   660                           
   661  0073                     Lcd_Set_Cursor@y:	
   662                           ; 1 bytes @ 0x3
   663                           
   664                           
   665                           ; 1 bytes @ 0x3
   666  0073                     	ds	1
   667  0074                     ??_Lcd_Set_Cursor:	
   668  0074                     ??_Lcd_Write_String:	
   669                           ; 1 bytes @ 0x4
   670                           
   671  0074                     ??___wmul:	
   672                           ; 1 bytes @ 0x4
   673                           
   674  0074                     ??___fltol:	
   675                           ; 1 bytes @ 0x4
   676                           
   677  0074                     ??___lwdiv:	
   678                           ; 1 bytes @ 0x4
   679                           
   680  0074                     I2C_Master_Read@temp:	
   681                           ; 1 bytes @ 0x4
   682                           
   683  0074                     ___wmul@product:	
   684                           ; 2 bytes @ 0x4
   685                           
   686  0074                     __Umul8_16@product:	
   687                           ; 2 bytes @ 0x4
   688                           
   689  0074                     ___lldiv@dividend:	
   690                           ; 2 bytes @ 0x4
   691                           
   692  0074                     ___fladd@a:	
   693                           ; 4 bytes @ 0x4
   694                           
   695                           
   696                           ; 4 bytes @ 0x4
   697  0074                     	ds	1
   698  0075                     Lcd_Set_Cursor@x:	
   699  0075                     ___lwdiv@quotient:	
   700                           ; 1 bytes @ 0x5
   701                           
   702                           
   703                           ; 2 bytes @ 0x5
   704  0075                     	ds	1
   705  0076                     ?_BCD:	
   706  0076                     ?___xxtofl:	
   707                           ; 2 bytes @ 0x6
   708                           
   709  0076                     Lcd_Set_Cursor@temp:	
   710                           ; 4 bytes @ 0x6
   711                           
   712  0076                     BCD@to_convert:	
   713                           ; 1 bytes @ 0x6
   714                           
   715  0076                     __Umul8_16@word_mpld:	
   716                           ; 2 bytes @ 0x6
   717                           
   718  0076                     ___xxtofl@val:	
   719                           ; 2 bytes @ 0x6
   720                           
   721                           
   722                           ; 4 bytes @ 0x6
   723  0076                     	ds	1
   724  0077                     ___lwdiv@counter:	
   725  0077                     Lcd_Write_String@i:	
   726                           ; 1 bytes @ 0x7
   727                           
   728                           
   729                           ; 2 bytes @ 0x7
   730  0077                     	ds	1
   731  0078                     ??_BCD:	
   732  0078                     ??___lldiv:	
   733                           ; 1 bytes @ 0x8
   734                           
   735  0078                     ?___lwmod:	
   736                           ; 1 bytes @ 0x8
   737                           
   738  0078                     ___fladd@signs:	
   739                           ; 2 bytes @ 0x8
   740                           
   741  0078                     __Umul8_16@multiplier:	
   742                           ; 1 bytes @ 0x8
   743                           
   744  0078                     ___lwmod@divisor:	
   745                           ; 1 bytes @ 0x8
   746                           
   747                           
   748                           ; 2 bytes @ 0x8
   749  0078                     	ds	1
   750  0079                     ___fltol@sign1:	
   751  0079                     ___fladd@aexp:	
   752                           ; 1 bytes @ 0x9
   753                           
   754  0079                     ___lldiv@quotient:	
   755                           ; 1 bytes @ 0x9
   756                           
   757                           
   758                           ; 4 bytes @ 0x9
   759  0079                     	ds	1
   760  007A                     ??___xxtofl:	
   761  007A                     ___fltol@exp1:	
   762                           ; 1 bytes @ 0xA
   763                           
   764  007A                     ___fladd@bexp:	
   765                           ; 1 bytes @ 0xA
   766                           
   767  007A                     ___lwmod@dividend:	
   768                           ; 1 bytes @ 0xA
   769                           
   770                           
   771                           ; 2 bytes @ 0xA
   772  007A                     	ds	1
   773  007B                     ___fladd@grs:	
   774                           
   775                           ; 1 bytes @ 0xB
   776  007B                     	ds	1
   777  007C                     ??___lwmod:	
   778                           
   779                           ; 1 bytes @ 0xC
   780  007C                     	ds	1
   781  007D                     ___lldiv@counter:	
   782  007D                     ___lwmod@counter:	
   783                           ; 1 bytes @ 0xD
   784                           
   785                           
   786                           ; 1 bytes @ 0xD
   787  007D                     	ds	1
   788  007E                     ??_setup:	
   789  007E                     ??___flsub:	
   790                           ; 1 bytes @ 0xE
   791                           
   792                           
   793                           	psect	cstackBANK0
   794  0020                     __pcstackBANK0:	
   795                           ; 1 bytes @ 0xE
   796                           
   797  0020                     ?_I2C_Master_Init:	
   798  0020                     ??___fladd:	
   799                           ; 1 bytes @ 0x0
   800                           
   801  0020                     ?_sprintf:	
   802                           ; 1 bytes @ 0x0
   803                           
   804  0020                     sprintf@f:	
   805                           ; 2 bytes @ 0x0
   806                           
   807  0020                     ___xxtofl@sign:	
   808                           ; 1 bytes @ 0x0
   809                           
   810  0020                     I2C_Master_Init@c:	
   811                           ; 1 bytes @ 0x0
   812                           
   813                           
   814                           ; 4 bytes @ 0x0
   815  0020                     	ds	1
   816  0021                     ___xxtofl@exp:	
   817                           
   818                           ; 1 bytes @ 0x1
   819  0021                     	ds	1
   820  0022                     ___xxtofl@arg:	
   821                           
   822                           ; 4 bytes @ 0x2
   823  0022                     	ds	1
   824  0023                     ??_sprintf:	
   825                           
   826                           ; 1 bytes @ 0x3
   827  0023                     	ds	1
   828  0024                     ??_I2C_Master_Init:	
   829                           
   830                           ; 1 bytes @ 0x4
   831  0024                     	ds	2
   832  0026                     sprintf@ap:	
   833                           
   834                           ; 1 bytes @ 0x6
   835  0026                     	ds	1
   836  0027                     sprintf@flag:	
   837                           
   838                           ; 1 bytes @ 0x7
   839  0027                     	ds	1
   840  0028                     ?___flsub:	
   841  0028                     sprintf@prec:	
   842                           ; 4 bytes @ 0x8
   843                           
   844  0028                     ___flsub@a:	
   845                           ; 1 bytes @ 0x8
   846                           
   847                           
   848                           ; 4 bytes @ 0x8
   849  0028                     	ds	1
   850  0029                     sprintf@val:	
   851                           
   852                           ; 2 bytes @ 0x9
   853  0029                     	ds	2
   854  002B                     sprintf@sp:	
   855                           
   856                           ; 1 bytes @ 0xB
   857  002B                     	ds	1
   858  002C                     sprintf@c:	
   859  002C                     ___flsub@b:	
   860                           ; 1 bytes @ 0xC
   861                           
   862                           
   863                           ; 4 bytes @ 0xC
   864  002C                     	ds	1
   865  002D                     ??_Lcd_Write_Number:	
   866                           
   867                           ; 1 bytes @ 0xD
   868  002D                     	ds	3
   869  0030                     ?___flmul:	
   870  0030                     Lcd_Write_Number@str:	
   871                           ; 4 bytes @ 0x10
   872                           
   873  0030                     ___flmul@b:	
   874                           ; 4 bytes @ 0x10
   875                           
   876                           
   877                           ; 4 bytes @ 0x10
   878  0030                     	ds	4
   879  0034                     Lcd_Write_Number@var:	
   880  0034                     ___flmul@a:	
   881                           ; 1 bytes @ 0x14
   882                           
   883                           
   884                           ; 4 bytes @ 0x14
   885  0034                     	ds	4
   886  0038                     ??___flmul:	
   887                           
   888                           ; 1 bytes @ 0x18
   889  0038                     	ds	5
   890  003D                     ___flmul@sign:	
   891                           
   892                           ; 1 bytes @ 0x1D
   893  003D                     	ds	1
   894  003E                     ___flmul@grs:	
   895                           
   896                           ; 4 bytes @ 0x1E
   897  003E                     	ds	4
   898  0042                     ___flmul@aexp:	
   899                           
   900                           ; 1 bytes @ 0x22
   901  0042                     	ds	1
   902  0043                     ___flmul@bexp:	
   903                           
   904                           ; 1 bytes @ 0x23
   905  0043                     	ds	1
   906  0044                     ___flmul@prod:	
   907                           
   908                           ; 4 bytes @ 0x24
   909  0044                     	ds	4
   910  0048                     ___flmul@temp:	
   911                           
   912                           ; 2 bytes @ 0x28
   913  0048                     	ds	2
   914  004A                     ?___fldiv:	
   915  004A                     ___fldiv@a:	
   916                           ; 4 bytes @ 0x2A
   917                           
   918                           
   919                           ; 4 bytes @ 0x2A
   920  004A                     	ds	4
   921  004E                     ___fldiv@b:	
   922                           
   923                           ; 4 bytes @ 0x2E
   924  004E                     	ds	4
   925  0052                     ??___fldiv:	
   926                           
   927                           ; 1 bytes @ 0x32
   928  0052                     	ds	5
   929  0057                     ___fldiv@rem:	
   930                           
   931                           ; 4 bytes @ 0x37
   932  0057                     	ds	4
   933  005B                     ___fldiv@sign:	
   934                           
   935                           ; 1 bytes @ 0x3B
   936  005B                     	ds	1
   937  005C                     ___fldiv@new_exp:	
   938                           
   939                           ; 2 bytes @ 0x3C
   940  005C                     	ds	2
   941  005E                     ___fldiv@grs:	
   942                           
   943                           ; 4 bytes @ 0x3E
   944  005E                     	ds	4
   945  0062                     ___fldiv@bexp:	
   946                           
   947                           ; 1 bytes @ 0x42
   948  0062                     	ds	1
   949  0063                     ___fldiv@aexp:	
   950                           
   951                           ; 1 bytes @ 0x43
   952  0063                     	ds	1
   953  0064                     ??_main:	
   954                           
   955                           ; 1 bytes @ 0x44
   956  0064                     	ds	4
   957                           
   958                           	psect	maintext
   959  01E7                     __pmaintext:	
   960 ;;
   961 ;;Main: autosize = 0, tempsize = 4, incstack = 0, save=0
   962 ;;
   963 ;; *************** function _main *****************
   964 ;; Defined at:
   965 ;;		line 59 in file "I2CM.c"
   966 ;; Parameters:    Size  Location     Type
   967 ;;		None
   968 ;; Auto vars:     Size  Location     Type
   969 ;;		None
   970 ;; Return value:  Size  Location     Type
   971 ;;                  1    wreg      void 
   972 ;; Registers used:
   973 ;;		wreg, fsr0l, fsr0h, status,2, status,0, btemp+1, pclath, cstack
   974 ;; Tracked objects:
   975 ;;		On entry : B00/0
   976 ;;		On exit  : 0/0
   977 ;;		Unchanged: 0/0
   978 ;; Data sizes:     COMMON   BANK0   BANK1   BANK3   BANK2
   979 ;;      Params:         0       0       0       0       0
   980 ;;      Locals:         0       0       0       0       0
   981 ;;      Temps:          0       4       0       0       0
   982 ;;      Totals:         0       4       0       0       0
   983 ;;Total ram usage:        4 bytes
   984 ;; Hardware stack levels required when called:    3
   985 ;; This function calls:
   986 ;;		_BCD
   987 ;;		_I2C_Master_Read
   988 ;;		_I2C_Master_Start
   989 ;;		_I2C_Master_Stop
   990 ;;		_I2C_Master_Write
   991 ;;		_Lcd_Clear
   992 ;;		_Lcd_Init
   993 ;;		_Lcd_Set_Cursor
   994 ;;		_Lcd_Write_Char
   995 ;;		_Lcd_Write_Number
   996 ;;		_Lcd_Write_String
   997 ;;		___fldiv
   998 ;;		___flmul
   999 ;;		___flsub
  1000 ;;		___fltol
  1001 ;;		___xxtofl
  1002 ;;		_setup
  1003 ;; This function is called by:
  1004 ;;		Startup code after reset
  1005 ;; This function uses a non-reentrant model
  1006 ;;
  1007                           
  1008                           
  1009                           ;psect for function _main
  1010  01E7                     _main:	
  1011  01E7                     l2570:	
  1012                           ;incstack = 0
  1013                           ; Regs used in _main: [wreg-fsr0h+status,2+status,0+btemp+1+pclath+cstack]
  1014                           
  1015                           
  1016                           ;I2CM.c: 60:     setup();
  1017  01E7  120A  158A  207F  120A  118A  	fcall	_setup
  1018                           
  1019                           ;I2CM.c: 61:     Lcd_Init();
  1020  01EC  120A  158A  2296  120A  118A  	fcall	_Lcd_Init
  1021                           
  1022                           ;I2CM.c: 62:     Lcd_Clear();
  1023  01F1  120A  158A  204F  120A  118A  	fcall	_Lcd_Clear
  1024                           
  1025                           ;I2CM.c: 63:     Lcd_Set_Cursor(1, 1);
  1026  01F6  01F3               	clrf	Lcd_Set_Cursor@y
  1027  01F7  0AF3               	incf	Lcd_Set_Cursor@y,f
  1028  01F8  3001               	movlw	1
  1029  01F9  120A  158A  20B7  120A  118A  	fcall	_Lcd_Set_Cursor
  1030  01FE                     l2572:	
  1031                           
  1032                           ;I2CM.c: 64:     Lcd_Write_String("ADC");
  1033  01FE  3015               	movlw	(low ((STR_1-__stringbase)| (0+32768)))& (0+255)
  1034  01FF  00F2               	movwf	Lcd_Write_String@a
  1035  0200  3080               	movlw	128
  1036  0201  00F3               	movwf	Lcd_Write_String@a+1
  1037  0202  120A  158A  2210  120A  118A  	fcall	_Lcd_Write_String
  1038  0207                     l2574:	
  1039                           
  1040                           ;I2CM.c: 65:     Lcd_Set_Cursor(1, 6);
  1041  0207  3006               	movlw	6
  1042  0208  1283               	bcf	3,5	;RP0=0, select bank0
  1043  0209  1303               	bcf	3,6	;RP1=0, select bank0
  1044  020A  00E4               	movwf	??_main
  1045  020B  0864               	movf	??_main,w
  1046  020C  00F3               	movwf	Lcd_Set_Cursor@y
  1047  020D  3001               	movlw	1
  1048  020E  120A  158A  20B7  120A  118A  	fcall	_Lcd_Set_Cursor
  1049                           
  1050                           ;I2CM.c: 66:     Lcd_Write_String("CONT");
  1051  0213  3010               	movlw	(low ((STR_2-__stringbase)| (0+32768)))& (0+255)
  1052  0214  00F2               	movwf	Lcd_Write_String@a
  1053  0215  3080               	movlw	128
  1054  0216  00F3               	movwf	Lcd_Write_String@a+1
  1055  0217  120A  158A  2210  120A  118A  	fcall	_Lcd_Write_String
  1056  021C                     l2576:	
  1057                           
  1058                           ;I2CM.c: 67:     Lcd_Set_Cursor(1, 11);
  1059  021C  300B               	movlw	11
  1060  021D  1283               	bcf	3,5	;RP0=0, select bank0
  1061  021E  1303               	bcf	3,6	;RP1=0, select bank0
  1062  021F  00E4               	movwf	??_main
  1063  0220  0864               	movf	??_main,w
  1064  0221  00F3               	movwf	Lcd_Set_Cursor@y
  1065  0222  3001               	movlw	1
  1066  0223  120A  158A  20B7  120A  118A  	fcall	_Lcd_Set_Cursor
  1067  0228                     l2578:	
  1068                           
  1069                           ;I2CM.c: 68:     Lcd_Write_String("TIME");
  1070  0228  300B               	movlw	(low ((STR_3-__stringbase)| (0+32768)))& (0+255)
  1071  0229  00F2               	movwf	Lcd_Write_String@a
  1072  022A  3080               	movlw	128
  1073  022B  00F3               	movwf	Lcd_Write_String@a+1
  1074  022C  120A  158A  2210  120A  118A  	fcall	_Lcd_Write_String
  1075  0231                     l60:	
  1076                           ;I2CM.c: 69:     while(1){
  1077                           
  1078                           
  1079                           ;I2CM.c: 70:         I2C_Master_Start();
  1080  0231  160A  118A  27EE  120A  118A  	fcall	_I2C_Master_Start
  1081                           
  1082                           ;I2CM.c: 71:         I2C_Master_Write(0x51);
  1083  0236  3051               	movlw	81
  1084  0237  00F0               	movwf	I2C_Master_Write@d
  1085  0238  3000               	movlw	0
  1086  0239  00F1               	movwf	I2C_Master_Write@d+1
  1087  023A  120A  158A  2038  120A  118A  	fcall	_I2C_Master_Write
  1088                           
  1089                           ;I2CM.c: 72:         adc1 = I2C_Master_Read(0);
  1090  023F  3000               	movlw	0
  1091  0240  00F0               	movwf	I2C_Master_Read@a
  1092  0241  00F1               	movwf	I2C_Master_Read@a+1
  1093  0242  120A  158A  2170  120A  118A  	fcall	_I2C_Master_Read
  1094  0247  0870               	movf	?_I2C_Master_Read,w
  1095  0248  1283               	bcf	3,5	;RP0=0, select bank0
  1096  0249  1303               	bcf	3,6	;RP1=0, select bank0
  1097  024A  00E4               	movwf	??_main
  1098  024B  0871               	movf	?_I2C_Master_Read+1,w
  1099  024C  00E5               	movwf	??_main+1
  1100  024D  01E6               	clrf	??_main+2
  1101  024E  01E7               	clrf	??_main+3
  1102  024F  0867               	movf	??_main+3,w
  1103  0250  00F9               	movwf	___xxtofl@val+3
  1104  0251  0866               	movf	??_main+2,w
  1105  0252  00F8               	movwf	___xxtofl@val+2
  1106  0253  0865               	movf	??_main+1,w
  1107  0254  00F7               	movwf	___xxtofl@val+1
  1108  0255  0864               	movf	??_main,w
  1109  0256  00F6               	movwf	___xxtofl@val
  1110  0257  3000               	movlw	0
  1111  0258  120A  158A  23C4  120A  118A  	fcall	___xxtofl
  1112  025D  0879               	movf	?___xxtofl+3,w
  1113  025E  1683               	bsf	3,5	;RP0=1, select bank1
  1114  025F  1303               	bcf	3,6	;RP1=0, select bank1
  1115  0260  00A7               	movwf	(_adc1+3)^(0+128)
  1116  0261  0878               	movf	?___xxtofl+2,w
  1117  0262  00A6               	movwf	(_adc1+2)^(0+128)
  1118  0263  0877               	movf	?___xxtofl+1,w
  1119  0264  00A5               	movwf	(_adc1+1)^(0+128)
  1120  0265  0876               	movf	?___xxtofl,w
  1121  0266  00A4               	movwf	_adc1^(0+128)
  1122                           
  1123                           ;I2CM.c: 73:         I2C_Master_Stop();
  1124  0267  160A  118A  27F7  120A  118A  	fcall	_I2C_Master_Stop
  1125  026C                     l2580:	
  1126                           
  1127                           ;I2CM.c: 74:         _delay((unsigned long)((10)*(4000000/4000.0)));
  1128  026C  300D               	movlw	13
  1129  026D  1283               	bcf	3,5	;RP0=0, select bank0
  1130  026E  1303               	bcf	3,6	;RP1=0, select bank0
  1131  026F  00E5               	movwf	??_main+1
  1132  0270  30FB               	movlw	251
  1133  0271  00E4               	movwf	??_main
  1134  0272                     u3617:	
  1135  0272  0BE4               	decfsz	??_main,f
  1136  0273  2A72               	goto	u3617
  1137  0274  0BE5               	decfsz	??_main+1,f
  1138  0275  2A72               	goto	u3617
  1139  0276                     l2582:	
  1140                           
  1141                           ;I2CM.c: 76:         I2C_Master_Start();
  1142  0276  160A  118A  27EE  120A  118A  	fcall	_I2C_Master_Start
  1143  027B                     l2584:	
  1144                           
  1145                           ;I2CM.c: 77:         I2C_Master_Write(0x61);
  1146  027B  3061               	movlw	97
  1147  027C  00F0               	movwf	I2C_Master_Write@d
  1148  027D  3000               	movlw	0
  1149  027E  00F1               	movwf	I2C_Master_Write@d+1
  1150  027F  120A  158A  2038  120A  118A  	fcall	_I2C_Master_Write
  1151  0284                     l2586:	
  1152                           
  1153                           ;I2CM.c: 78:         pvtoelquelolea = I2C_Master_Read(0);
  1154  0284  3000               	movlw	0
  1155  0285  00F0               	movwf	I2C_Master_Read@a
  1156  0286  00F1               	movwf	I2C_Master_Read@a+1
  1157  0287  120A  158A  2170  120A  118A  	fcall	_I2C_Master_Read
  1158  028C  0870               	movf	?_I2C_Master_Read,w
  1159  028D  1283               	bcf	3,5	;RP0=0, select bank0
  1160  028E  1303               	bcf	3,6	;RP1=0, select bank0
  1161  028F  00E4               	movwf	??_main
  1162  0290  0864               	movf	??_main,w
  1163  0291  00EC               	movwf	_pvtoelquelolea
  1164  0292                     l2588:	
  1165                           
  1166                           ;I2CM.c: 79:         I2C_Master_Stop();
  1167  0292  160A  118A  27F7  120A  118A  	fcall	_I2C_Master_Stop
  1168  0297                     l2590:	
  1169                           
  1170                           ;I2CM.c: 80:         _delay((unsigned long)((10)*(4000000/4000.0)));
  1171  0297  300D               	movlw	13
  1172  0298  1283               	bcf	3,5	;RP0=0, select bank0
  1173  0299  1303               	bcf	3,6	;RP1=0, select bank0
  1174  029A  00E5               	movwf	??_main+1
  1175  029B  30FB               	movlw	251
  1176  029C  00E4               	movwf	??_main
  1177  029D                     u3627:	
  1178  029D  0BE4               	decfsz	??_main,f
  1179  029E  2A9D               	goto	u3627
  1180  029F  0BE5               	decfsz	??_main+1,f
  1181  02A0  2A9D               	goto	u3627
  1182  02A1                     l2592:	
  1183                           
  1184                           ;I2CM.c: 83:         adc1 = (adc1)* 5/255;
  1185  02A1  3043               	movlw	67
  1186  02A2  1283               	bcf	3,5	;RP0=0, select bank0
  1187  02A3  1303               	bcf	3,6	;RP1=0, select bank0
  1188  02A4  00CD               	movwf	___fldiv@a+3
  1189  02A5  307F               	movlw	127
  1190  02A6  00CC               	movwf	___fldiv@a+2
  1191  02A7  3000               	movlw	0
  1192  02A8  00CB               	movwf	___fldiv@a+1
  1193  02A9  3000               	movlw	0
  1194  02AA  00CA               	movwf	___fldiv@a
  1195  02AB  3040               	movlw	64
  1196  02AC  00B3               	movwf	___flmul@b+3
  1197  02AD  30A0               	movlw	160
  1198  02AE  00B2               	movwf	___flmul@b+2
  1199  02AF  3000               	movlw	0
  1200  02B0  00B1               	movwf	___flmul@b+1
  1201  02B1  3000               	movlw	0
  1202  02B2  00B0               	movwf	___flmul@b
  1203  02B3  1683               	bsf	3,5	;RP0=1, select bank1
  1204  02B4  1303               	bcf	3,6	;RP1=0, select bank1
  1205  02B5  0827               	movf	(_adc1+3)^(0+128),w
  1206  02B6  1283               	bcf	3,5	;RP0=0, select bank0
  1207  02B7  1303               	bcf	3,6	;RP1=0, select bank0
  1208  02B8  00B7               	movwf	___flmul@a+3
  1209  02B9  1683               	bsf	3,5	;RP0=1, select bank1
  1210  02BA  1303               	bcf	3,6	;RP1=0, select bank1
  1211  02BB  0826               	movf	(_adc1+2)^(0+128),w
  1212  02BC  1283               	bcf	3,5	;RP0=0, select bank0
  1213  02BD  1303               	bcf	3,6	;RP1=0, select bank0
  1214  02BE  00B6               	movwf	___flmul@a+2
  1215  02BF  1683               	bsf	3,5	;RP0=1, select bank1
  1216  02C0  1303               	bcf	3,6	;RP1=0, select bank1
  1217  02C1  0825               	movf	(_adc1+1)^(0+128),w
  1218  02C2  1283               	bcf	3,5	;RP0=0, select bank0
  1219  02C3  1303               	bcf	3,6	;RP1=0, select bank0
  1220  02C4  00B5               	movwf	___flmul@a+1
  1221  02C5  1683               	bsf	3,5	;RP0=1, select bank1
  1222  02C6  1303               	bcf	3,6	;RP1=0, select bank1
  1223  02C7  0824               	movf	_adc1^(0+128),w
  1224  02C8  1283               	bcf	3,5	;RP0=0, select bank0
  1225  02C9  1303               	bcf	3,6	;RP1=0, select bank0
  1226  02CA  00B4               	movwf	___flmul@a
  1227  02CB  120A  118A  248A  120A  118A  	fcall	___flmul
  1228  02D0  1283               	bcf	3,5	;RP0=0, select bank0
  1229  02D1  1303               	bcf	3,6	;RP1=0, select bank0
  1230  02D2  0833               	movf	?___flmul+3,w
  1231  02D3  00D1               	movwf	___fldiv@b+3
  1232  02D4  0832               	movf	?___flmul+2,w
  1233  02D5  00D0               	movwf	___fldiv@b+2
  1234  02D6  0831               	movf	?___flmul+1,w
  1235  02D7  00CF               	movwf	___fldiv@b+1
  1236  02D8  0830               	movf	?___flmul,w
  1237  02D9  00CE               	movwf	___fldiv@b
  1238  02DA  120A  118A  200A  120A  118A  	fcall	___fldiv
  1239  02DF  1283               	bcf	3,5	;RP0=0, select bank0
  1240  02E0  1303               	bcf	3,6	;RP1=0, select bank0
  1241  02E1  084D               	movf	?___fldiv+3,w
  1242  02E2  1683               	bsf	3,5	;RP0=1, select bank1
  1243  02E3  1303               	bcf	3,6	;RP1=0, select bank1
  1244  02E4  00A7               	movwf	(_adc1+3)^(0+128)
  1245  02E5  1283               	bcf	3,5	;RP0=0, select bank0
  1246  02E6  1303               	bcf	3,6	;RP1=0, select bank0
  1247  02E7  084C               	movf	?___fldiv+2,w
  1248  02E8  1683               	bsf	3,5	;RP0=1, select bank1
  1249  02E9  1303               	bcf	3,6	;RP1=0, select bank1
  1250  02EA  00A6               	movwf	(_adc1+2)^(0+128)
  1251  02EB  1283               	bcf	3,5	;RP0=0, select bank0
  1252  02EC  1303               	bcf	3,6	;RP1=0, select bank0
  1253  02ED  084B               	movf	?___fldiv+1,w
  1254  02EE  1683               	bsf	3,5	;RP0=1, select bank1
  1255  02EF  1303               	bcf	3,6	;RP1=0, select bank1
  1256  02F0  00A5               	movwf	(_adc1+1)^(0+128)
  1257  02F1  1283               	bcf	3,5	;RP0=0, select bank0
  1258  02F2  1303               	bcf	3,6	;RP1=0, select bank0
  1259  02F3  084A               	movf	?___fldiv,w
  1260  02F4  1683               	bsf	3,5	;RP0=1, select bank1
  1261  02F5  1303               	bcf	3,6	;RP1=0, select bank1
  1262  02F6  00A4               	movwf	_adc1^(0+128)
  1263  02F7                     l2594:	
  1264                           
  1265                           ;I2CM.c: 84:         ent1 = adc1;
  1266  02F7  0827               	movf	(_adc1+3)^(0+128),w
  1267  02F8  00F3               	movwf	___fltol@f1+3
  1268  02F9  0826               	movf	(_adc1+2)^(0+128),w
  1269  02FA  00F2               	movwf	___fltol@f1+2
  1270  02FB  0825               	movf	(_adc1+1)^(0+128),w
  1271  02FC  00F1               	movwf	___fltol@f1+1
  1272  02FD  0824               	movf	_adc1^(0+128),w
  1273  02FE  00F0               	movwf	___fltol@f1
  1274  02FF  120A  158A  234A  120A  118A  	fcall	___fltol
  1275  0304  0870               	movf	?___fltol,w
  1276  0305  1283               	bcf	3,5	;RP0=0, select bank0
  1277  0306  1303               	bcf	3,6	;RP1=0, select bank0
  1278  0307  00E4               	movwf	??_main
  1279  0308  0864               	movf	??_main,w
  1280  0309  00EB               	movwf	_ent1
  1281                           
  1282                           ;I2CM.c: 85:         deci1 = (adc1 - ent1) * 100;
  1283  030A  3042               	movlw	66
  1284  030B  00B3               	movwf	___flmul@b+3
  1285  030C  30C8               	movlw	200
  1286  030D  00B2               	movwf	___flmul@b+2
  1287  030E  3000               	movlw	0
  1288  030F  00B1               	movwf	___flmul@b+1
  1289  0310  3000               	movlw	0
  1290  0311  00B0               	movwf	___flmul@b
  1291  0312  086B               	movf	_ent1,w
  1292  0313  00E4               	movwf	??_main
  1293  0314  01E5               	clrf	??_main+1
  1294  0315  01E6               	clrf	??_main+2
  1295  0316  01E7               	clrf	??_main+3
  1296  0317  0867               	movf	??_main+3,w
  1297  0318  00F9               	movwf	___xxtofl@val+3
  1298  0319  0866               	movf	??_main+2,w
  1299  031A  00F8               	movwf	___xxtofl@val+2
  1300  031B  0865               	movf	??_main+1,w
  1301  031C  00F7               	movwf	___xxtofl@val+1
  1302  031D  0864               	movf	??_main,w
  1303  031E  00F6               	movwf	___xxtofl@val
  1304  031F  3001               	movlw	1
  1305  0320  120A  158A  23C4  120A  118A  	fcall	___xxtofl
  1306  0325  0879               	movf	?___xxtofl+3,w
  1307  0326  1283               	bcf	3,5	;RP0=0, select bank0
  1308  0327  1303               	bcf	3,6	;RP1=0, select bank0
  1309  0328  00AB               	movwf	___flsub@a+3
  1310  0329  0878               	movf	?___xxtofl+2,w
  1311  032A  00AA               	movwf	___flsub@a+2
  1312  032B  0877               	movf	?___xxtofl+1,w
  1313  032C  00A9               	movwf	___flsub@a+1
  1314  032D  0876               	movf	?___xxtofl,w
  1315  032E  00A8               	movwf	___flsub@a
  1316  032F  1683               	bsf	3,5	;RP0=1, select bank1
  1317  0330  1303               	bcf	3,6	;RP1=0, select bank1
  1318  0331  0827               	movf	(_adc1+3)^(0+128),w
  1319  0332  1283               	bcf	3,5	;RP0=0, select bank0
  1320  0333  1303               	bcf	3,6	;RP1=0, select bank0
  1321  0334  00AF               	movwf	___flsub@b+3
  1322  0335  1683               	bsf	3,5	;RP0=1, select bank1
  1323  0336  1303               	bcf	3,6	;RP1=0, select bank1
  1324  0337  0826               	movf	(_adc1+2)^(0+128),w
  1325  0338  1283               	bcf	3,5	;RP0=0, select bank0
  1326  0339  1303               	bcf	3,6	;RP1=0, select bank0
  1327  033A  00AE               	movwf	___flsub@b+2
  1328  033B  1683               	bsf	3,5	;RP0=1, select bank1
  1329  033C  1303               	bcf	3,6	;RP1=0, select bank1
  1330  033D  0825               	movf	(_adc1+1)^(0+128),w
  1331  033E  1283               	bcf	3,5	;RP0=0, select bank0
  1332  033F  1303               	bcf	3,6	;RP1=0, select bank0
  1333  0340  00AD               	movwf	___flsub@b+1
  1334  0341  1683               	bsf	3,5	;RP0=1, select bank1
  1335  0342  1303               	bcf	3,6	;RP1=0, select bank1
  1336  0343  0824               	movf	_adc1^(0+128),w
  1337  0344  1283               	bcf	3,5	;RP0=0, select bank0
  1338  0345  1303               	bcf	3,6	;RP1=0, select bank0
  1339  0346  00AC               	movwf	___flsub@b
  1340  0347  120A  158A  20DB  120A  118A  	fcall	___flsub
  1341  034C  1283               	bcf	3,5	;RP0=0, select bank0
  1342  034D  1303               	bcf	3,6	;RP1=0, select bank0
  1343  034E  082B               	movf	?___flsub+3,w
  1344  034F  00B7               	movwf	___flmul@a+3
  1345  0350  082A               	movf	?___flsub+2,w
  1346  0351  00B6               	movwf	___flmul@a+2
  1347  0352  0829               	movf	?___flsub+1,w
  1348  0353  00B5               	movwf	___flmul@a+1
  1349  0354  0828               	movf	?___flsub,w
  1350  0355  00B4               	movwf	___flmul@a
  1351  0356  120A  118A  248A  120A  118A  	fcall	___flmul
  1352  035B  1283               	bcf	3,5	;RP0=0, select bank0
  1353  035C  1303               	bcf	3,6	;RP1=0, select bank0
  1354  035D  0833               	movf	?___flmul+3,w
  1355  035E  1683               	bsf	3,5	;RP0=1, select bank1
  1356  035F  1303               	bcf	3,6	;RP1=0, select bank1
  1357  0360  00A3               	movwf	(_deci1+3)^(0+128)
  1358  0361  1283               	bcf	3,5	;RP0=0, select bank0
  1359  0362  1303               	bcf	3,6	;RP1=0, select bank0
  1360  0363  0832               	movf	?___flmul+2,w
  1361  0364  1683               	bsf	3,5	;RP0=1, select bank1
  1362  0365  1303               	bcf	3,6	;RP1=0, select bank1
  1363  0366  00A2               	movwf	(_deci1+2)^(0+128)
  1364  0367  1283               	bcf	3,5	;RP0=0, select bank0
  1365  0368  1303               	bcf	3,6	;RP1=0, select bank0
  1366  0369  0831               	movf	?___flmul+1,w
  1367  036A  1683               	bsf	3,5	;RP0=1, select bank1
  1368  036B  1303               	bcf	3,6	;RP1=0, select bank1
  1369  036C  00A1               	movwf	(_deci1+1)^(0+128)
  1370  036D  1283               	bcf	3,5	;RP0=0, select bank0
  1371  036E  1303               	bcf	3,6	;RP1=0, select bank0
  1372  036F  0830               	movf	?___flmul,w
  1373  0370  1683               	bsf	3,5	;RP0=1, select bank1
  1374  0371  1303               	bcf	3,6	;RP1=0, select bank1
  1375  0372  00A0               	movwf	_deci1^(0+128)
  1376  0373                     l2596:	
  1377                           
  1378                           ;I2CM.c: 86:         dec1 = deci1;
  1379  0373  0823               	movf	(_deci1+3)^(0+128),w
  1380  0374  00F3               	movwf	___fltol@f1+3
  1381  0375  0822               	movf	(_deci1+2)^(0+128),w
  1382  0376  00F2               	movwf	___fltol@f1+2
  1383  0377  0821               	movf	(_deci1+1)^(0+128),w
  1384  0378  00F1               	movwf	___fltol@f1+1
  1385  0379  0820               	movf	_deci1^(0+128),w
  1386  037A  00F0               	movwf	___fltol@f1
  1387  037B  120A  158A  234A  120A  118A  	fcall	___fltol
  1388  0380  0870               	movf	?___fltol,w
  1389  0381  1283               	bcf	3,5	;RP0=0, select bank0
  1390  0382  1303               	bcf	3,6	;RP1=0, select bank0
  1391  0383  00E4               	movwf	??_main
  1392  0384  0864               	movf	??_main,w
  1393  0385  00EA               	movwf	_dec1
  1394  0386                     l2598:	
  1395                           
  1396                           ;I2CM.c: 88:         Lcd_Set_Cursor(2, 1);
  1397  0386  01F3               	clrf	Lcd_Set_Cursor@y
  1398  0387  0AF3               	incf	Lcd_Set_Cursor@y,f
  1399  0388  3002               	movlw	2
  1400  0389  120A  158A  20B7  120A  118A  	fcall	_Lcd_Set_Cursor
  1401  038E                     l2600:	
  1402                           
  1403                           ;I2CM.c: 89:         Lcd_Write_Number(ent1);
  1404  038E  1283               	bcf	3,5	;RP0=0, select bank0
  1405  038F  1303               	bcf	3,6	;RP1=0, select bank0
  1406  0390  086B               	movf	_ent1,w
  1407  0391  120A  158A  2099  120A  118A  	fcall	_Lcd_Write_Number
  1408  0396                     l2602:	
  1409                           
  1410                           ;I2CM.c: 90:         Lcd_Write_Char(".");
  1411  0396  301C               	movlw	(low ((STR_4-__stringbase)| (0+32768)))& (0+255)
  1412  0397  120A  158A  205C  120A  118A  	fcall	_Lcd_Write_Char
  1413  039C                     l2604:	
  1414                           
  1415                           ;I2CM.c: 91:         Lcd_Write_Number(dec1);
  1416  039C  1283               	bcf	3,5	;RP0=0, select bank0
  1417  039D  1303               	bcf	3,6	;RP1=0, select bank0
  1418  039E  086A               	movf	_dec1,w
  1419  039F  120A  158A  2099  120A  118A  	fcall	_Lcd_Write_Number
  1420  03A4                     l2606:	
  1421                           
  1422                           ;I2CM.c: 97:         if(pvtoelquelolea < 10){
  1423  03A4  300A               	movlw	10
  1424  03A5  1283               	bcf	3,5	;RP0=0, select bank0
  1425  03A6  1303               	bcf	3,6	;RP1=0, select bank0
  1426  03A7  026C               	subwf	_pvtoelquelolea,w
  1427  03A8  1803               	skipnc
  1428  03A9  2BAB               	goto	u3601
  1429  03AA  2BAC               	goto	u3600
  1430  03AB                     u3601:	
  1431  03AB  2BC8               	goto	l2614
  1432  03AC                     u3600:	
  1433  03AC                     l2608:	
  1434                           
  1435                           ;I2CM.c: 98:             Lcd_Set_Cursor(2,7);
  1436  03AC  3007               	movlw	7
  1437  03AD  00E4               	movwf	??_main
  1438  03AE  0864               	movf	??_main,w
  1439  03AF  00F3               	movwf	Lcd_Set_Cursor@y
  1440  03B0  3002               	movlw	2
  1441  03B1  120A  158A  20B7  120A  118A  	fcall	_Lcd_Set_Cursor
  1442  03B6                     l2610:	
  1443                           
  1444                           ;I2CM.c: 99:             Lcd_Write_String("0");
  1445  03B6  301E               	movlw	(low ((STR_5-__stringbase)| (0+32768)))& (0+255)
  1446  03B7  00F2               	movwf	Lcd_Write_String@a
  1447  03B8  3080               	movlw	128
  1448  03B9  00F3               	movwf	Lcd_Write_String@a+1
  1449  03BA  120A  158A  2210  120A  118A  	fcall	_Lcd_Write_String
  1450  03BF                     l2612:	
  1451                           
  1452                           ;I2CM.c: 100:             Lcd_Write_Number(pvtoelquelolea);
  1453  03BF  1283               	bcf	3,5	;RP0=0, select bank0
  1454  03C0  1303               	bcf	3,6	;RP1=0, select bank0
  1455  03C1  086C               	movf	_pvtoelquelolea,w
  1456  03C2  120A  158A  2099  120A  118A  	fcall	_Lcd_Write_Number
  1457                           
  1458                           ;I2CM.c: 101:         }else{
  1459  03C7  2BDA               	goto	l2618
  1460  03C8                     l2614:	
  1461                           
  1462                           ;I2CM.c: 102:             Lcd_Set_Cursor(2,7);
  1463  03C8  3007               	movlw	7
  1464  03C9  00E4               	movwf	??_main
  1465  03CA  0864               	movf	??_main,w
  1466  03CB  00F3               	movwf	Lcd_Set_Cursor@y
  1467  03CC  3002               	movlw	2
  1468  03CD  120A  158A  20B7  120A  118A  	fcall	_Lcd_Set_Cursor
  1469  03D2                     l2616:	
  1470                           
  1471                           ;I2CM.c: 103:             Lcd_Write_Number(pvtoelquelolea);
  1472  03D2  1283               	bcf	3,5	;RP0=0, select bank0
  1473  03D3  1303               	bcf	3,6	;RP1=0, select bank0
  1474  03D4  086C               	movf	_pvtoelquelolea,w
  1475  03D5  120A  158A  2099  120A  118A  	fcall	_Lcd_Write_Number
  1476  03DA                     l2618:	
  1477                           
  1478                           ;I2CM.c: 118:        I2C_Master_Start();
  1479  03DA  160A  118A  27EE  120A  118A  	fcall	_I2C_Master_Start
  1480  03DF                     l2620:	
  1481                           
  1482                           ;I2CM.c: 119:        I2C_Master_Write(0xD0);
  1483  03DF  30D0               	movlw	208
  1484  03E0  00F0               	movwf	I2C_Master_Write@d
  1485  03E1  3000               	movlw	0
  1486  03E2  00F1               	movwf	I2C_Master_Write@d+1
  1487  03E3  120A  158A  2038  120A  118A  	fcall	_I2C_Master_Write
  1488  03E8                     l2622:	
  1489                           
  1490                           ;I2CM.c: 120:        I2C_Master_Write(0);
  1491  03E8  3000               	movlw	0
  1492  03E9  00F0               	movwf	I2C_Master_Write@d
  1493  03EA  00F1               	movwf	I2C_Master_Write@d+1
  1494  03EB  120A  158A  2038  120A  118A  	fcall	_I2C_Master_Write
  1495  03F0                     l2624:	
  1496                           
  1497                           ;I2CM.c: 121:        I2C_Master_Stop();
  1498  03F0  160A  118A  27F7  120A  118A  	fcall	_I2C_Master_Stop
  1499  03F5                     l2626:	
  1500                           
  1501                           ;I2CM.c: 124:        I2C_Master_Start();
  1502  03F5  160A  118A  27EE  120A  118A  	fcall	_I2C_Master_Start
  1503  03FA                     l2628:	
  1504                           
  1505                           ;I2CM.c: 125:        I2C_Master_Write(0xD1);
  1506  03FA  30D1               	movlw	209
  1507  03FB  00F0               	movwf	I2C_Master_Write@d
  1508  03FC  3000               	movlw	0
  1509  03FD  00F1               	movwf	I2C_Master_Write@d+1
  1510  03FE  120A  158A  2038  120A  118A  	fcall	_I2C_Master_Write
  1511  0403                     l2630:	
  1512                           
  1513                           ;I2CM.c: 126:        segundos = BCD(I2C_Master_Read(0));
  1514  0403  3000               	movlw	0
  1515  0404  00F0               	movwf	I2C_Master_Read@a
  1516  0405  00F1               	movwf	I2C_Master_Read@a+1
  1517  0406  120A  158A  2170  120A  118A  	fcall	_I2C_Master_Read
  1518  040B  0871               	movf	?_I2C_Master_Read+1,w
  1519  040C  00F7               	movwf	BCD@to_convert+1
  1520  040D  0870               	movf	?_I2C_Master_Read,w
  1521  040E  00F6               	movwf	BCD@to_convert
  1522  040F  120A  158A  2124  120A  118A  	fcall	_BCD
  1523  0414  0876               	movf	?_BCD,w
  1524  0415  1283               	bcf	3,5	;RP0=0, select bank0
  1525  0416  1303               	bcf	3,6	;RP1=0, select bank0
  1526  0417  00E4               	movwf	??_main
  1527  0418  0864               	movf	??_main,w
  1528  0419  00E9               	movwf	_segundos
  1529  041A                     l2632:	
  1530                           
  1531                           ;I2CM.c: 127:        I2C_Master_Stop();
  1532  041A  160A  118A  27F7  120A  118A  	fcall	_I2C_Master_Stop
  1533  041F                     l2634:	
  1534                           
  1535                           ;I2CM.c: 129:        I2C_Master_Start();
  1536  041F  160A  118A  27EE  120A  118A  	fcall	_I2C_Master_Start
  1537  0424                     l2636:	
  1538                           
  1539                           ;I2CM.c: 130:        I2C_Master_Write(0xD1);
  1540  0424  30D1               	movlw	209
  1541  0425  00F0               	movwf	I2C_Master_Write@d
  1542  0426  3000               	movlw	0
  1543  0427  00F1               	movwf	I2C_Master_Write@d+1
  1544  0428  120A  158A  2038  120A  118A  	fcall	_I2C_Master_Write
  1545  042D                     l2638:	
  1546                           
  1547                           ;I2CM.c: 131:        minutos = BCD(I2C_Master_Read(0));
  1548  042D  3000               	movlw	0
  1549  042E  00F0               	movwf	I2C_Master_Read@a
  1550  042F  00F1               	movwf	I2C_Master_Read@a+1
  1551  0430  120A  158A  2170  120A  118A  	fcall	_I2C_Master_Read
  1552  0435  0871               	movf	?_I2C_Master_Read+1,w
  1553  0436  00F7               	movwf	BCD@to_convert+1
  1554  0437  0870               	movf	?_I2C_Master_Read,w
  1555  0438  00F6               	movwf	BCD@to_convert
  1556  0439  120A  158A  2124  120A  118A  	fcall	_BCD
  1557  043E  0876               	movf	?_BCD,w
  1558  043F  1283               	bcf	3,5	;RP0=0, select bank0
  1559  0440  1303               	bcf	3,6	;RP1=0, select bank0
  1560  0441  00E4               	movwf	??_main
  1561  0442  0864               	movf	??_main,w
  1562  0443  00E8               	movwf	_minutos
  1563  0444                     l2640:	
  1564                           
  1565                           ;I2CM.c: 132:        I2C_Master_Stop();
  1566  0444  160A  118A  27F7  120A  118A  	fcall	_I2C_Master_Stop
  1567  0449                     l2642:	
  1568                           
  1569                           ;I2CM.c: 135:        I2C_Master_Start();
  1570  0449  160A  118A  27EE  120A  118A  	fcall	_I2C_Master_Start
  1571  044E                     l2644:	
  1572                           
  1573                           ;I2CM.c: 136:        I2C_Master_Write(0xD1);
  1574  044E  30D1               	movlw	209
  1575  044F  00F0               	movwf	I2C_Master_Write@d
  1576  0450  3000               	movlw	0
  1577  0451  00F1               	movwf	I2C_Master_Write@d+1
  1578  0452  120A  158A  2038  120A  118A  	fcall	_I2C_Master_Write
  1579  0457                     l2646:	
  1580                           
  1581                           ;I2CM.c: 137:        I2C_Master_Read(0);
  1582  0457  3000               	movlw	0
  1583  0458  00F0               	movwf	I2C_Master_Read@a
  1584  0459  00F1               	movwf	I2C_Master_Read@a+1
  1585  045A  120A  158A  2170  120A  118A  	fcall	_I2C_Master_Read
  1586  045F                     l2648:	
  1587                           
  1588                           ;I2CM.c: 138:        I2C_Master_Stop();
  1589  045F  160A  118A  27F7  120A  118A  	fcall	_I2C_Master_Stop
  1590  0464                     l2650:	
  1591                           
  1592                           ;I2CM.c: 141:        Lcd_Set_Cursor(2, 12);
  1593  0464  300C               	movlw	12
  1594  0465  1283               	bcf	3,5	;RP0=0, select bank0
  1595  0466  1303               	bcf	3,6	;RP1=0, select bank0
  1596  0467  00E4               	movwf	??_main
  1597  0468  0864               	movf	??_main,w
  1598  0469  00F3               	movwf	Lcd_Set_Cursor@y
  1599  046A  3002               	movlw	2
  1600  046B  120A  158A  20B7  120A  118A  	fcall	_Lcd_Set_Cursor
  1601                           
  1602                           ;I2CM.c: 142:        Lcd_Write_Number(minutos);
  1603  0470  1283               	bcf	3,5	;RP0=0, select bank0
  1604  0471  1303               	bcf	3,6	;RP1=0, select bank0
  1605  0472  0868               	movf	_minutos,w
  1606  0473  120A  158A  2099  120A  118A  	fcall	_Lcd_Write_Number
  1607  0478                     l2652:	
  1608                           
  1609                           ;I2CM.c: 143:        Lcd_Write_Char(":");
  1610  0478  3020               	movlw	(low ((STR_6-__stringbase)| (0+32768)))& (0+255)
  1611  0479  120A  158A  205C  120A  118A  	fcall	_Lcd_Write_Char
  1612  047E                     l2654:	
  1613                           
  1614                           ;I2CM.c: 144:        Lcd_Write_Number(segundos);
  1615  047E  1283               	bcf	3,5	;RP0=0, select bank0
  1616  047F  1303               	bcf	3,6	;RP1=0, select bank0
  1617  0480  0869               	movf	_segundos,w
  1618  0481  120A  158A  2099  120A  118A  	fcall	_Lcd_Write_Number
  1619  0486  2A31               	goto	l60
  1620  0487  120A  118A  2800   	ljmp	start
  1621  048A                     __end_of_main:	
  1622                           
  1623                           	psect	text1
  1624  087F                     __ptext1:	
  1625 ;; *************** function _setup *****************
  1626 ;; Defined at:
  1627 ;;		line 153 in file "I2CM.c"
  1628 ;; Parameters:    Size  Location     Type
  1629 ;;		None
  1630 ;; Auto vars:     Size  Location     Type
  1631 ;;		None
  1632 ;; Return value:  Size  Location     Type
  1633 ;;                  1    wreg      void 
  1634 ;; Registers used:
  1635 ;;		wreg, status,2, status,0, pclath, cstack
  1636 ;; Tracked objects:
  1637 ;;		On entry : 0/0
  1638 ;;		On exit  : 0/0
  1639 ;;		Unchanged: 0/0
  1640 ;; Data sizes:     COMMON   BANK0   BANK1   BANK3   BANK2
  1641 ;;      Params:         0       0       0       0       0
  1642 ;;      Locals:         0       0       0       0       0
  1643 ;;      Temps:          0       0       0       0       0
  1644 ;;      Totals:         0       0       0       0       0
  1645 ;;Total ram usage:        0 bytes
  1646 ;; Hardware stack levels used:    1
  1647 ;; Hardware stack levels required when called:    2
  1648 ;; This function calls:
  1649 ;;		_I2C_Master_Init
  1650 ;; This function is called by:
  1651 ;;		_main
  1652 ;; This function uses a non-reentrant model
  1653 ;;
  1654                           
  1655                           
  1656                           ;psect for function _setup
  1657  087F                     _setup:	
  1658  087F                     l2136:	
  1659                           ;incstack = 0
  1660                           ; Regs used in _setup: [wreg+status,2+status,0+pclath+cstack]
  1661                           
  1662                           
  1663                           ;I2CM.c: 154:     ANSEL = 0;
  1664  087F  1683               	bsf	3,5	;RP0=1, select bank3
  1665  0880  1703               	bsf	3,6	;RP1=1, select bank3
  1666  0881  0188               	clrf	8	;volatile
  1667                           
  1668                           ;I2CM.c: 155:     ANSELH = 0;
  1669  0882  0189               	clrf	9	;volatile
  1670                           
  1671                           ;I2CM.c: 156:     TRISB = 0;
  1672  0883  1683               	bsf	3,5	;RP0=1, select bank1
  1673  0884  1303               	bcf	3,6	;RP1=0, select bank1
  1674  0885  0186               	clrf	6	;volatile
  1675                           
  1676                           ;I2CM.c: 157:     TRISD = 0;
  1677  0886  0188               	clrf	8	;volatile
  1678                           
  1679                           ;I2CM.c: 158:     PORTB = 0;
  1680  0887  1283               	bcf	3,5	;RP0=0, select bank0
  1681  0888  1303               	bcf	3,6	;RP1=0, select bank0
  1682  0889  0186               	clrf	6	;volatile
  1683                           
  1684                           ;I2CM.c: 159:     PORTD = 0;
  1685  088A  0188               	clrf	8	;volatile
  1686  088B                     l2138:	
  1687                           
  1688                           ;I2CM.c: 160:     I2C_Master_Init(100000);
  1689  088B  3000               	movlw	0
  1690  088C  00A3               	movwf	I2C_Master_Init@c+3
  1691  088D  3001               	movlw	1
  1692  088E  00A2               	movwf	I2C_Master_Init@c+2
  1693  088F  3086               	movlw	134
  1694  0890  00A1               	movwf	I2C_Master_Init@c+1
  1695  0891  30A0               	movlw	160
  1696  0892  00A0               	movwf	I2C_Master_Init@c
  1697  0893  120A  158A  219E  120A  158A  	fcall	_I2C_Master_Init
  1698  0898                     l68:	
  1699  0898  0008               	return
  1700  0899                     __end_of_setup:	
  1701                           
  1702                           	psect	text2
  1703  099E                     __ptext2:	
  1704 ;; *************** function _I2C_Master_Init *****************
  1705 ;; Defined at:
  1706 ;;		line 17 in file "I2C.c"
  1707 ;; Parameters:    Size  Location     Type
  1708 ;;  c               4    0[BANK0 ] const unsigned long 
  1709 ;; Auto vars:     Size  Location     Type
  1710 ;;		None
  1711 ;; Return value:  Size  Location     Type
  1712 ;;                  1    wreg      void 
  1713 ;; Registers used:
  1714 ;;		wreg, status,2, status,0, pclath, cstack
  1715 ;; Tracked objects:
  1716 ;;		On entry : 0/0
  1717 ;;		On exit  : 0/0
  1718 ;;		Unchanged: 0/0
  1719 ;; Data sizes:     COMMON   BANK0   BANK1   BANK3   BANK2
  1720 ;;      Params:         0       4       0       0       0
  1721 ;;      Locals:         0       0       0       0       0
  1722 ;;      Temps:          0       4       0       0       0
  1723 ;;      Totals:         0       8       0       0       0
  1724 ;;Total ram usage:        8 bytes
  1725 ;; Hardware stack levels used:    1
  1726 ;; Hardware stack levels required when called:    1
  1727 ;; This function calls:
  1728 ;;		___lldiv
  1729 ;; This function is called by:
  1730 ;;		_setup
  1731 ;; This function uses a non-reentrant model
  1732 ;;
  1733                           
  1734                           
  1735                           ;psect for function _I2C_Master_Init
  1736  099E                     _I2C_Master_Init:	
  1737  099E                     l1824:	
  1738                           ;incstack = 0
  1739                           ; Regs used in _I2C_Master_Init: [wreg+status,2+status,0+pclath+cstack]
  1740                           
  1741                           
  1742                           ;I2C.c: 17: void I2C_Master_Init(const unsigned long c);I2C.c: 18: {;I2C.c: 19:     SSPC
      +                          ON = 0b00101000;
  1743  099E  3028               	movlw	40
  1744  099F  1283               	bcf	3,5	;RP0=0, select bank0
  1745  09A0  1303               	bcf	3,6	;RP1=0, select bank0
  1746  09A1  0094               	movwf	20	;volatile
  1747  09A2                     l1826:	
  1748                           
  1749                           ;I2C.c: 20:     SSPCON2 = 0;
  1750  09A2  1683               	bsf	3,5	;RP0=1, select bank1
  1751  09A3  1303               	bcf	3,6	;RP1=0, select bank1
  1752  09A4  0191               	clrf	17	;volatile
  1753  09A5                     l1828:	
  1754                           
  1755                           ;I2C.c: 21:     SSPADD = (4000000/(4*c))-1;
  1756  09A5  1283               	bcf	3,5	;RP0=0, select bank0
  1757  09A6  1303               	bcf	3,6	;RP1=0, select bank0
  1758  09A7  0820               	movf	I2C_Master_Init@c,w
  1759  09A8  00A4               	movwf	??_I2C_Master_Init
  1760  09A9  0821               	movf	I2C_Master_Init@c+1,w
  1761  09AA  00A5               	movwf	??_I2C_Master_Init+1
  1762  09AB  0822               	movf	I2C_Master_Init@c+2,w
  1763  09AC  00A6               	movwf	??_I2C_Master_Init+2
  1764  09AD  0823               	movf	I2C_Master_Init@c+3,w
  1765  09AE  00A7               	movwf	??_I2C_Master_Init+3
  1766  09AF  3002               	movlw	2
  1767  09B0                     u2045:	
  1768  09B0  1003               	clrc
  1769  09B1  0DA4               	rlf	??_I2C_Master_Init,f
  1770  09B2  0DA5               	rlf	??_I2C_Master_Init+1,f
  1771  09B3  0DA6               	rlf	??_I2C_Master_Init+2,f
  1772  09B4  0DA7               	rlf	??_I2C_Master_Init+3,f
  1773  09B5                     u2040:	
  1774  09B5  3EFF               	addlw	-1
  1775  09B6  1D03               	skipz
  1776  09B7  29B0               	goto	u2045
  1777  09B8  0827               	movf	??_I2C_Master_Init+3,w
  1778  09B9  00F3               	movwf	___lldiv@divisor+3
  1779  09BA  0826               	movf	??_I2C_Master_Init+2,w
  1780  09BB  00F2               	movwf	___lldiv@divisor+2
  1781  09BC  0825               	movf	??_I2C_Master_Init+1,w
  1782  09BD  00F1               	movwf	___lldiv@divisor+1
  1783  09BE  0824               	movf	??_I2C_Master_Init,w
  1784  09BF  00F0               	movwf	___lldiv@divisor
  1785  09C0  3000               	movlw	0
  1786  09C1  00F7               	movwf	___lldiv@dividend+3
  1787  09C2  303D               	movlw	61
  1788  09C3  00F6               	movwf	___lldiv@dividend+2
  1789  09C4  3009               	movlw	9
  1790  09C5  00F5               	movwf	___lldiv@dividend+1
  1791  09C6  3000               	movlw	0
  1792  09C7  00F4               	movwf	___lldiv@dividend
  1793  09C8  120A  158A  22E4  120A  158A  	fcall	___lldiv
  1794  09CD  0870               	movf	?___lldiv,w
  1795  09CE  3EFF               	addlw	255
  1796  09CF  1683               	bsf	3,5	;RP0=1, select bank1
  1797  09D0  1303               	bcf	3,6	;RP1=0, select bank1
  1798  09D1  0093               	movwf	19	;volatile
  1799  09D2                     l1830:	
  1800                           
  1801                           ;I2C.c: 22:     SSPSTAT = 0;
  1802  09D2  0194               	clrf	20	;volatile
  1803  09D3                     l1832:	
  1804                           
  1805                           ;I2C.c: 23:     TRISCbits.TRISC3 = 1;
  1806  09D3  1587               	bsf	7,3	;volatile
  1807  09D4                     l1834:	
  1808                           
  1809                           ;I2C.c: 24:     TRISCbits.TRISC4 = 1;
  1810  09D4  1607               	bsf	7,4	;volatile
  1811  09D5                     l97:	
  1812  09D5  0008               	return
  1813  09D6                     __end_of_I2C_Master_Init:	
  1814                           
  1815                           	psect	text3
  1816  0AE4                     __ptext3:	
  1817 ;; *************** function ___lldiv *****************
  1818 ;; Defined at:
  1819 ;;		line 5 in file "C:\Program Files (x86)\Microchip\xc8\v2.10\pic\sources\c90\common\__lldiv.c"
  1820 ;; Parameters:    Size  Location     Type
  1821 ;;  divisor         4    0[COMMON] unsigned long 
  1822 ;;  dividend        4    4[COMMON] unsigned long 
  1823 ;; Auto vars:     Size  Location     Type
  1824 ;;  quotient        4    9[COMMON] unsigned long 
  1825 ;;  counter         1   13[COMMON] unsigned char 
  1826 ;; Return value:  Size  Location     Type
  1827 ;;                  4    0[COMMON] unsigned long 
  1828 ;; Registers used:
  1829 ;;		wreg, status,2, status,0
  1830 ;; Tracked objects:
  1831 ;;		On entry : 0/0
  1832 ;;		On exit  : 0/0
  1833 ;;		Unchanged: 0/0
  1834 ;; Data sizes:     COMMON   BANK0   BANK1   BANK3   BANK2
  1835 ;;      Params:         8       0       0       0       0
  1836 ;;      Locals:         5       0       0       0       0
  1837 ;;      Temps:          1       0       0       0       0
  1838 ;;      Totals:        14       0       0       0       0
  1839 ;;Total ram usage:       14 bytes
  1840 ;; Hardware stack levels used:    1
  1841 ;; This function calls:
  1842 ;;		Nothing
  1843 ;; This function is called by:
  1844 ;;		_I2C_Master_Init
  1845 ;; This function uses a non-reentrant model
  1846 ;;
  1847                           
  1848                           
  1849                           ;psect for function ___lldiv
  1850  0AE4                     ___lldiv:	
  1851  0AE4                     l1744:	
  1852                           ;incstack = 0
  1853                           ; Regs used in ___lldiv: [wreg+status,2+status,0]
  1854                           
  1855  0AE4  3000               	movlw	0
  1856  0AE5  00FC               	movwf	___lldiv@quotient+3
  1857  0AE6  3000               	movlw	0
  1858  0AE7  00FB               	movwf	___lldiv@quotient+2
  1859  0AE8  3000               	movlw	0
  1860  0AE9  00FA               	movwf	___lldiv@quotient+1
  1861  0AEA  3000               	movlw	0
  1862  0AEB  00F9               	movwf	___lldiv@quotient
  1863  0AEC  0873               	movf	___lldiv@divisor+3,w
  1864  0AED  0472               	iorwf	___lldiv@divisor+2,w
  1865  0AEE  0471               	iorwf	___lldiv@divisor+1,w
  1866  0AEF  0470               	iorwf	___lldiv@divisor,w
  1867  0AF0  1903               	skipnz
  1868  0AF1  2AF3               	goto	u1811
  1869  0AF2  2AF4               	goto	u1810
  1870  0AF3                     u1811:	
  1871  0AF3  2B41               	goto	l1764
  1872  0AF4                     u1810:	
  1873  0AF4                     l1746:	
  1874  0AF4  01FD               	clrf	___lldiv@counter
  1875  0AF5  0AFD               	incf	___lldiv@counter,f
  1876  0AF6  2B04               	goto	l1750
  1877  0AF7                     l1748:	
  1878  0AF7  3001               	movlw	1
  1879  0AF8  00F8               	movwf	??___lldiv
  1880  0AF9                     u1825:	
  1881  0AF9  1003               	clrc
  1882  0AFA  0DF0               	rlf	___lldiv@divisor,f
  1883  0AFB  0DF1               	rlf	___lldiv@divisor+1,f
  1884  0AFC  0DF2               	rlf	___lldiv@divisor+2,f
  1885  0AFD  0DF3               	rlf	___lldiv@divisor+3,f
  1886  0AFE  0BF8               	decfsz	??___lldiv,f
  1887  0AFF  2AF9               	goto	u1825
  1888  0B00  3001               	movlw	1
  1889  0B01  00F8               	movwf	??___lldiv
  1890  0B02  0878               	movf	??___lldiv,w
  1891  0B03  07FD               	addwf	___lldiv@counter,f
  1892  0B04                     l1750:	
  1893  0B04  1FF3               	btfss	___lldiv@divisor+3,7
  1894  0B05  2B07               	goto	u1831
  1895  0B06  2B08               	goto	u1830
  1896  0B07                     u1831:	
  1897  0B07  2AF7               	goto	l1748
  1898  0B08                     u1830:	
  1899  0B08                     l1752:	
  1900  0B08  3001               	movlw	1
  1901  0B09  00F8               	movwf	??___lldiv
  1902  0B0A                     u1845:	
  1903  0B0A  1003               	clrc
  1904  0B0B  0DF9               	rlf	___lldiv@quotient,f
  1905  0B0C  0DFA               	rlf	___lldiv@quotient+1,f
  1906  0B0D  0DFB               	rlf	___lldiv@quotient+2,f
  1907  0B0E  0DFC               	rlf	___lldiv@quotient+3,f
  1908  0B0F  0BF8               	decfsz	??___lldiv,f
  1909  0B10  2B0A               	goto	u1845
  1910  0B11                     l1754:	
  1911  0B11  0873               	movf	___lldiv@divisor+3,w
  1912  0B12  0277               	subwf	___lldiv@dividend+3,w
  1913  0B13  1D03               	skipz
  1914  0B14  2B1F               	goto	u1855
  1915  0B15  0872               	movf	___lldiv@divisor+2,w
  1916  0B16  0276               	subwf	___lldiv@dividend+2,w
  1917  0B17  1D03               	skipz
  1918  0B18  2B1F               	goto	u1855
  1919  0B19  0871               	movf	___lldiv@divisor+1,w
  1920  0B1A  0275               	subwf	___lldiv@dividend+1,w
  1921  0B1B  1D03               	skipz
  1922  0B1C  2B1F               	goto	u1855
  1923  0B1D  0870               	movf	___lldiv@divisor,w
  1924  0B1E  0274               	subwf	___lldiv@dividend,w
  1925  0B1F                     u1855:	
  1926  0B1F  1C03               	skipc
  1927  0B20  2B22               	goto	u1851
  1928  0B21  2B23               	goto	u1850
  1929  0B22                     u1851:	
  1930  0B22  2B32               	goto	l1760
  1931  0B23                     u1850:	
  1932  0B23                     l1756:	
  1933  0B23  0870               	movf	___lldiv@divisor,w
  1934  0B24  02F4               	subwf	___lldiv@dividend,f
  1935  0B25  0871               	movf	___lldiv@divisor+1,w
  1936  0B26  1C03               	skipc
  1937  0B27  0F71               	incfsz	___lldiv@divisor+1,w
  1938  0B28  02F5               	subwf	___lldiv@dividend+1,f
  1939  0B29  0872               	movf	___lldiv@divisor+2,w
  1940  0B2A  1C03               	skipc
  1941  0B2B  0F72               	incfsz	___lldiv@divisor+2,w
  1942  0B2C  02F6               	subwf	___lldiv@dividend+2,f
  1943  0B2D  0873               	movf	___lldiv@divisor+3,w
  1944  0B2E  1C03               	skipc
  1945  0B2F  0F73               	incfsz	___lldiv@divisor+3,w
  1946  0B30  02F7               	subwf	___lldiv@dividend+3,f
  1947  0B31                     l1758:	
  1948  0B31  1479               	bsf	___lldiv@quotient,0
  1949  0B32                     l1760:	
  1950  0B32  3001               	movlw	1
  1951  0B33                     u1865:	
  1952  0B33  1003               	clrc
  1953  0B34  0CF3               	rrf	___lldiv@divisor+3,f
  1954  0B35  0CF2               	rrf	___lldiv@divisor+2,f
  1955  0B36  0CF1               	rrf	___lldiv@divisor+1,f
  1956  0B37  0CF0               	rrf	___lldiv@divisor,f
  1957  0B38  3EFF               	addlw	-1
  1958  0B39  1D03               	skipz
  1959  0B3A  2B33               	goto	u1865
  1960  0B3B                     l1762:	
  1961  0B3B  3001               	movlw	1
  1962  0B3C  02FD               	subwf	___lldiv@counter,f
  1963  0B3D  1D03               	btfss	3,2
  1964  0B3E  2B40               	goto	u1871
  1965  0B3F  2B41               	goto	u1870
  1966  0B40                     u1871:	
  1967  0B40  2B08               	goto	l1752
  1968  0B41                     u1870:	
  1969  0B41                     l1764:	
  1970  0B41  087C               	movf	___lldiv@quotient+3,w
  1971  0B42  00F3               	movwf	?___lldiv+3
  1972  0B43  087B               	movf	___lldiv@quotient+2,w
  1973  0B44  00F2               	movwf	?___lldiv+2
  1974  0B45  087A               	movf	___lldiv@quotient+1,w
  1975  0B46  00F1               	movwf	?___lldiv+1
  1976  0B47  0879               	movf	___lldiv@quotient,w
  1977  0B48  00F0               	movwf	?___lldiv
  1978  0B49                     l308:	
  1979  0B49  0008               	return
  1980  0B4A                     __end_of___lldiv:	
  1981                           
  1982                           	psect	text4
  1983  0BC4                     __ptext4:	
  1984 ;; *************** function ___xxtofl *****************
  1985 ;; Defined at:
  1986 ;;		line 10 in file "C:\Program Files (x86)\Microchip\xc8\v2.10\pic\sources\c90\common\xxtofl.c"
  1987 ;; Parameters:    Size  Location     Type
  1988 ;;  sign            1    wreg     unsigned char 
  1989 ;;  val             4    6[COMMON] long 
  1990 ;; Auto vars:     Size  Location     Type
  1991 ;;  sign            1    0[BANK0 ] unsigned char 
  1992 ;;  arg             4    2[BANK0 ] unsigned long 
  1993 ;;  exp             1    1[BANK0 ] unsigned char 
  1994 ;; Return value:  Size  Location     Type
  1995 ;;                  4    6[COMMON] unsigned char 
  1996 ;; Registers used:
  1997 ;;		wreg, status,2, status,0
  1998 ;; Tracked objects:
  1999 ;;		On entry : 0/0
  2000 ;;		On exit  : 0/0
  2001 ;;		Unchanged: 0/0
  2002 ;; Data sizes:     COMMON   BANK0   BANK1   BANK3   BANK2
  2003 ;;      Params:         4       0       0       0       0
  2004 ;;      Locals:         0       6       0       0       0
  2005 ;;      Temps:          4       0       0       0       0
  2006 ;;      Totals:         8       6       0       0       0
  2007 ;;Total ram usage:       14 bytes
  2008 ;; Hardware stack levels used:    1
  2009 ;; This function calls:
  2010 ;;		Nothing
  2011 ;; This function is called by:
  2012 ;;		_main
  2013 ;; This function uses a non-reentrant model
  2014 ;;
  2015                           
  2016                           
  2017                           ;psect for function ___xxtofl
  2018  0BC4                     ___xxtofl:	
  2019                           
  2020                           ;incstack = 0
  2021                           ; Regs used in ___xxtofl: [wreg+status,2+status,0]
  2022                           ;___xxtofl@sign stored from wreg
  2023  0BC4  1283               	bcf	3,5	;RP0=0, select bank0
  2024  0BC5  1303               	bcf	3,6	;RP1=0, select bank0
  2025  0BC6  00A0               	movwf	___xxtofl@sign
  2026  0BC7                     l2526:	
  2027  0BC7  0820               	movf	___xxtofl@sign,w
  2028  0BC8  1903               	btfsc	3,2
  2029  0BC9  2BCB               	goto	u3461
  2030  0BCA  2BCC               	goto	u3460
  2031  0BCB                     u3461:	
  2032  0BCB  2BE0               	goto	l2532
  2033  0BCC                     u3460:	
  2034  0BCC                     l2528:	
  2035  0BCC  1FF9               	btfss	___xxtofl@val+3,7
  2036  0BCD  2BCF               	goto	u3471
  2037  0BCE  2BD0               	goto	u3470
  2038  0BCF                     u3471:	
  2039  0BCF  2BE0               	goto	l2532
  2040  0BD0                     u3470:	
  2041  0BD0                     l2530:	
  2042  0BD0  0976               	comf	___xxtofl@val,w
  2043  0BD1  00A2               	movwf	___xxtofl@arg
  2044  0BD2  0977               	comf	___xxtofl@val+1,w
  2045  0BD3  00A3               	movwf	___xxtofl@arg+1
  2046  0BD4  0978               	comf	___xxtofl@val+2,w
  2047  0BD5  00A4               	movwf	___xxtofl@arg+2
  2048  0BD6  0979               	comf	___xxtofl@val+3,w
  2049  0BD7  00A5               	movwf	___xxtofl@arg+3
  2050  0BD8  0AA2               	incf	___xxtofl@arg,f
  2051  0BD9  1903               	skipnz
  2052  0BDA  0AA3               	incf	___xxtofl@arg+1,f
  2053  0BDB  1903               	skipnz
  2054  0BDC  0AA4               	incf	___xxtofl@arg+2,f
  2055  0BDD  1903               	skipnz
  2056  0BDE  0AA5               	incf	___xxtofl@arg+3,f
  2057  0BDF  2BE8               	goto	l699
  2058  0BE0                     l2532:	
  2059  0BE0  0879               	movf	___xxtofl@val+3,w
  2060  0BE1  00A5               	movwf	___xxtofl@arg+3
  2061  0BE2  0878               	movf	___xxtofl@val+2,w
  2062  0BE3  00A4               	movwf	___xxtofl@arg+2
  2063  0BE4  0877               	movf	___xxtofl@val+1,w
  2064  0BE5  00A3               	movwf	___xxtofl@arg+1
  2065  0BE6  0876               	movf	___xxtofl@val,w
  2066  0BE7  00A2               	movwf	___xxtofl@arg
  2067  0BE8                     l699:	
  2068  0BE8  0879               	movf	___xxtofl@val+3,w
  2069  0BE9  0478               	iorwf	___xxtofl@val+2,w
  2070  0BEA  0477               	iorwf	___xxtofl@val+1,w
  2071  0BEB  0476               	iorwf	___xxtofl@val,w
  2072  0BEC  1D03               	skipz
  2073  0BED  2BEF               	goto	u3481
  2074  0BEE  2BF0               	goto	u3480
  2075  0BEF                     u3481:	
  2076  0BEF  2BF9               	goto	l2538
  2077  0BF0                     u3480:	
  2078  0BF0                     l2534:	
  2079  0BF0  3000               	movlw	0
  2080  0BF1  00F9               	movwf	?___xxtofl+3
  2081  0BF2  3000               	movlw	0
  2082  0BF3  00F8               	movwf	?___xxtofl+2
  2083  0BF4  3000               	movlw	0
  2084  0BF5  00F7               	movwf	?___xxtofl+1
  2085  0BF6  3000               	movlw	0
  2086  0BF7  00F6               	movwf	?___xxtofl
  2087  0BF8  2C7F               	goto	l701
  2088  0BF9                     l2538:	
  2089  0BF9  3096               	movlw	150
  2090  0BFA  00FA               	movwf	??___xxtofl
  2091  0BFB  087A               	movf	??___xxtofl,w
  2092  0BFC  00A1               	movwf	___xxtofl@exp
  2093  0BFD  2C0B               	goto	l2542
  2094  0BFE                     l2540:	
  2095  0BFE  3001               	movlw	1
  2096  0BFF  00FA               	movwf	??___xxtofl
  2097  0C00  087A               	movf	??___xxtofl,w
  2098  0C01  07A1               	addwf	___xxtofl@exp,f
  2099  0C02  3001               	movlw	1
  2100  0C03                     u3495:	
  2101  0C03  1003               	clrc
  2102  0C04  0CA5               	rrf	___xxtofl@arg+3,f
  2103  0C05  0CA4               	rrf	___xxtofl@arg+2,f
  2104  0C06  0CA3               	rrf	___xxtofl@arg+1,f
  2105  0C07  0CA2               	rrf	___xxtofl@arg,f
  2106  0C08  3EFF               	addlw	-1
  2107  0C09  1D03               	skipz
  2108  0C0A  2C03               	goto	u3495
  2109  0C0B                     l2542:	
  2110  0C0B  30FE               	movlw	254
  2111  0C0C  0525               	andwf	___xxtofl@arg+3,w
  2112  0C0D  1D03               	btfss	3,2
  2113  0C0E  2C10               	goto	u3501
  2114  0C0F  2C11               	goto	u3500
  2115  0C10                     u3501:	
  2116  0C10  2BFE               	goto	l2540
  2117  0C11                     u3500:	
  2118  0C11  2C2D               	goto	l705
  2119  0C12                     l2544:	
  2120  0C12  3001               	movlw	1
  2121  0C13  00FA               	movwf	??___xxtofl
  2122  0C14  087A               	movf	??___xxtofl,w
  2123  0C15  07A1               	addwf	___xxtofl@exp,f
  2124  0C16                     l2546:	
  2125  0C16  3001               	movlw	1
  2126  0C17  07A2               	addwf	___xxtofl@arg,f
  2127  0C18  3000               	movlw	0
  2128  0C19  1803               	skipnc
  2129  0C1A  3001               	movlw	1
  2130  0C1B  07A3               	addwf	___xxtofl@arg+1,f
  2131  0C1C  3000               	movlw	0
  2132  0C1D  1803               	skipnc
  2133  0C1E  3001               	movlw	1
  2134  0C1F  07A4               	addwf	___xxtofl@arg+2,f
  2135  0C20  3000               	movlw	0
  2136  0C21  1803               	skipnc
  2137  0C22  3001               	movlw	1
  2138  0C23  07A5               	addwf	___xxtofl@arg+3,f
  2139  0C24                     l2548:	
  2140  0C24  3001               	movlw	1
  2141  0C25                     u3515:	
  2142  0C25  1003               	clrc
  2143  0C26  0CA5               	rrf	___xxtofl@arg+3,f
  2144  0C27  0CA4               	rrf	___xxtofl@arg+2,f
  2145  0C28  0CA3               	rrf	___xxtofl@arg+1,f
  2146  0C29  0CA2               	rrf	___xxtofl@arg,f
  2147  0C2A  3EFF               	addlw	-1
  2148  0C2B  1D03               	skipz
  2149  0C2C  2C25               	goto	u3515
  2150  0C2D                     l705:	
  2151  0C2D  30FF               	movlw	255
  2152  0C2E  0525               	andwf	___xxtofl@arg+3,w
  2153  0C2F  1D03               	btfss	3,2
  2154  0C30  2C32               	goto	u3521
  2155  0C31  2C33               	goto	u3520
  2156  0C32                     u3521:	
  2157  0C32  2C12               	goto	l2544
  2158  0C33                     u3520:	
  2159  0C33  2C3F               	goto	l2552
  2160  0C34                     l2550:	
  2161  0C34  3001               	movlw	1
  2162  0C35  02A1               	subwf	___xxtofl@exp,f
  2163  0C36  3001               	movlw	1
  2164  0C37  00FA               	movwf	??___xxtofl
  2165  0C38                     u3535:	
  2166  0C38  1003               	clrc
  2167  0C39  0DA2               	rlf	___xxtofl@arg,f
  2168  0C3A  0DA3               	rlf	___xxtofl@arg+1,f
  2169  0C3B  0DA4               	rlf	___xxtofl@arg+2,f
  2170  0C3C  0DA5               	rlf	___xxtofl@arg+3,f
  2171  0C3D  0BFA               	decfsz	??___xxtofl,f
  2172  0C3E  2C38               	goto	u3535
  2173  0C3F                     l2552:	
  2174  0C3F  1BA4               	btfsc	___xxtofl@arg+2,7
  2175  0C40  2C42               	goto	u3541
  2176  0C41  2C43               	goto	u3540
  2177  0C42                     u3541:	
  2178  0C42  2C49               	goto	l712
  2179  0C43                     u3540:	
  2180  0C43                     l2554:	
  2181  0C43  3002               	movlw	2
  2182  0C44  0221               	subwf	___xxtofl@exp,w
  2183  0C45  1803               	skipnc
  2184  0C46  2C48               	goto	u3551
  2185  0C47  2C49               	goto	u3550
  2186  0C48                     u3551:	
  2187  0C48  2C34               	goto	l2550
  2188  0C49                     u3550:	
  2189  0C49                     l712:	
  2190  0C49  1821               	btfsc	___xxtofl@exp,0
  2191  0C4A  2C4C               	goto	u3561
  2192  0C4B  2C4D               	goto	u3560
  2193  0C4C                     u3561:	
  2194  0C4C  2C55               	goto	l713
  2195  0C4D                     u3560:	
  2196  0C4D                     l2556:	
  2197  0C4D  30FF               	movlw	255
  2198  0C4E  05A2               	andwf	___xxtofl@arg,f
  2199  0C4F  30FF               	movlw	255
  2200  0C50  05A3               	andwf	___xxtofl@arg+1,f
  2201  0C51  307F               	movlw	127
  2202  0C52  05A4               	andwf	___xxtofl@arg+2,f
  2203  0C53  30FF               	movlw	255
  2204  0C54  05A5               	andwf	___xxtofl@arg+3,f
  2205  0C55                     l713:	
  2206  0C55  1003               	clrc
  2207  0C56  0CA1               	rrf	___xxtofl@exp,f
  2208  0C57                     l2558:	
  2209  0C57  0821               	movf	___xxtofl@exp,w
  2210  0C58  00FA               	movwf	??___xxtofl
  2211  0C59  01FB               	clrf	??___xxtofl+1
  2212  0C5A  01FC               	clrf	??___xxtofl+2
  2213  0C5B  01FD               	clrf	??___xxtofl+3
  2214  0C5C  3018               	movlw	24
  2215  0C5D                     u3575:	
  2216  0C5D  1003               	clrc
  2217  0C5E  0DFA               	rlf	??___xxtofl,f
  2218  0C5F  0DFB               	rlf	??___xxtofl+1,f
  2219  0C60  0DFC               	rlf	??___xxtofl+2,f
  2220  0C61  0DFD               	rlf	??___xxtofl+3,f
  2221  0C62                     u3570:	
  2222  0C62  3EFF               	addlw	-1
  2223  0C63  1D03               	skipz
  2224  0C64  2C5D               	goto	u3575
  2225  0C65  087A               	movf	??___xxtofl,w
  2226  0C66  04A2               	iorwf	___xxtofl@arg,f
  2227  0C67  087B               	movf	??___xxtofl+1,w
  2228  0C68  04A3               	iorwf	___xxtofl@arg+1,f
  2229  0C69  087C               	movf	??___xxtofl+2,w
  2230  0C6A  04A4               	iorwf	___xxtofl@arg+2,f
  2231  0C6B  087D               	movf	??___xxtofl+3,w
  2232  0C6C  04A5               	iorwf	___xxtofl@arg+3,f
  2233  0C6D                     l2560:	
  2234  0C6D  0820               	movf	___xxtofl@sign,w
  2235  0C6E  1903               	btfsc	3,2
  2236  0C6F  2C71               	goto	u3581
  2237  0C70  2C72               	goto	u3580
  2238  0C71                     u3581:	
  2239  0C71  2C77               	goto	l2566
  2240  0C72                     u3580:	
  2241  0C72                     l2562:	
  2242  0C72  1FF9               	btfss	___xxtofl@val+3,7
  2243  0C73  2C75               	goto	u3591
  2244  0C74  2C76               	goto	u3590
  2245  0C75                     u3591:	
  2246  0C75  2C77               	goto	l2566
  2247  0C76                     u3590:	
  2248  0C76                     l2564:	
  2249  0C76  17A5               	bsf	___xxtofl@arg+3,7
  2250  0C77                     l2566:	
  2251  0C77  0825               	movf	___xxtofl@arg+3,w
  2252  0C78  00F9               	movwf	?___xxtofl+3
  2253  0C79  0824               	movf	___xxtofl@arg+2,w
  2254  0C7A  00F8               	movwf	?___xxtofl+2
  2255  0C7B  0823               	movf	___xxtofl@arg+1,w
  2256  0C7C  00F7               	movwf	?___xxtofl+1
  2257  0C7D  0822               	movf	___xxtofl@arg,w
  2258  0C7E  00F6               	movwf	?___xxtofl
  2259  0C7F                     l701:	
  2260  0C7F  0008               	return
  2261  0C80                     __end_of___xxtofl:	
  2262                           
  2263                           	psect	text5
  2264  0B4A                     __ptext5:	
  2265 ;; *************** function ___fltol *****************
  2266 ;; Defined at:
  2267 ;;		line 43 in file "C:\Program Files (x86)\Microchip\xc8\v2.10\pic\sources\c90\common\fltol.c"
  2268 ;; Parameters:    Size  Location     Type
  2269 ;;  f1              4    0[COMMON] unsigned char 
  2270 ;; Auto vars:     Size  Location     Type
  2271 ;;  exp1            1   10[COMMON] unsigned char 
  2272 ;;  sign1           1    9[COMMON] unsigned char 
  2273 ;; Return value:  Size  Location     Type
  2274 ;;                  4    0[COMMON] long 
  2275 ;; Registers used:
  2276 ;;		wreg, status,2, status,0
  2277 ;; Tracked objects:
  2278 ;;		On entry : 0/0
  2279 ;;		On exit  : 0/0
  2280 ;;		Unchanged: 0/0
  2281 ;; Data sizes:     COMMON   BANK0   BANK1   BANK3   BANK2
  2282 ;;      Params:         4       0       0       0       0
  2283 ;;      Locals:         2       0       0       0       0
  2284 ;;      Temps:          5       0       0       0       0
  2285 ;;      Totals:        11       0       0       0       0
  2286 ;;Total ram usage:       11 bytes
  2287 ;; Hardware stack levels used:    1
  2288 ;; This function calls:
  2289 ;;		Nothing
  2290 ;; This function is called by:
  2291 ;;		_main
  2292 ;; This function uses a non-reentrant model
  2293 ;;
  2294                           
  2295                           
  2296                           ;psect for function ___fltol
  2297  0B4A                     ___fltol:	
  2298  0B4A                     l2202:	
  2299                           ;incstack = 0
  2300                           ; Regs used in ___fltol: [wreg+status,2+status,0]
  2301                           
  2302  0B4A  1003               	clrc
  2303  0B4B  0D72               	rlf	___fltol@f1+2,w
  2304  0B4C  0D73               	rlf	___fltol@f1+3,w
  2305  0B4D  00F4               	movwf	??___fltol
  2306  0B4E  0874               	movf	??___fltol,w
  2307  0B4F  00FA               	movwf	___fltol@exp1
  2308  0B50  087A               	movf	___fltol@exp1,w
  2309  0B51  1D03               	btfss	3,2
  2310  0B52  2B54               	goto	u2701
  2311  0B53  2B55               	goto	u2700
  2312  0B54                     u2701:	
  2313  0B54  2B5E               	goto	l2208
  2314  0B55                     u2700:	
  2315  0B55                     l2204:	
  2316  0B55  3000               	movlw	0
  2317  0B56  00F3               	movwf	?___fltol+3
  2318  0B57  3000               	movlw	0
  2319  0B58  00F2               	movwf	?___fltol+2
  2320  0B59  3000               	movlw	0
  2321  0B5A  00F1               	movwf	?___fltol+1
  2322  0B5B  3000               	movlw	0
  2323  0B5C  00F0               	movwf	?___fltol
  2324  0B5D  2BC3               	goto	l458
  2325  0B5E                     l2208:	
  2326  0B5E  0870               	movf	___fltol@f1,w
  2327  0B5F  00F4               	movwf	??___fltol
  2328  0B60  0871               	movf	___fltol@f1+1,w
  2329  0B61  00F5               	movwf	??___fltol+1
  2330  0B62  0872               	movf	___fltol@f1+2,w
  2331  0B63  00F6               	movwf	??___fltol+2
  2332  0B64  0873               	movf	___fltol@f1+3,w
  2333  0B65  00F7               	movwf	??___fltol+3
  2334  0B66  301F               	movlw	31
  2335  0B67                     u2715:	
  2336  0B67  1003               	clrc
  2337  0B68  0CF7               	rrf	??___fltol+3,f
  2338  0B69  0CF6               	rrf	??___fltol+2,f
  2339  0B6A  0CF5               	rrf	??___fltol+1,f
  2340  0B6B  0CF4               	rrf	??___fltol,f
  2341  0B6C                     u2710:	
  2342  0B6C  3EFF               	addlw	-1
  2343  0B6D  1D03               	skipz
  2344  0B6E  2B67               	goto	u2715
  2345  0B6F  0874               	movf	??___fltol,w
  2346  0B70  00F8               	movwf	??___fltol+4
  2347  0B71  0878               	movf	??___fltol+4,w
  2348  0B72  00F9               	movwf	___fltol@sign1
  2349  0B73                     l2210:	
  2350  0B73  17F2               	bsf	___fltol@f1+2,7
  2351  0B74                     l2212:	
  2352  0B74  30FF               	movlw	255
  2353  0B75  05F0               	andwf	___fltol@f1,f
  2354  0B76  30FF               	movlw	255
  2355  0B77  05F1               	andwf	___fltol@f1+1,f
  2356  0B78  30FF               	movlw	255
  2357  0B79  05F2               	andwf	___fltol@f1+2,f
  2358  0B7A  3000               	movlw	0
  2359  0B7B  05F3               	andwf	___fltol@f1+3,f
  2360  0B7C                     l2214:	
  2361  0B7C  3096               	movlw	150
  2362  0B7D  02FA               	subwf	___fltol@exp1,f
  2363  0B7E                     l2216:	
  2364  0B7E  1FFA               	btfss	___fltol@exp1,7
  2365  0B7F  2B81               	goto	u2721
  2366  0B80  2B82               	goto	u2720
  2367  0B81                     u2721:	
  2368  0B81  2B9C               	goto	l2226
  2369  0B82                     u2720:	
  2370  0B82                     l2218:	
  2371  0B82  087A               	movf	___fltol@exp1,w
  2372  0B83  3A80               	xorlw	128
  2373  0B84  3E97               	addlw	151
  2374  0B85  1803               	skipnc
  2375  0B86  2B88               	goto	u2731
  2376  0B87  2B89               	goto	u2730
  2377  0B88                     u2731:	
  2378  0B88  2B8A               	goto	l2224
  2379  0B89                     u2730:	
  2380  0B89  2B55               	goto	l2204
  2381  0B8A                     l2224:	
  2382  0B8A  3001               	movlw	1
  2383  0B8B                     u2745:	
  2384  0B8B  1003               	clrc
  2385  0B8C  0CF3               	rrf	___fltol@f1+3,f
  2386  0B8D  0CF2               	rrf	___fltol@f1+2,f
  2387  0B8E  0CF1               	rrf	___fltol@f1+1,f
  2388  0B8F  0CF0               	rrf	___fltol@f1,f
  2389  0B90  3EFF               	addlw	-1
  2390  0B91  1D03               	skipz
  2391  0B92  2B8B               	goto	u2745
  2392  0B93  3001               	movlw	1
  2393  0B94  00F4               	movwf	??___fltol
  2394  0B95  0874               	movf	??___fltol,w
  2395  0B96  07FA               	addwf	___fltol@exp1,f
  2396  0B97  1D03               	btfss	3,2
  2397  0B98  2B9A               	goto	u2751
  2398  0B99  2B9B               	goto	u2750
  2399  0B9A                     u2751:	
  2400  0B9A  2B8A               	goto	l2224
  2401  0B9B                     u2750:	
  2402  0B9B  2BB3               	goto	l2234
  2403  0B9C                     l2226:	
  2404  0B9C  3020               	movlw	32
  2405  0B9D  027A               	subwf	___fltol@exp1,w
  2406  0B9E  1C03               	skipc
  2407  0B9F  2BA1               	goto	u2761
  2408  0BA0  2BA2               	goto	u2760
  2409  0BA1                     u2761:	
  2410  0BA1  2BAE               	goto	l465
  2411  0BA2                     u2760:	
  2412  0BA2  2B55               	goto	l2204
  2413  0BA3                     l2232:	
  2414  0BA3  3001               	movlw	1
  2415  0BA4  00F4               	movwf	??___fltol
  2416  0BA5                     u2775:	
  2417  0BA5  1003               	clrc
  2418  0BA6  0DF0               	rlf	___fltol@f1,f
  2419  0BA7  0DF1               	rlf	___fltol@f1+1,f
  2420  0BA8  0DF2               	rlf	___fltol@f1+2,f
  2421  0BA9  0DF3               	rlf	___fltol@f1+3,f
  2422  0BAA  0BF4               	decfsz	??___fltol,f
  2423  0BAB  2BA5               	goto	u2775
  2424  0BAC  3001               	movlw	1
  2425  0BAD  02FA               	subwf	___fltol@exp1,f
  2426  0BAE                     l465:	
  2427  0BAE  087A               	movf	___fltol@exp1,w
  2428  0BAF  1D03               	btfss	3,2
  2429  0BB0  2BB2               	goto	u2781
  2430  0BB1  2BB3               	goto	u2780
  2431  0BB2                     u2781:	
  2432  0BB2  2BA3               	goto	l2232
  2433  0BB3                     u2780:	
  2434  0BB3                     l2234:	
  2435  0BB3  0879               	movf	___fltol@sign1,w
  2436  0BB4  1903               	btfsc	3,2
  2437  0BB5  2BB7               	goto	u2791
  2438  0BB6  2BB8               	goto	u2790
  2439  0BB7                     u2791:	
  2440  0BB7  2BC3               	goto	l468
  2441  0BB8                     u2790:	
  2442  0BB8                     l2236:	
  2443  0BB8  09F0               	comf	___fltol@f1,f
  2444  0BB9  09F1               	comf	___fltol@f1+1,f
  2445  0BBA  09F2               	comf	___fltol@f1+2,f
  2446  0BBB  09F3               	comf	___fltol@f1+3,f
  2447  0BBC  0AF0               	incf	___fltol@f1,f
  2448  0BBD  1903               	skipnz
  2449  0BBE  0AF1               	incf	___fltol@f1+1,f
  2450  0BBF  1903               	skipnz
  2451  0BC0  0AF2               	incf	___fltol@f1+2,f
  2452  0BC1  1903               	skipnz
  2453  0BC2  0AF3               	incf	___fltol@f1+3,f
  2454  0BC3                     l468:	
  2455  0BC3                     l458:	
  2456  0BC3  0008               	return
  2457  0BC4                     __end_of___fltol:	
  2458                           
  2459                           	psect	text6
  2460  08DB                     __ptext6:	
  2461 ;; *************** function ___flsub *****************
  2462 ;; Defined at:
  2463 ;;		line 242 in file "C:\Program Files (x86)\Microchip\xc8\v2.10\pic\sources\c90\common\sprcadd.c"
  2464 ;; Parameters:    Size  Location     Type
  2465 ;;  a               4    8[BANK0 ] long 
  2466 ;;  b               4   12[BANK0 ] long 
  2467 ;; Auto vars:     Size  Location     Type
  2468 ;;		None
  2469 ;; Return value:  Size  Location     Type
  2470 ;;                  4    8[BANK0 ] long 
  2471 ;; Registers used:
  2472 ;;		wreg, status,2, status,0, btemp+1, pclath, cstack
  2473 ;; Tracked objects:
  2474 ;;		On entry : 0/0
  2475 ;;		On exit  : 0/0
  2476 ;;		Unchanged: 0/0
  2477 ;; Data sizes:     COMMON   BANK0   BANK1   BANK3   BANK2
  2478 ;;      Params:         0       8       0       0       0
  2479 ;;      Locals:         0       0       0       0       0
  2480 ;;      Temps:          0       0       0       0       0
  2481 ;;      Totals:         0       8       0       0       0
  2482 ;;Total ram usage:        8 bytes
  2483 ;; Hardware stack levels used:    1
  2484 ;; Hardware stack levels required when called:    1
  2485 ;; This function calls:
  2486 ;;		___fladd
  2487 ;; This function is called by:
  2488 ;;		_main
  2489 ;; This function uses a non-reentrant model
  2490 ;;
  2491                           
  2492                           
  2493                           ;psect for function ___flsub
  2494  08DB                     ___flsub:	
  2495  08DB                     l2238:	
  2496                           ;incstack = 0
  2497                           ; Regs used in ___flsub: [wreg+status,2+status,0+btemp+1+pclath+cstack]
  2498                           
  2499  08DB  3080               	movlw	128
  2500  08DC  1283               	bcf	3,5	;RP0=0, select bank0
  2501  08DD  1303               	bcf	3,6	;RP1=0, select bank0
  2502  08DE  06AB               	xorwf	___flsub@a+3,f
  2503  08DF                     l2240:	
  2504  08DF  082F               	movf	___flsub@b+3,w
  2505  08E0  00F3               	movwf	___fladd@b+3
  2506  08E1  082E               	movf	___flsub@b+2,w
  2507  08E2  00F2               	movwf	___fladd@b+2
  2508  08E3  082D               	movf	___flsub@b+1,w
  2509  08E4  00F1               	movwf	___fladd@b+1
  2510  08E5  082C               	movf	___flsub@b,w
  2511  08E6  00F0               	movwf	___fladd@b
  2512  08E7  082B               	movf	___flsub@a+3,w
  2513  08E8  00F7               	movwf	___fladd@a+3
  2514  08E9  082A               	movf	___flsub@a+2,w
  2515  08EA  00F6               	movwf	___fladd@a+2
  2516  08EB  0829               	movf	___flsub@a+1,w
  2517  08EC  00F5               	movwf	___fladd@a+1
  2518  08ED  0828               	movf	___flsub@a,w
  2519  08EE  00F4               	movwf	___fladd@a
  2520  08EF  120A  158A  2568  120A  158A  	fcall	___fladd
  2521  08F4  0873               	movf	?___fladd+3,w
  2522  08F5  1283               	bcf	3,5	;RP0=0, select bank0
  2523  08F6  1303               	bcf	3,6	;RP1=0, select bank0
  2524  08F7  00AB               	movwf	?___flsub+3
  2525  08F8  0872               	movf	?___fladd+2,w
  2526  08F9  00AA               	movwf	?___flsub+2
  2527  08FA  0871               	movf	?___fladd+1,w
  2528  08FB  00A9               	movwf	?___flsub+1
  2529  08FC  0870               	movf	?___fladd,w
  2530  08FD  00A8               	movwf	?___flsub
  2531  08FE                     l611:	
  2532  08FE  0008               	return
  2533  08FF                     __end_of___flsub:	
  2534                           
  2535                           	psect	text7
  2536  0D68                     __ptext7:	
  2537 ;; *************** function ___fladd *****************
  2538 ;; Defined at:
  2539 ;;		line 10 in file "C:\Program Files (x86)\Microchip\xc8\v2.10\pic\sources\c90\common\sprcadd.c"
  2540 ;; Parameters:    Size  Location     Type
  2541 ;;  b               4    0[COMMON] long 
  2542 ;;  a               4    4[COMMON] long 
  2543 ;; Auto vars:     Size  Location     Type
  2544 ;;  grs             1   11[COMMON] unsigned char 
  2545 ;;  bexp            1   10[COMMON] unsigned char 
  2546 ;;  aexp            1    9[COMMON] unsigned char 
  2547 ;;  signs           1    8[COMMON] unsigned char 
  2548 ;; Return value:  Size  Location     Type
  2549 ;;                  4    0[COMMON] unsigned char 
  2550 ;; Registers used:
  2551 ;;		wreg, status,2, status,0, btemp+1
  2552 ;; Tracked objects:
  2553 ;;		On entry : 0/0
  2554 ;;		On exit  : 0/0
  2555 ;;		Unchanged: 0/0
  2556 ;; Data sizes:     COMMON   BANK0   BANK1   BANK3   BANK2
  2557 ;;      Params:         8       0       0       0       0
  2558 ;;      Locals:         4       0       0       0       0
  2559 ;;      Temps:          0       8       0       0       0
  2560 ;;      Totals:        12       8       0       0       0
  2561 ;;Total ram usage:       20 bytes
  2562 ;; Hardware stack levels used:    1
  2563 ;; This function calls:
  2564 ;;		Nothing
  2565 ;; This function is called by:
  2566 ;;		___flsub
  2567 ;; This function uses a non-reentrant model
  2568 ;;
  2569                           
  2570                           
  2571                           ;psect for function ___fladd
  2572  0D68                     ___fladd:	
  2573  0D68                     l1924:	
  2574                           ;incstack = 0
  2575                           ; Regs used in ___fladd: [wreg+status,2+status,0+btemp+1]
  2576                           
  2577  0D68  0873               	movf	___fladd@b+3,w
  2578  0D69  3980               	andlw	128
  2579  0D6A  1283               	bcf	3,5	;RP0=0, select bank0
  2580  0D6B  1303               	bcf	3,6	;RP1=0, select bank0
  2581  0D6C  00A0               	movwf	??___fladd
  2582  0D6D  0820               	movf	??___fladd,w
  2583  0D6E  00F8               	movwf	___fladd@signs
  2584  0D6F                     l1926:	
  2585  0D6F  0873               	movf	___fladd@b+3,w
  2586  0D70  00A0               	movwf	??___fladd
  2587  0D71  0720               	addwf	??___fladd,w
  2588  0D72  00A1               	movwf	??___fladd+1
  2589  0D73  0821               	movf	??___fladd+1,w
  2590  0D74  00FA               	movwf	___fladd@bexp
  2591  0D75                     l1928:	
  2592  0D75  1FF2               	btfss	___fladd@b+2,7
  2593  0D76  2D78               	goto	u2181
  2594  0D77  2D79               	goto	u2180
  2595  0D78                     u2181:	
  2596  0D78  2D7A               	goto	l1932
  2597  0D79                     u2180:	
  2598  0D79                     l1930:	
  2599  0D79  147A               	bsf	___fladd@bexp,0
  2600  0D7A                     l1932:	
  2601  0D7A  087A               	movf	___fladd@bexp,w
  2602  0D7B  1903               	btfsc	3,2
  2603  0D7C  2D7E               	goto	u2191
  2604  0D7D  2D7F               	goto	u2190
  2605  0D7E                     u2191:	
  2606  0D7E  2D8F               	goto	l1942
  2607  0D7F                     u2190:	
  2608  0D7F                     l1934:	
  2609  0D7F  0A7A               	incf	___fladd@bexp,w
  2610  0D80  1D03               	btfss	3,2
  2611  0D81  2D83               	goto	u2201
  2612  0D82  2D84               	goto	u2200
  2613  0D83                     u2201:	
  2614  0D83  2D8C               	goto	l1938
  2615  0D84                     u2200:	
  2616  0D84                     l1936:	
  2617  0D84  3000               	movlw	0
  2618  0D85  00F3               	movwf	___fladd@b+3
  2619  0D86  3000               	movlw	0
  2620  0D87  00F2               	movwf	___fladd@b+2
  2621  0D88  3000               	movlw	0
  2622  0D89  00F1               	movwf	___fladd@b+1
  2623  0D8A  3000               	movlw	0
  2624  0D8B  00F0               	movwf	___fladd@b
  2625  0D8C                     l1938:	
  2626  0D8C  17F2               	bsf	___fladd@b+2,7
  2627  0D8D                     l1940:	
  2628  0D8D  01F3               	clrf	___fladd@b+3
  2629  0D8E  2D97               	goto	l1944
  2630  0D8F                     l1942:	
  2631  0D8F  3000               	movlw	0
  2632  0D90  00F3               	movwf	___fladd@b+3
  2633  0D91  3000               	movlw	0
  2634  0D92  00F2               	movwf	___fladd@b+2
  2635  0D93  3000               	movlw	0
  2636  0D94  00F1               	movwf	___fladd@b+1
  2637  0D95  3000               	movlw	0
  2638  0D96  00F0               	movwf	___fladd@b
  2639  0D97                     l1944:	
  2640  0D97  0877               	movf	___fladd@a+3,w
  2641  0D98  3980               	andlw	128
  2642  0D99  00A0               	movwf	??___fladd
  2643  0D9A  0820               	movf	??___fladd,w
  2644  0D9B  00F9               	movwf	___fladd@aexp
  2645  0D9C                     l1946:	
  2646  0D9C  0879               	movf	___fladd@aexp,w
  2647  0D9D  0678               	xorwf	___fladd@signs,w
  2648  0D9E  1903               	skipnz
  2649  0D9F  2DA1               	goto	u2211
  2650  0DA0  2DA2               	goto	u2210
  2651  0DA1                     u2211:	
  2652  0DA1  2DA3               	goto	l1950
  2653  0DA2                     u2210:	
  2654  0DA2                     l1948:	
  2655  0DA2  1778               	bsf	___fladd@signs,6
  2656  0DA3                     l1950:	
  2657  0DA3  0877               	movf	___fladd@a+3,w
  2658  0DA4  00A0               	movwf	??___fladd
  2659  0DA5  0720               	addwf	??___fladd,w
  2660  0DA6  00A1               	movwf	??___fladd+1
  2661  0DA7  0821               	movf	??___fladd+1,w
  2662  0DA8  00F9               	movwf	___fladd@aexp
  2663  0DA9                     l1952:	
  2664  0DA9  1FF6               	btfss	___fladd@a+2,7
  2665  0DAA  2DAC               	goto	u2221
  2666  0DAB  2DAD               	goto	u2220
  2667  0DAC                     u2221:	
  2668  0DAC  2DAE               	goto	l1956
  2669  0DAD                     u2220:	
  2670  0DAD                     l1954:	
  2671  0DAD  1479               	bsf	___fladd@aexp,0
  2672  0DAE                     l1956:	
  2673  0DAE  0879               	movf	___fladd@aexp,w
  2674  0DAF  1903               	btfsc	3,2
  2675  0DB0  2DB2               	goto	u2231
  2676  0DB1  2DB3               	goto	u2230
  2677  0DB2                     u2231:	
  2678  0DB2  2DC3               	goto	l1966
  2679  0DB3                     u2230:	
  2680  0DB3                     l1958:	
  2681  0DB3  0A79               	incf	___fladd@aexp,w
  2682  0DB4  1D03               	btfss	3,2
  2683  0DB5  2DB7               	goto	u2241
  2684  0DB6  2DB8               	goto	u2240
  2685  0DB7                     u2241:	
  2686  0DB7  2DC0               	goto	l1962
  2687  0DB8                     u2240:	
  2688  0DB8                     l1960:	
  2689  0DB8  3000               	movlw	0
  2690  0DB9  00F7               	movwf	___fladd@a+3
  2691  0DBA  3000               	movlw	0
  2692  0DBB  00F6               	movwf	___fladd@a+2
  2693  0DBC  3000               	movlw	0
  2694  0DBD  00F5               	movwf	___fladd@a+1
  2695  0DBE  3000               	movlw	0
  2696  0DBF  00F4               	movwf	___fladd@a
  2697  0DC0                     l1962:	
  2698  0DC0  17F6               	bsf	___fladd@a+2,7
  2699  0DC1                     l1964:	
  2700  0DC1  01F7               	clrf	___fladd@a+3
  2701  0DC2  2DCB               	goto	l565
  2702  0DC3                     l1966:	
  2703  0DC3  3000               	movlw	0
  2704  0DC4  00F7               	movwf	___fladd@a+3
  2705  0DC5  3000               	movlw	0
  2706  0DC6  00F6               	movwf	___fladd@a+2
  2707  0DC7  3000               	movlw	0
  2708  0DC8  00F5               	movwf	___fladd@a+1
  2709  0DC9  3000               	movlw	0
  2710  0DCA  00F4               	movwf	___fladd@a
  2711  0DCB                     l565:	
  2712  0DCB  087A               	movf	___fladd@bexp,w
  2713  0DCC  0279               	subwf	___fladd@aexp,w
  2714  0DCD  1803               	skipnc
  2715  0DCE  2DD0               	goto	u2251
  2716  0DCF  2DD1               	goto	u2250
  2717  0DD0                     u2251:	
  2718  0DD0  2E15               	goto	l2002
  2719  0DD1                     u2250:	
  2720  0DD1                     l1968:	
  2721  0DD1  1F78               	btfss	___fladd@signs,6
  2722  0DD2  2DD4               	goto	u2261
  2723  0DD3  2DD5               	goto	u2260
  2724  0DD4                     u2261:	
  2725  0DD4  2DD9               	goto	l1972
  2726  0DD5                     u2260:	
  2727  0DD5                     l1970:	
  2728  0DD5  3080               	movlw	128
  2729  0DD6  00A0               	movwf	??___fladd
  2730  0DD7  0820               	movf	??___fladd,w
  2731  0DD8  06F8               	xorwf	___fladd@signs,f
  2732  0DD9                     l1972:	
  2733  0DD9  087A               	movf	___fladd@bexp,w
  2734  0DDA  00A0               	movwf	??___fladd
  2735  0DDB  0820               	movf	??___fladd,w
  2736  0DDC  00FB               	movwf	___fladd@grs
  2737  0DDD                     l1974:	
  2738  0DDD  0879               	movf	___fladd@aexp,w
  2739  0DDE  00A0               	movwf	??___fladd
  2740  0DDF  0820               	movf	??___fladd,w
  2741  0DE0  00FA               	movwf	___fladd@bexp
  2742  0DE1                     l1976:	
  2743  0DE1  087B               	movf	___fladd@grs,w
  2744  0DE2  00A0               	movwf	??___fladd
  2745  0DE3  0820               	movf	??___fladd,w
  2746  0DE4  00F9               	movwf	___fladd@aexp
  2747  0DE5                     l1978:	
  2748  0DE5  0870               	movf	___fladd@b,w
  2749  0DE6  00A0               	movwf	??___fladd
  2750  0DE7  0820               	movf	??___fladd,w
  2751  0DE8  00FB               	movwf	___fladd@grs
  2752  0DE9                     l1980:	
  2753  0DE9  0874               	movf	___fladd@a,w
  2754  0DEA  00A0               	movwf	??___fladd
  2755  0DEB  0820               	movf	??___fladd,w
  2756  0DEC  00F0               	movwf	___fladd@b
  2757  0DED                     l1982:	
  2758  0DED  087B               	movf	___fladd@grs,w
  2759  0DEE  00A0               	movwf	??___fladd
  2760  0DEF  0820               	movf	??___fladd,w
  2761  0DF0  00F4               	movwf	___fladd@a
  2762  0DF1                     l1984:	
  2763  0DF1  0871               	movf	___fladd@b+1,w
  2764  0DF2  00A0               	movwf	??___fladd
  2765  0DF3  0820               	movf	??___fladd,w
  2766  0DF4  00FB               	movwf	___fladd@grs
  2767  0DF5                     l1986:	
  2768  0DF5  0875               	movf	___fladd@a+1,w
  2769  0DF6  00A0               	movwf	??___fladd
  2770  0DF7  0820               	movf	??___fladd,w
  2771  0DF8  00F1               	movwf	___fladd@b+1
  2772  0DF9                     l1988:	
  2773  0DF9  087B               	movf	___fladd@grs,w
  2774  0DFA  00A0               	movwf	??___fladd
  2775  0DFB  0820               	movf	??___fladd,w
  2776  0DFC  00F5               	movwf	___fladd@a+1
  2777  0DFD                     l1990:	
  2778  0DFD  0872               	movf	___fladd@b+2,w
  2779  0DFE  00A0               	movwf	??___fladd
  2780  0DFF  0820               	movf	??___fladd,w
  2781  0E00  00FB               	movwf	___fladd@grs
  2782  0E01                     l1992:	
  2783  0E01  0876               	movf	___fladd@a+2,w
  2784  0E02  00A0               	movwf	??___fladd
  2785  0E03  0820               	movf	??___fladd,w
  2786  0E04  00F2               	movwf	___fladd@b+2
  2787  0E05                     l1994:	
  2788  0E05  087B               	movf	___fladd@grs,w
  2789  0E06  00A0               	movwf	??___fladd
  2790  0E07  0820               	movf	??___fladd,w
  2791  0E08  00F6               	movwf	___fladd@a+2
  2792  0E09                     l1996:	
  2793  0E09  0873               	movf	___fladd@b+3,w
  2794  0E0A  00A0               	movwf	??___fladd
  2795  0E0B  0820               	movf	??___fladd,w
  2796  0E0C  00FB               	movwf	___fladd@grs
  2797  0E0D                     l1998:	
  2798  0E0D  0877               	movf	___fladd@a+3,w
  2799  0E0E  00A0               	movwf	??___fladd
  2800  0E0F  0820               	movf	??___fladd,w
  2801  0E10  00F3               	movwf	___fladd@b+3
  2802  0E11                     l2000:	
  2803  0E11  087B               	movf	___fladd@grs,w
  2804  0E12  00A0               	movwf	??___fladd
  2805  0E13  0820               	movf	??___fladd,w
  2806  0E14  00F7               	movwf	___fladd@a+3
  2807  0E15                     l2002:	
  2808  0E15  01FB               	clrf	___fladd@grs
  2809  0E16                     l2004:	
  2810  0E16  0879               	movf	___fladd@aexp,w
  2811  0E17  00A0               	movwf	??___fladd
  2812  0E18  01A1               	clrf	??___fladd+1
  2813  0E19  0821               	movf	??___fladd+1,w
  2814  0E1A  00A3               	movwf	??___fladd+3
  2815  0E1B  087A               	movf	___fladd@bexp,w
  2816  0E1C  0220               	subwf	??___fladd,w
  2817  0E1D  00A2               	movwf	??___fladd+2
  2818  0E1E  1C03               	skipc
  2819  0E1F  03A3               	decf	??___fladd+3,f
  2820  0E20  0823               	movf	??___fladd+3,w
  2821  0E21  3A80               	xorlw	128
  2822  0E22  00FF               	movwf	btemp+1
  2823  0E23  3080               	movlw	128
  2824  0E24  027F               	subwf	btemp+1,w
  2825  0E25  1D03               	skipz
  2826  0E26  2E29               	goto	u2275
  2827  0E27  301A               	movlw	26
  2828  0E28  0222               	subwf	??___fladd+2,w
  2829  0E29                     u2275:	
  2830  0E29  1C03               	skipc
  2831  0E2A  2E2C               	goto	u2271
  2832  0E2B  2E2D               	goto	u2270
  2833  0E2C                     u2271:	
  2834  0E2C  2E6E               	goto	l2020
  2835  0E2D                     u2270:	
  2836  0E2D                     l2006:	
  2837  0E2D  0873               	movf	___fladd@b+3,w
  2838  0E2E  0472               	iorwf	___fladd@b+2,w
  2839  0E2F  0471               	iorwf	___fladd@b+1,w
  2840  0E30  0470               	iorwf	___fladd@b,w
  2841  0E31  1D03               	skipz
  2842  0E32  2E34               	goto	u2281
  2843  0E33  2E36               	goto	u2280
  2844  0E34                     u2281:	
  2845  0E34  3001               	movlw	1
  2846  0E35  2E37               	goto	u2290
  2847  0E36                     u2280:	
  2848  0E36  3000               	movlw	0
  2849  0E37                     u2290:	
  2850  0E37  1283               	bcf	3,5	;RP0=0, select bank0
  2851  0E38  1303               	bcf	3,6	;RP1=0, select bank0
  2852  0E39  00A0               	movwf	??___fladd
  2853  0E3A  0820               	movf	??___fladd,w
  2854  0E3B  00FB               	movwf	___fladd@grs
  2855  0E3C  3000               	movlw	0
  2856  0E3D  00F3               	movwf	___fladd@b+3
  2857  0E3E  3000               	movlw	0
  2858  0E3F  00F2               	movwf	___fladd@b+2
  2859  0E40  3000               	movlw	0
  2860  0E41  00F1               	movwf	___fladd@b+1
  2861  0E42  3000               	movlw	0
  2862  0E43  00F0               	movwf	___fladd@b
  2863  0E44  0879               	movf	___fladd@aexp,w
  2864  0E45  00A0               	movwf	??___fladd
  2865  0E46  0820               	movf	??___fladd,w
  2866  0E47  00FA               	movwf	___fladd@bexp
  2867  0E48  2E74               	goto	l569
  2868  0E49                     l571:	
  2869  0E49  1C7B               	btfss	___fladd@grs,0
  2870  0E4A  2E4C               	goto	u2301
  2871  0E4B  2E4D               	goto	u2300
  2872  0E4C                     u2301:	
  2873  0E4C  2E58               	goto	l2010
  2874  0E4D                     u2300:	
  2875  0E4D                     l2008:	
  2876  0E4D  087B               	movf	___fladd@grs,w
  2877  0E4E  1283               	bcf	3,5	;RP0=0, select bank0
  2878  0E4F  1303               	bcf	3,6	;RP1=0, select bank0
  2879  0E50  00A0               	movwf	??___fladd
  2880  0E51  1003               	clrc
  2881  0E52  0C20               	rrf	??___fladd,w
  2882  0E53  3801               	iorlw	1
  2883  0E54  00A1               	movwf	??___fladd+1
  2884  0E55  0821               	movf	??___fladd+1,w
  2885  0E56  00FB               	movwf	___fladd@grs
  2886  0E57  2E5A               	goto	l2012
  2887  0E58                     l2010:	
  2888  0E58  1003               	clrc
  2889  0E59  0CFB               	rrf	___fladd@grs,f
  2890  0E5A                     l2012:	
  2891  0E5A  1C70               	btfss	___fladd@b,0
  2892  0E5B  2E5D               	goto	u2311
  2893  0E5C  2E5E               	goto	u2310
  2894  0E5D                     u2311:	
  2895  0E5D  2E5F               	goto	l2016
  2896  0E5E                     u2310:	
  2897  0E5E                     l2014:	
  2898  0E5E  17FB               	bsf	___fladd@grs,7
  2899  0E5F                     l2016:	
  2900  0E5F  3001               	movlw	1
  2901  0E60  1283               	bcf	3,5	;RP0=0, select bank0
  2902  0E61  1303               	bcf	3,6	;RP1=0, select bank0
  2903  0E62  00A0               	movwf	??___fladd
  2904  0E63                     u2325:	
  2905  0E63  0D73               	rlf	___fladd@b+3,w
  2906  0E64  0CF3               	rrf	___fladd@b+3,f
  2907  0E65  0CF2               	rrf	___fladd@b+2,f
  2908  0E66  0CF1               	rrf	___fladd@b+1,f
  2909  0E67  0CF0               	rrf	___fladd@b,f
  2910  0E68  0BA0               	decfsz	??___fladd& (0+127),f
  2911  0E69  2E63               	goto	u2325
  2912  0E6A                     l2018:	
  2913  0E6A  3001               	movlw	1
  2914  0E6B  00A0               	movwf	??___fladd
  2915  0E6C  0820               	movf	??___fladd,w
  2916  0E6D  07FA               	addwf	___fladd@bexp,f
  2917  0E6E                     l2020:	
  2918  0E6E  0879               	movf	___fladd@aexp,w
  2919  0E6F  027A               	subwf	___fladd@bexp,w
  2920  0E70  1C03               	skipc
  2921  0E71  2E73               	goto	u2331
  2922  0E72  2E74               	goto	u2330
  2923  0E73                     u2331:	
  2924  0E73  2E49               	goto	l571
  2925  0E74                     u2330:	
  2926  0E74                     l569:	
  2927  0E74  1B78               	btfsc	___fladd@signs,6
  2928  0E75  2E77               	goto	u2341
  2929  0E76  2E78               	goto	u2340
  2930  0E77                     u2341:	
  2931  0E77  2EC7               	goto	l2046
  2932  0E78                     u2340:	
  2933  0E78                     l2022:	
  2934  0E78  087A               	movf	___fladd@bexp,w
  2935  0E79  1D03               	btfss	3,2
  2936  0E7A  2E7C               	goto	u2351
  2937  0E7B  2E7D               	goto	u2350
  2938  0E7C                     u2351:	
  2939  0E7C  2E86               	goto	l2028
  2940  0E7D                     u2350:	
  2941  0E7D                     l2024:	
  2942  0E7D  3000               	movlw	0
  2943  0E7E  00F3               	movwf	?___fladd+3
  2944  0E7F  3000               	movlw	0
  2945  0E80  00F2               	movwf	?___fladd+2
  2946  0E81  3000               	movlw	0
  2947  0E82  00F1               	movwf	?___fladd+1
  2948  0E83  3000               	movlw	0
  2949  0E84  00F0               	movwf	?___fladd
  2950  0E85  2FFF               	goto	l578
  2951  0E86                     l2028:	
  2952  0E86  0874               	movf	___fladd@a,w
  2953  0E87  07F0               	addwf	___fladd@b,f
  2954  0E88  0875               	movf	___fladd@a+1,w
  2955  0E89  1103               	clrz
  2956  0E8A  1803               	skipnc
  2957  0E8B  3E01               	addlw	1
  2958  0E8C  1903               	skipnz
  2959  0E8D  2E8F               	goto	u2361
  2960  0E8E  07F1               	addwf	___fladd@b+1,f
  2961  0E8F                     u2361:	
  2962  0E8F  0876               	movf	___fladd@a+2,w
  2963  0E90  1103               	clrz
  2964  0E91  1803               	skipnc
  2965  0E92  3E01               	addlw	1
  2966  0E93  1903               	skipnz
  2967  0E94  2E96               	goto	u2362
  2968  0E95  07F2               	addwf	___fladd@b+2,f
  2969  0E96                     u2362:	
  2970  0E96  0877               	movf	___fladd@a+3,w
  2971  0E97  1103               	clrz
  2972  0E98  1803               	skipnc
  2973  0E99  3E01               	addlw	1
  2974  0E9A  1903               	skipnz
  2975  0E9B  2E9D               	goto	u2363
  2976  0E9C  07F3               	addwf	___fladd@b+3,f
  2977  0E9D                     u2363:	
  2978  0E9D                     l2030:	
  2979  0E9D  1C73               	btfss	___fladd@b+3,0
  2980  0E9E  2EA0               	goto	u2371
  2981  0E9F  2EA1               	goto	u2370
  2982  0EA0                     u2371:	
  2983  0EA0  2F7F               	goto	l2080
  2984  0EA1                     u2370:	
  2985  0EA1                     l2032:	
  2986  0EA1  1C7B               	btfss	___fladd@grs,0
  2987  0EA2  2EA4               	goto	u2381
  2988  0EA3  2EA5               	goto	u2380
  2989  0EA4                     u2381:	
  2990  0EA4  2EB0               	goto	l2036
  2991  0EA5                     u2380:	
  2992  0EA5                     l2034:	
  2993  0EA5  087B               	movf	___fladd@grs,w
  2994  0EA6  1283               	bcf	3,5	;RP0=0, select bank0
  2995  0EA7  1303               	bcf	3,6	;RP1=0, select bank0
  2996  0EA8  00A0               	movwf	??___fladd
  2997  0EA9  1003               	clrc
  2998  0EAA  0C20               	rrf	??___fladd,w
  2999  0EAB  3801               	iorlw	1
  3000  0EAC  00A1               	movwf	??___fladd+1
  3001  0EAD  0821               	movf	??___fladd+1,w
  3002  0EAE  00FB               	movwf	___fladd@grs
  3003  0EAF  2EB2               	goto	l2038
  3004  0EB0                     l2036:	
  3005  0EB0  1003               	clrc
  3006  0EB1  0CFB               	rrf	___fladd@grs,f
  3007  0EB2                     l2038:	
  3008  0EB2  1C70               	btfss	___fladd@b,0
  3009  0EB3  2EB5               	goto	u2391
  3010  0EB4  2EB6               	goto	u2390
  3011  0EB5                     u2391:	
  3012  0EB5  2EB7               	goto	l2042
  3013  0EB6                     u2390:	
  3014  0EB6                     l2040:	
  3015  0EB6  17FB               	bsf	___fladd@grs,7
  3016  0EB7                     l2042:	
  3017  0EB7  3001               	movlw	1
  3018  0EB8  1283               	bcf	3,5	;RP0=0, select bank0
  3019  0EB9  1303               	bcf	3,6	;RP1=0, select bank0
  3020  0EBA  00A0               	movwf	??___fladd
  3021  0EBB                     u2405:	
  3022  0EBB  0D73               	rlf	___fladd@b+3,w
  3023  0EBC  0CF3               	rrf	___fladd@b+3,f
  3024  0EBD  0CF2               	rrf	___fladd@b+2,f
  3025  0EBE  0CF1               	rrf	___fladd@b+1,f
  3026  0EBF  0CF0               	rrf	___fladd@b,f
  3027  0EC0  0BA0               	decfsz	??___fladd& (0+127),f
  3028  0EC1  2EBB               	goto	u2405
  3029  0EC2                     l2044:	
  3030  0EC2  3001               	movlw	1
  3031  0EC3  00A0               	movwf	??___fladd
  3032  0EC4  0820               	movf	??___fladd,w
  3033  0EC5  07FA               	addwf	___fladd@bexp,f
  3034  0EC6  2F7F               	goto	l2080
  3035  0EC7                     l2046:	
  3036  0EC7  0873               	movf	___fladd@b+3,w
  3037  0EC8  3A80               	xorlw	128
  3038  0EC9  00FF               	movwf	btemp+1
  3039  0ECA  0877               	movf	___fladd@a+3,w
  3040  0ECB  3A80               	xorlw	128
  3041  0ECC  027F               	subwf	btemp+1,w
  3042  0ECD  1D03               	skipz
  3043  0ECE  2ED9               	goto	u2413
  3044  0ECF  0876               	movf	___fladd@a+2,w
  3045  0ED0  0272               	subwf	___fladd@b+2,w
  3046  0ED1  1D03               	skipz
  3047  0ED2  2ED9               	goto	u2413
  3048  0ED3  0875               	movf	___fladd@a+1,w
  3049  0ED4  0271               	subwf	___fladd@b+1,w
  3050  0ED5  1D03               	skipz
  3051  0ED6  2ED9               	goto	u2413
  3052  0ED7  0874               	movf	___fladd@a,w
  3053  0ED8  0270               	subwf	___fladd@b,w
  3054  0ED9                     u2413:	
  3055  0ED9  1803               	skipnc
  3056  0EDA  2EDC               	goto	u2411
  3057  0EDB  2EDD               	goto	u2410
  3058  0EDC                     u2411:	
  3059  0EDC  2F37               	goto	l2056
  3060  0EDD                     u2410:	
  3061  0EDD                     l2048:	
  3062  0EDD  30FF               	movlw	255
  3063  0EDE  1283               	bcf	3,5	;RP0=0, select bank0
  3064  0EDF  1303               	bcf	3,6	;RP1=0, select bank0
  3065  0EE0  00A0               	movwf	??___fladd
  3066  0EE1  30FF               	movlw	255
  3067  0EE2  00A1               	movwf	??___fladd+1
  3068  0EE3  30FF               	movlw	255
  3069  0EE4  00A2               	movwf	??___fladd+2
  3070  0EE5  30FF               	movlw	255
  3071  0EE6  00A3               	movwf	??___fladd+3
  3072  0EE7  0874               	movf	___fladd@a,w
  3073  0EE8  00A4               	movwf	??___fladd+4
  3074  0EE9  0875               	movf	___fladd@a+1,w
  3075  0EEA  00A5               	movwf	??___fladd+5
  3076  0EEB  0876               	movf	___fladd@a+2,w
  3077  0EEC  00A6               	movwf	??___fladd+6
  3078  0EED  0877               	movf	___fladd@a+3,w
  3079  0EEE  00A7               	movwf	??___fladd+7
  3080  0EEF  0870               	movf	___fladd@b,w
  3081  0EF0  02A4               	subwf	??___fladd+4,f
  3082  0EF1  0871               	movf	___fladd@b+1,w
  3083  0EF2  1C03               	skipc
  3084  0EF3  0F71               	incfsz	___fladd@b+1,w
  3085  0EF4  2EF6               	goto	u2421
  3086  0EF5  2EF7               	goto	u2422
  3087  0EF6                     u2421:	
  3088  0EF6  02A5               	subwf	??___fladd+5,f
  3089  0EF7                     u2422:	
  3090  0EF7  0872               	movf	___fladd@b+2,w
  3091  0EF8  1C03               	skipc
  3092  0EF9  0F72               	incfsz	___fladd@b+2,w
  3093  0EFA  2EFC               	goto	u2423
  3094  0EFB  2EFD               	goto	u2424
  3095  0EFC                     u2423:	
  3096  0EFC  02A6               	subwf	??___fladd+6,f
  3097  0EFD                     u2424:	
  3098  0EFD  0873               	movf	___fladd@b+3,w
  3099  0EFE  1C03               	skipc
  3100  0EFF  0F73               	incfsz	___fladd@b+3,w
  3101  0F00  2F02               	goto	u2425
  3102  0F01  2F03               	goto	u2426
  3103  0F02                     u2425:	
  3104  0F02  02A7               	subwf	??___fladd+7,f
  3105  0F03                     u2426:	
  3106  0F03  0824               	movf	??___fladd+4,w
  3107  0F04  07A0               	addwf	??___fladd,f
  3108  0F05  0825               	movf	??___fladd+5,w
  3109  0F06  1803               	skipnc
  3110  0F07  0F25               	incfsz	??___fladd+5,w
  3111  0F08  2F0A               	goto	u2430
  3112  0F09  2F0B               	goto	u2431
  3113  0F0A                     u2430:	
  3114  0F0A  07A1               	addwf	??___fladd+1,f
  3115  0F0B                     u2431:	
  3116  0F0B  0826               	movf	??___fladd+6,w
  3117  0F0C  1803               	skipnc
  3118  0F0D  0F26               	incfsz	??___fladd+6,w
  3119  0F0E  2F10               	goto	u2432
  3120  0F0F  2F11               	goto	u2433
  3121  0F10                     u2432:	
  3122  0F10  07A2               	addwf	??___fladd+2,f
  3123  0F11                     u2433:	
  3124  0F11  0827               	movf	??___fladd+7,w
  3125  0F12  1803               	skipnc
  3126  0F13  0A27               	incf	??___fladd+7,w
  3127  0F14  07A3               	addwf	??___fladd+3,f
  3128  0F15  0823               	movf	??___fladd+3,w
  3129  0F16  00F3               	movwf	___fladd@b+3
  3130  0F17  0822               	movf	??___fladd+2,w
  3131  0F18  00F2               	movwf	___fladd@b+2
  3132  0F19  0821               	movf	??___fladd+1,w
  3133  0F1A  00F1               	movwf	___fladd@b+1
  3134  0F1B  0820               	movf	??___fladd,w
  3135  0F1C  00F0               	movwf	___fladd@b
  3136  0F1D                     l2050:	
  3137  0F1D  3080               	movlw	128
  3138  0F1E  00A0               	movwf	??___fladd
  3139  0F1F  0820               	movf	??___fladd,w
  3140  0F20  06F8               	xorwf	___fladd@signs,f
  3141  0F21  09FB               	comf	___fladd@grs,f
  3142  0F22  0AFB               	incf	___fladd@grs,f
  3143  0F23                     l2052:	
  3144  0F23  087B               	movf	___fladd@grs,w
  3145  0F24  1D03               	btfss	3,2
  3146  0F25  2F27               	goto	u2441
  3147  0F26  2F28               	goto	u2440
  3148  0F27                     u2441:	
  3149  0F27  2F45               	goto	l586
  3150  0F28                     u2440:	
  3151  0F28                     l2054:	
  3152  0F28  3001               	movlw	1
  3153  0F29  07F0               	addwf	___fladd@b,f
  3154  0F2A  3000               	movlw	0
  3155  0F2B  1803               	skipnc
  3156  0F2C  3001               	movlw	1
  3157  0F2D  07F1               	addwf	___fladd@b+1,f
  3158  0F2E  3000               	movlw	0
  3159  0F2F  1803               	skipnc
  3160  0F30  3001               	movlw	1
  3161  0F31  07F2               	addwf	___fladd@b+2,f
  3162  0F32  3000               	movlw	0
  3163  0F33  1803               	skipnc
  3164  0F34  3001               	movlw	1
  3165  0F35  07F3               	addwf	___fladd@b+3,f
  3166  0F36  2F45               	goto	l586
  3167  0F37                     l2056:	
  3168  0F37  0874               	movf	___fladd@a,w
  3169  0F38  02F0               	subwf	___fladd@b,f
  3170  0F39  0875               	movf	___fladd@a+1,w
  3171  0F3A  1C03               	skipc
  3172  0F3B  0F75               	incfsz	___fladd@a+1,w
  3173  0F3C  02F1               	subwf	___fladd@b+1,f
  3174  0F3D  0876               	movf	___fladd@a+2,w
  3175  0F3E  1C03               	skipc
  3176  0F3F  0F76               	incfsz	___fladd@a+2,w
  3177  0F40  02F2               	subwf	___fladd@b+2,f
  3178  0F41  0877               	movf	___fladd@a+3,w
  3179  0F42  1C03               	skipc
  3180  0F43  0F77               	incfsz	___fladd@a+3,w
  3181  0F44  02F3               	subwf	___fladd@b+3,f
  3182  0F45                     l586:	
  3183  0F45  0873               	movf	___fladd@b+3,w
  3184  0F46  0472               	iorwf	___fladd@b+2,w
  3185  0F47  0471               	iorwf	___fladd@b+1,w
  3186  0F48  0470               	iorwf	___fladd@b,w
  3187  0F49  1D03               	skipz
  3188  0F4A  2F4C               	goto	u2451
  3189  0F4B  2F4D               	goto	u2450
  3190  0F4C                     u2451:	
  3191  0F4C  2F7B               	goto	l2078
  3192  0F4D                     u2450:	
  3193  0F4D                     l2058:	
  3194  0F4D  087B               	movf	___fladd@grs,w
  3195  0F4E  1D03               	btfss	3,2
  3196  0F4F  2F51               	goto	u2461
  3197  0F50  2F52               	goto	u2460
  3198  0F51                     u2461:	
  3199  0F51  2F7B               	goto	l2078
  3200  0F52                     u2460:	
  3201  0F52                     l2060:	
  3202  0F52  3000               	movlw	0
  3203  0F53  00F3               	movwf	?___fladd+3
  3204  0F54  3000               	movlw	0
  3205  0F55  00F2               	movwf	?___fladd+2
  3206  0F56  3000               	movlw	0
  3207  0F57  00F1               	movwf	?___fladd+1
  3208  0F58  3000               	movlw	0
  3209  0F59  00F0               	movwf	?___fladd
  3210  0F5A  2FFF               	goto	l578
  3211  0F5B                     l2064:	
  3212  0F5B  3001               	movlw	1
  3213  0F5C  1283               	bcf	3,5	;RP0=0, select bank0
  3214  0F5D  1303               	bcf	3,6	;RP1=0, select bank0
  3215  0F5E  00A0               	movwf	??___fladd
  3216  0F5F                     u2475:	
  3217  0F5F  1003               	clrc
  3218  0F60  0DF0               	rlf	___fladd@b,f
  3219  0F61  0DF1               	rlf	___fladd@b+1,f
  3220  0F62  0DF2               	rlf	___fladd@b+2,f
  3221  0F63  0DF3               	rlf	___fladd@b+3,f
  3222  0F64  0BA0               	decfsz	??___fladd,f
  3223  0F65  2F5F               	goto	u2475
  3224  0F66                     l2066:	
  3225  0F66  1FFB               	btfss	___fladd@grs,7
  3226  0F67  2F69               	goto	u2481
  3227  0F68  2F6A               	goto	u2480
  3228  0F69                     u2481:	
  3229  0F69  2F6B               	goto	l590
  3230  0F6A                     u2480:	
  3231  0F6A                     l2068:	
  3232  0F6A  1470               	bsf	___fladd@b,0
  3233  0F6B                     l590:	
  3234  0F6B  1C7B               	btfss	___fladd@grs,0
  3235  0F6C  2F6E               	goto	u2491
  3236  0F6D  2F6F               	goto	u2490
  3237  0F6E                     u2491:	
  3238  0F6E  2F72               	goto	l2072
  3239  0F6F                     u2490:	
  3240  0F6F                     l2070:	
  3241  0F6F  1403               	setc
  3242  0F70  0DFB               	rlf	___fladd@grs,f
  3243  0F71  2F74               	goto	l2074
  3244  0F72                     l2072:	
  3245  0F72  1003               	clrc
  3246  0F73  0DFB               	rlf	___fladd@grs,f
  3247  0F74                     l2074:	
  3248  0F74  087A               	movf	___fladd@bexp,w
  3249  0F75  1903               	btfsc	3,2
  3250  0F76  2F78               	goto	u2501
  3251  0F77  2F79               	goto	u2500
  3252  0F78                     u2501:	
  3253  0F78  2F7B               	goto	l2078
  3254  0F79                     u2500:	
  3255  0F79                     l2076:	
  3256  0F79  3001               	movlw	1
  3257  0F7A  02FA               	subwf	___fladd@bexp,f
  3258  0F7B                     l2078:	
  3259  0F7B  1FF2               	btfss	___fladd@b+2,7
  3260  0F7C  2F7E               	goto	u2511
  3261  0F7D  2F7F               	goto	u2510
  3262  0F7E                     u2511:	
  3263  0F7E  2F5B               	goto	l2064
  3264  0F7F                     u2510:	
  3265  0F7F                     l2080:	
  3266  0F7F  01F9               	clrf	___fladd@aexp
  3267  0F80                     l2082:	
  3268  0F80  1FFB               	btfss	___fladd@grs,7
  3269  0F81  2F83               	goto	u2521
  3270  0F82  2F84               	goto	u2520
  3271  0F83                     u2521:	
  3272  0F83  2F92               	goto	l2090
  3273  0F84                     u2520:	
  3274  0F84                     l2084:	
  3275  0F84  087B               	movf	___fladd@grs,w
  3276  0F85  397F               	andlw	127
  3277  0F86  1903               	btfsc	3,2
  3278  0F87  2F89               	goto	u2531
  3279  0F88  2F8A               	goto	u2530
  3280  0F89                     u2531:	
  3281  0F89  2F8D               	goto	l596
  3282  0F8A                     u2530:	
  3283  0F8A                     l2086:	
  3284  0F8A  01F9               	clrf	___fladd@aexp
  3285  0F8B  0AF9               	incf	___fladd@aexp,f
  3286  0F8C  2F92               	goto	l2090
  3287  0F8D                     l596:	
  3288  0F8D  1C70               	btfss	___fladd@b,0
  3289  0F8E  2F90               	goto	u2541
  3290  0F8F  2F91               	goto	u2540
  3291  0F90                     u2541:	
  3292  0F90  2F92               	goto	l2090
  3293  0F91                     u2540:	
  3294  0F91  2F8A               	goto	l2086
  3295  0F92                     l2090:	
  3296  0F92  0879               	movf	___fladd@aexp,w
  3297  0F93  1903               	btfsc	3,2
  3298  0F94  2F96               	goto	u2551
  3299  0F95  2F97               	goto	u2550
  3300  0F96                     u2551:	
  3301  0F96  2FCD               	goto	l599
  3302  0F97                     u2550:	
  3303  0F97                     l2092:	
  3304  0F97  3001               	movlw	1
  3305  0F98  07F0               	addwf	___fladd@b,f
  3306  0F99  3000               	movlw	0
  3307  0F9A  1803               	skipnc
  3308  0F9B  3001               	movlw	1
  3309  0F9C  07F1               	addwf	___fladd@b+1,f
  3310  0F9D  3000               	movlw	0
  3311  0F9E  1803               	skipnc
  3312  0F9F  3001               	movlw	1
  3313  0FA0  07F2               	addwf	___fladd@b+2,f
  3314  0FA1  3000               	movlw	0
  3315  0FA2  1803               	skipnc
  3316  0FA3  3001               	movlw	1
  3317  0FA4  07F3               	addwf	___fladd@b+3,f
  3318  0FA5                     l2094:	
  3319  0FA5  1C73               	btfss	___fladd@b+3,0
  3320  0FA6  2FA8               	goto	u2561
  3321  0FA7  2FA9               	goto	u2560
  3322  0FA8                     u2561:	
  3323  0FA8  2FCD               	goto	l599
  3324  0FA9                     u2560:	
  3325  0FA9                     l2096:	
  3326  0FA9  0870               	movf	___fladd@b,w
  3327  0FAA  1283               	bcf	3,5	;RP0=0, select bank0
  3328  0FAB  1303               	bcf	3,6	;RP1=0, select bank0
  3329  0FAC  00A0               	movwf	??___fladd
  3330  0FAD  0871               	movf	___fladd@b+1,w
  3331  0FAE  00A1               	movwf	??___fladd+1
  3332  0FAF  0872               	movf	___fladd@b+2,w
  3333  0FB0  00A2               	movwf	??___fladd+2
  3334  0FB1  0873               	movf	___fladd@b+3,w
  3335  0FB2  00A3               	movwf	??___fladd+3
  3336  0FB3  3001               	movlw	1
  3337  0FB4  00A4               	movwf	??___fladd+4
  3338  0FB5                     u2575:	
  3339  0FB5  0D23               	rlf	??___fladd+3,w
  3340  0FB6  0CA3               	rrf	??___fladd+3,f
  3341  0FB7  0CA2               	rrf	??___fladd+2,f
  3342  0FB8  0CA1               	rrf	??___fladd+1,f
  3343  0FB9  0CA0               	rrf	??___fladd,f
  3344  0FBA                     u2570:	
  3345  0FBA  0BA4               	decfsz	??___fladd+4,f
  3346  0FBB  2FB5               	goto	u2575
  3347  0FBC  0823               	movf	??___fladd+3,w
  3348  0FBD  00F3               	movwf	___fladd@b+3
  3349  0FBE  0822               	movf	??___fladd+2,w
  3350  0FBF  00F2               	movwf	___fladd@b+2
  3351  0FC0  0821               	movf	??___fladd+1,w
  3352  0FC1  00F1               	movwf	___fladd@b+1
  3353  0FC2  0820               	movf	??___fladd,w
  3354  0FC3  00F0               	movwf	___fladd@b
  3355  0FC4  0A7A               	incf	___fladd@bexp,w
  3356  0FC5  1903               	btfsc	3,2
  3357  0FC6  2FC8               	goto	u2581
  3358  0FC7  2FC9               	goto	u2580
  3359  0FC8                     u2581:	
  3360  0FC8  2FCD               	goto	l599
  3361  0FC9                     u2580:	
  3362  0FC9                     l2098:	
  3363  0FC9  3001               	movlw	1
  3364  0FCA  00A0               	movwf	??___fladd
  3365  0FCB  0820               	movf	??___fladd,w
  3366  0FCC  07FA               	addwf	___fladd@bexp,f
  3367  0FCD                     l599:	
  3368  0FCD  0A7A               	incf	___fladd@bexp,w
  3369  0FCE  1903               	btfsc	3,2
  3370  0FCF  2FD1               	goto	u2591
  3371  0FD0  2FD2               	goto	u2590
  3372  0FD1                     u2591:	
  3373  0FD1  2FD7               	goto	l2102
  3374  0FD2                     u2590:	
  3375  0FD2                     l2100:	
  3376  0FD2  087A               	movf	___fladd@bexp,w
  3377  0FD3  1D03               	btfss	3,2
  3378  0FD4  2FD6               	goto	u2601
  3379  0FD5  2FD7               	goto	u2600
  3380  0FD6                     u2601:	
  3381  0FD6  2FE5               	goto	l2108
  3382  0FD7                     u2600:	
  3383  0FD7                     l2102:	
  3384  0FD7  3000               	movlw	0
  3385  0FD8  00F3               	movwf	___fladd@b+3
  3386  0FD9  3000               	movlw	0
  3387  0FDA  00F2               	movwf	___fladd@b+2
  3388  0FDB  3000               	movlw	0
  3389  0FDC  00F1               	movwf	___fladd@b+1
  3390  0FDD  3000               	movlw	0
  3391  0FDE  00F0               	movwf	___fladd@b
  3392  0FDF                     l2104:	
  3393  0FDF  087A               	movf	___fladd@bexp,w
  3394  0FE0  1D03               	btfss	3,2
  3395  0FE1  2FE3               	goto	u2611
  3396  0FE2  2FE4               	goto	u2610
  3397  0FE3                     u2611:	
  3398  0FE3  2FE5               	goto	l2108
  3399  0FE4                     u2610:	
  3400  0FE4                     l2106:	
  3401  0FE4  01F8               	clrf	___fladd@signs
  3402  0FE5                     l2108:	
  3403  0FE5  1C7A               	btfss	___fladd@bexp,0
  3404  0FE6  2FE8               	goto	u2621
  3405  0FE7  2FE9               	goto	u2620
  3406  0FE8                     u2621:	
  3407  0FE8  2FEB               	goto	l2112
  3408  0FE9                     u2620:	
  3409  0FE9                     l2110:	
  3410  0FE9  17F2               	bsf	___fladd@b+2,7
  3411  0FEA  2FF1               	goto	l607
  3412  0FEB                     l2112:	
  3413  0FEB  307F               	movlw	127
  3414  0FEC  1283               	bcf	3,5	;RP0=0, select bank0
  3415  0FED  1303               	bcf	3,6	;RP1=0, select bank0
  3416  0FEE  00A0               	movwf	??___fladd
  3417  0FEF  0820               	movf	??___fladd,w
  3418  0FF0  05F2               	andwf	___fladd@b+2,f
  3419  0FF1                     l607:	
  3420  0FF1  087A               	movf	___fladd@bexp,w
  3421  0FF2  1283               	bcf	3,5	;RP0=0, select bank0
  3422  0FF3  1303               	bcf	3,6	;RP1=0, select bank0
  3423  0FF4  00A0               	movwf	??___fladd
  3424  0FF5  1003               	clrc
  3425  0FF6  0C20               	rrf	??___fladd,w
  3426  0FF7  00A1               	movwf	??___fladd+1
  3427  0FF8  0821               	movf	??___fladd+1,w
  3428  0FF9  00F3               	movwf	___fladd@b+3
  3429  0FFA                     l2114:	
  3430  0FFA  1FF8               	btfss	___fladd@signs,7
  3431  0FFB  2FFD               	goto	u2631
  3432  0FFC  2FFE               	goto	u2630
  3433  0FFD                     u2631:	
  3434  0FFD  2FFF               	goto	l608
  3435  0FFE                     u2630:	
  3436  0FFE                     l2116:	
  3437  0FFE  17F3               	bsf	___fladd@b+3,7
  3438  0FFF                     l608:	
  3439  0FFF                     l578:	
  3440  0FFF  0008               	return
  3441  1000                     __end_of___fladd:	
  3442                           
  3443                           	psect	text8
  3444  048A                     __ptext8:	
  3445 ;; *************** function ___flmul *****************
  3446 ;; Defined at:
  3447 ;;		line 8 in file "C:\Program Files (x86)\Microchip\xc8\v2.10\pic\sources\c90\common\sprcmul.c"
  3448 ;; Parameters:    Size  Location     Type
  3449 ;;  b               4   16[BANK0 ] unsigned char 
  3450 ;;  a               4   20[BANK0 ] unsigned char 
  3451 ;; Auto vars:     Size  Location     Type
  3452 ;;  prod            4   36[BANK0 ] struct .
  3453 ;;  grs             4   30[BANK0 ] unsigned long 
  3454 ;;  temp            2   40[BANK0 ] struct .
  3455 ;;  bexp            1   35[BANK0 ] unsigned char 
  3456 ;;  aexp            1   34[BANK0 ] unsigned char 
  3457 ;;  sign            1   29[BANK0 ] unsigned char 
  3458 ;; Return value:  Size  Location     Type
  3459 ;;                  4   16[BANK0 ] unsigned char 
  3460 ;; Registers used:
  3461 ;;		wreg, status,2, status,0, btemp+1, pclath, cstack
  3462 ;; Tracked objects:
  3463 ;;		On entry : 0/0
  3464 ;;		On exit  : 0/0
  3465 ;;		Unchanged: 0/0
  3466 ;; Data sizes:     COMMON   BANK0   BANK1   BANK3   BANK2
  3467 ;;      Params:         0       8       0       0       0
  3468 ;;      Locals:         0      13       0       0       0
  3469 ;;      Temps:          0       5       0       0       0
  3470 ;;      Totals:         0      26       0       0       0
  3471 ;;Total ram usage:       26 bytes
  3472 ;; Hardware stack levels used:    1
  3473 ;; Hardware stack levels required when called:    1
  3474 ;; This function calls:
  3475 ;;		__Umul8_16
  3476 ;; This function is called by:
  3477 ;;		_main
  3478 ;; This function uses a non-reentrant model
  3479 ;;
  3480                           
  3481                           
  3482                           ;psect for function ___flmul
  3483  048A                     ___flmul:	
  3484  048A                     l2386:	
  3485                           ;incstack = 0
  3486                           ; Regs used in ___flmul: [wreg+status,2+status,0+btemp+1+pclath+cstack]
  3487                           
  3488  048A  1283               	bcf	3,5	;RP0=0, select bank0
  3489  048B  1303               	bcf	3,6	;RP1=0, select bank0
  3490  048C  0833               	movf	___flmul@b+3,w
  3491  048D  3980               	andlw	128
  3492  048E  00B8               	movwf	??___flmul
  3493  048F  0838               	movf	??___flmul,w
  3494  0490  00BD               	movwf	___flmul@sign
  3495  0491                     l2388:	
  3496  0491  0833               	movf	___flmul@b+3,w
  3497  0492  00B8               	movwf	??___flmul
  3498  0493  0738               	addwf	??___flmul,w
  3499  0494  00B9               	movwf	??___flmul+1
  3500  0495  0839               	movf	??___flmul+1,w
  3501  0496  00C3               	movwf	___flmul@bexp
  3502  0497                     l2390:	
  3503  0497  1FB2               	btfss	___flmul@b+2,7
  3504  0498  2C9A               	goto	u3091
  3505  0499  2C9B               	goto	u3090
  3506  049A                     u3091:	
  3507  049A  2C9C               	goto	l2394
  3508  049B                     u3090:	
  3509  049B                     l2392:	
  3510  049B  1443               	bsf	___flmul@bexp,0
  3511  049C                     l2394:	
  3512  049C  0843               	movf	___flmul@bexp,w
  3513  049D  1903               	btfsc	3,2
  3514  049E  2CA0               	goto	u3101
  3515  049F  2CA1               	goto	u3100
  3516  04A0                     u3101:	
  3517  04A0  2CB0               	goto	l2402
  3518  04A1                     u3100:	
  3519  04A1                     l2396:	
  3520  04A1  0A43               	incf	___flmul@bexp,w
  3521  04A2  1D03               	btfss	3,2
  3522  04A3  2CA5               	goto	u3111
  3523  04A4  2CA6               	goto	u3110
  3524  04A5                     u3111:	
  3525  04A5  2CAE               	goto	l2400
  3526  04A6                     u3110:	
  3527  04A6                     l2398:	
  3528  04A6  3000               	movlw	0
  3529  04A7  00B3               	movwf	___flmul@b+3
  3530  04A8  3000               	movlw	0
  3531  04A9  00B2               	movwf	___flmul@b+2
  3532  04AA  3000               	movlw	0
  3533  04AB  00B1               	movwf	___flmul@b+1
  3534  04AC  3000               	movlw	0
  3535  04AD  00B0               	movwf	___flmul@b
  3536  04AE                     l2400:	
  3537  04AE  17B2               	bsf	___flmul@b+2,7
  3538  04AF  2CB8               	goto	l2404
  3539  04B0                     l2402:	
  3540  04B0  3000               	movlw	0
  3541  04B1  00B3               	movwf	___flmul@b+3
  3542  04B2  3000               	movlw	0
  3543  04B3  00B2               	movwf	___flmul@b+2
  3544  04B4  3000               	movlw	0
  3545  04B5  00B1               	movwf	___flmul@b+1
  3546  04B6  3000               	movlw	0
  3547  04B7  00B0               	movwf	___flmul@b
  3548  04B8                     l2404:	
  3549  04B8  0837               	movf	___flmul@a+3,w
  3550  04B9  3980               	andlw	128
  3551  04BA  00B8               	movwf	??___flmul
  3552  04BB  0838               	movf	??___flmul,w
  3553  04BC  06BD               	xorwf	___flmul@sign,f
  3554  04BD                     l2406:	
  3555  04BD  0837               	movf	___flmul@a+3,w
  3556  04BE  00B8               	movwf	??___flmul
  3557  04BF  0738               	addwf	??___flmul,w
  3558  04C0  00B9               	movwf	??___flmul+1
  3559  04C1  0839               	movf	??___flmul+1,w
  3560  04C2  00C2               	movwf	___flmul@aexp
  3561  04C3                     l2408:	
  3562  04C3  1FB6               	btfss	___flmul@a+2,7
  3563  04C4  2CC6               	goto	u3121
  3564  04C5  2CC7               	goto	u3120
  3565  04C6                     u3121:	
  3566  04C6  2CC8               	goto	l2412
  3567  04C7                     u3120:	
  3568  04C7                     l2410:	
  3569  04C7  1442               	bsf	___flmul@aexp,0
  3570  04C8                     l2412:	
  3571  04C8  0842               	movf	___flmul@aexp,w
  3572  04C9  1903               	btfsc	3,2
  3573  04CA  2CCC               	goto	u3131
  3574  04CB  2CCD               	goto	u3130
  3575  04CC                     u3131:	
  3576  04CC  2CDC               	goto	l2420
  3577  04CD                     u3130:	
  3578  04CD                     l2414:	
  3579  04CD  0A42               	incf	___flmul@aexp,w
  3580  04CE  1D03               	btfss	3,2
  3581  04CF  2CD1               	goto	u3141
  3582  04D0  2CD2               	goto	u3140
  3583  04D1                     u3141:	
  3584  04D1  2CDA               	goto	l2418
  3585  04D2                     u3140:	
  3586  04D2                     l2416:	
  3587  04D2  3000               	movlw	0
  3588  04D3  00B7               	movwf	___flmul@a+3
  3589  04D4  3000               	movlw	0
  3590  04D5  00B6               	movwf	___flmul@a+2
  3591  04D6  3000               	movlw	0
  3592  04D7  00B5               	movwf	___flmul@a+1
  3593  04D8  3000               	movlw	0
  3594  04D9  00B4               	movwf	___flmul@a
  3595  04DA                     l2418:	
  3596  04DA  17B6               	bsf	___flmul@a+2,7
  3597  04DB  2CE4               	goto	l2422
  3598  04DC                     l2420:	
  3599  04DC  3000               	movlw	0
  3600  04DD  00B7               	movwf	___flmul@a+3
  3601  04DE  3000               	movlw	0
  3602  04DF  00B6               	movwf	___flmul@a+2
  3603  04E0  3000               	movlw	0
  3604  04E1  00B5               	movwf	___flmul@a+1
  3605  04E2  3000               	movlw	0
  3606  04E3  00B4               	movwf	___flmul@a
  3607  04E4                     l2422:	
  3608  04E4  0842               	movf	___flmul@aexp,w
  3609  04E5  1903               	btfsc	3,2
  3610  04E6  2CE8               	goto	u3151
  3611  04E7  2CE9               	goto	u3150
  3612  04E8                     u3151:	
  3613  04E8  2CEE               	goto	l2426
  3614  04E9                     u3150:	
  3615  04E9                     l2424:	
  3616  04E9  0843               	movf	___flmul@bexp,w
  3617  04EA  1D03               	btfss	3,2
  3618  04EB  2CED               	goto	u3161
  3619  04EC  2CEE               	goto	u3160
  3620  04ED                     u3161:	
  3621  04ED  2CF7               	goto	l2430
  3622  04EE                     u3160:	
  3623  04EE                     l2426:	
  3624  04EE  3000               	movlw	0
  3625  04EF  00B3               	movwf	?___flmul+3
  3626  04F0  3000               	movlw	0
  3627  04F1  00B2               	movwf	?___flmul+2
  3628  04F2  3000               	movlw	0
  3629  04F3  00B1               	movwf	?___flmul+1
  3630  04F4  3000               	movlw	0
  3631  04F5  00B0               	movwf	?___flmul
  3632  04F6  2FEA               	goto	l661
  3633  04F7                     l2430:	
  3634  04F7  0830               	movf	___flmul@b,w
  3635  04F8  00B8               	movwf	??___flmul
  3636  04F9  0838               	movf	??___flmul,w
  3637  04FA  00F0               	movwf	__Umul8_16@multiplicand
  3638  04FB  0836               	movf	___flmul@a+2,w
  3639  04FC  120A  158A  2149  120A  118A  	fcall	__Umul8_16
  3640  0501  0871               	movf	?__Umul8_16+1,w
  3641  0502  1283               	bcf	3,5	;RP0=0, select bank0
  3642  0503  1303               	bcf	3,6	;RP1=0, select bank0
  3643  0504  00C9               	movwf	___flmul@temp+1
  3644  0505  0870               	movf	?__Umul8_16,w
  3645  0506  00C8               	movwf	___flmul@temp
  3646  0507                     l2432:	
  3647  0507  0848               	movf	___flmul@temp,w
  3648  0508  00B8               	movwf	??___flmul
  3649  0509  01B9               	clrf	??___flmul+1
  3650  050A  01BA               	clrf	??___flmul+2
  3651  050B  01BB               	clrf	??___flmul+3
  3652  050C  083B               	movf	??___flmul+3,w
  3653  050D  00C1               	movwf	___flmul@grs+3
  3654  050E  083A               	movf	??___flmul+2,w
  3655  050F  00C0               	movwf	___flmul@grs+2
  3656  0510  0839               	movf	??___flmul+1,w
  3657  0511  00BF               	movwf	___flmul@grs+1
  3658  0512  0838               	movf	??___flmul,w
  3659  0513  00BE               	movwf	___flmul@grs
  3660  0514                     l2434:	
  3661  0514  0849               	movf	___flmul@temp+1,w
  3662  0515  00B8               	movwf	??___flmul
  3663  0516  01B9               	clrf	??___flmul+1
  3664  0517  01BA               	clrf	??___flmul+2
  3665  0518  01BB               	clrf	??___flmul+3
  3666  0519  083B               	movf	??___flmul+3,w
  3667  051A  00C7               	movwf	___flmul@prod+3
  3668  051B  083A               	movf	??___flmul+2,w
  3669  051C  00C6               	movwf	___flmul@prod+2
  3670  051D  0839               	movf	??___flmul+1,w
  3671  051E  00C5               	movwf	___flmul@prod+1
  3672  051F  0838               	movf	??___flmul,w
  3673  0520  00C4               	movwf	___flmul@prod
  3674  0521  0831               	movf	___flmul@b+1,w
  3675  0522  00B8               	movwf	??___flmul
  3676  0523  0838               	movf	??___flmul,w
  3677  0524  00F0               	movwf	__Umul8_16@multiplicand
  3678  0525  0835               	movf	___flmul@a+1,w
  3679  0526  120A  158A  2149  120A  118A  	fcall	__Umul8_16
  3680  052B  0871               	movf	?__Umul8_16+1,w
  3681  052C  1283               	bcf	3,5	;RP0=0, select bank0
  3682  052D  1303               	bcf	3,6	;RP1=0, select bank0
  3683  052E  00C9               	movwf	___flmul@temp+1
  3684  052F  0870               	movf	?__Umul8_16,w
  3685  0530  00C8               	movwf	___flmul@temp
  3686  0531                     l2436:	
  3687  0531  0848               	movf	___flmul@temp,w
  3688  0532  00B8               	movwf	??___flmul
  3689  0533  01B9               	clrf	??___flmul+1
  3690  0534  01BA               	clrf	??___flmul+2
  3691  0535  01BB               	clrf	??___flmul+3
  3692  0536  0838               	movf	??___flmul,w
  3693  0537  07BE               	addwf	___flmul@grs,f
  3694  0538  0839               	movf	??___flmul+1,w
  3695  0539  1103               	clrz
  3696  053A  1803               	skipnc
  3697  053B  3E01               	addlw	1
  3698  053C  1903               	skipnz
  3699  053D  2D3F               	goto	u3171
  3700  053E  07BF               	addwf	___flmul@grs+1,f
  3701  053F                     u3171:	
  3702  053F  083A               	movf	??___flmul+2,w
  3703  0540  1103               	clrz
  3704  0541  1803               	skipnc
  3705  0542  3E01               	addlw	1
  3706  0543  1903               	skipnz
  3707  0544  2D46               	goto	u3172
  3708  0545  07C0               	addwf	___flmul@grs+2,f
  3709  0546                     u3172:	
  3710  0546  083B               	movf	??___flmul+3,w
  3711  0547  1103               	clrz
  3712  0548  1803               	skipnc
  3713  0549  3E01               	addlw	1
  3714  054A  1903               	skipnz
  3715  054B  2D4D               	goto	u3173
  3716  054C  07C1               	addwf	___flmul@grs+3,f
  3717  054D                     u3173:	
  3718  054D                     l2438:	
  3719  054D  0849               	movf	___flmul@temp+1,w
  3720  054E  00B8               	movwf	??___flmul
  3721  054F  01B9               	clrf	??___flmul+1
  3722  0550  01BA               	clrf	??___flmul+2
  3723  0551  01BB               	clrf	??___flmul+3
  3724  0552  0838               	movf	??___flmul,w
  3725  0553  07C4               	addwf	___flmul@prod,f
  3726  0554  0839               	movf	??___flmul+1,w
  3727  0555  1103               	clrz
  3728  0556  1803               	skipnc
  3729  0557  3E01               	addlw	1
  3730  0558  1903               	skipnz
  3731  0559  2D5B               	goto	u3181
  3732  055A  07C5               	addwf	___flmul@prod+1,f
  3733  055B                     u3181:	
  3734  055B  083A               	movf	??___flmul+2,w
  3735  055C  1103               	clrz
  3736  055D  1803               	skipnc
  3737  055E  3E01               	addlw	1
  3738  055F  1903               	skipnz
  3739  0560  2D62               	goto	u3182
  3740  0561  07C6               	addwf	___flmul@prod+2,f
  3741  0562                     u3182:	
  3742  0562  083B               	movf	??___flmul+3,w
  3743  0563  1103               	clrz
  3744  0564  1803               	skipnc
  3745  0565  3E01               	addlw	1
  3746  0566  1903               	skipnz
  3747  0567  2D69               	goto	u3183
  3748  0568  07C7               	addwf	___flmul@prod+3,f
  3749  0569                     u3183:	
  3750  0569  0832               	movf	___flmul@b+2,w
  3751  056A  00B8               	movwf	??___flmul
  3752  056B  0838               	movf	??___flmul,w
  3753  056C  00F0               	movwf	__Umul8_16@multiplicand
  3754  056D  0834               	movf	___flmul@a,w
  3755  056E  120A  158A  2149  120A  118A  	fcall	__Umul8_16
  3756  0573  0871               	movf	?__Umul8_16+1,w
  3757  0574  1283               	bcf	3,5	;RP0=0, select bank0
  3758  0575  1303               	bcf	3,6	;RP1=0, select bank0
  3759  0576  00C9               	movwf	___flmul@temp+1
  3760  0577  0870               	movf	?__Umul8_16,w
  3761  0578  00C8               	movwf	___flmul@temp
  3762  0579                     l2440:	
  3763  0579  0848               	movf	___flmul@temp,w
  3764  057A  00B8               	movwf	??___flmul
  3765  057B  01B9               	clrf	??___flmul+1
  3766  057C  01BA               	clrf	??___flmul+2
  3767  057D  01BB               	clrf	??___flmul+3
  3768  057E  0838               	movf	??___flmul,w
  3769  057F  07BE               	addwf	___flmul@grs,f
  3770  0580  0839               	movf	??___flmul+1,w
  3771  0581  1103               	clrz
  3772  0582  1803               	skipnc
  3773  0583  3E01               	addlw	1
  3774  0584  1903               	skipnz
  3775  0585  2D87               	goto	u3191
  3776  0586  07BF               	addwf	___flmul@grs+1,f
  3777  0587                     u3191:	
  3778  0587  083A               	movf	??___flmul+2,w
  3779  0588  1103               	clrz
  3780  0589  1803               	skipnc
  3781  058A  3E01               	addlw	1
  3782  058B  1903               	skipnz
  3783  058C  2D8E               	goto	u3192
  3784  058D  07C0               	addwf	___flmul@grs+2,f
  3785  058E                     u3192:	
  3786  058E  083B               	movf	??___flmul+3,w
  3787  058F  1103               	clrz
  3788  0590  1803               	skipnc
  3789  0591  3E01               	addlw	1
  3790  0592  1903               	skipnz
  3791  0593  2D95               	goto	u3193
  3792  0594  07C1               	addwf	___flmul@grs+3,f
  3793  0595                     u3193:	
  3794  0595                     l2442:	
  3795  0595  0849               	movf	___flmul@temp+1,w
  3796  0596  00B8               	movwf	??___flmul
  3797  0597  01B9               	clrf	??___flmul+1
  3798  0598  01BA               	clrf	??___flmul+2
  3799  0599  01BB               	clrf	??___flmul+3
  3800  059A  0838               	movf	??___flmul,w
  3801  059B  07C4               	addwf	___flmul@prod,f
  3802  059C  0839               	movf	??___flmul+1,w
  3803  059D  1103               	clrz
  3804  059E  1803               	skipnc
  3805  059F  3E01               	addlw	1
  3806  05A0  1903               	skipnz
  3807  05A1  2DA3               	goto	u3201
  3808  05A2  07C5               	addwf	___flmul@prod+1,f
  3809  05A3                     u3201:	
  3810  05A3  083A               	movf	??___flmul+2,w
  3811  05A4  1103               	clrz
  3812  05A5  1803               	skipnc
  3813  05A6  3E01               	addlw	1
  3814  05A7  1903               	skipnz
  3815  05A8  2DAA               	goto	u3202
  3816  05A9  07C6               	addwf	___flmul@prod+2,f
  3817  05AA                     u3202:	
  3818  05AA  083B               	movf	??___flmul+3,w
  3819  05AB  1103               	clrz
  3820  05AC  1803               	skipnc
  3821  05AD  3E01               	addlw	1
  3822  05AE  1903               	skipnz
  3823  05AF  2DB1               	goto	u3203
  3824  05B0  07C7               	addwf	___flmul@prod+3,f
  3825  05B1                     u3203:	
  3826  05B1                     l2444:	
  3827  05B1  3008               	movlw	8
  3828  05B2  00B8               	movwf	??___flmul
  3829  05B3                     u3215:	
  3830  05B3  1003               	clrc
  3831  05B4  0DBE               	rlf	___flmul@grs,f
  3832  05B5  0DBF               	rlf	___flmul@grs+1,f
  3833  05B6  0DC0               	rlf	___flmul@grs+2,f
  3834  05B7  0DC1               	rlf	___flmul@grs+3,f
  3835  05B8  0BB8               	decfsz	??___flmul,f
  3836  05B9  2DB3               	goto	u3215
  3837  05BA                     l2446:	
  3838  05BA  0831               	movf	___flmul@b+1,w
  3839  05BB  00B8               	movwf	??___flmul
  3840  05BC  0838               	movf	??___flmul,w
  3841  05BD  00F0               	movwf	__Umul8_16@multiplicand
  3842  05BE  0834               	movf	___flmul@a,w
  3843  05BF  120A  158A  2149  120A  118A  	fcall	__Umul8_16
  3844  05C4  0871               	movf	?__Umul8_16+1,w
  3845  05C5  1283               	bcf	3,5	;RP0=0, select bank0
  3846  05C6  1303               	bcf	3,6	;RP1=0, select bank0
  3847  05C7  00C9               	movwf	___flmul@temp+1
  3848  05C8  0870               	movf	?__Umul8_16,w
  3849  05C9  00C8               	movwf	___flmul@temp
  3850  05CA                     l2448:	
  3851  05CA  0848               	movf	___flmul@temp,w
  3852  05CB  00B8               	movwf	??___flmul
  3853  05CC  0849               	movf	___flmul@temp+1,w
  3854  05CD  00B9               	movwf	??___flmul+1
  3855  05CE  01BA               	clrf	??___flmul+2
  3856  05CF  01BB               	clrf	??___flmul+3
  3857  05D0  0838               	movf	??___flmul,w
  3858  05D1  07BE               	addwf	___flmul@grs,f
  3859  05D2  0839               	movf	??___flmul+1,w
  3860  05D3  1103               	clrz
  3861  05D4  1803               	skipnc
  3862  05D5  3E01               	addlw	1
  3863  05D6  1903               	skipnz
  3864  05D7  2DD9               	goto	u3221
  3865  05D8  07BF               	addwf	___flmul@grs+1,f
  3866  05D9                     u3221:	
  3867  05D9  083A               	movf	??___flmul+2,w
  3868  05DA  1103               	clrz
  3869  05DB  1803               	skipnc
  3870  05DC  3E01               	addlw	1
  3871  05DD  1903               	skipnz
  3872  05DE  2DE0               	goto	u3222
  3873  05DF  07C0               	addwf	___flmul@grs+2,f
  3874  05E0                     u3222:	
  3875  05E0  083B               	movf	??___flmul+3,w
  3876  05E1  1103               	clrz
  3877  05E2  1803               	skipnc
  3878  05E3  3E01               	addlw	1
  3879  05E4  1903               	skipnz
  3880  05E5  2DE7               	goto	u3223
  3881  05E6  07C1               	addwf	___flmul@grs+3,f
  3882  05E7                     u3223:	
  3883  05E7                     l2450:	
  3884  05E7  0830               	movf	___flmul@b,w
  3885  05E8  00B8               	movwf	??___flmul
  3886  05E9  0838               	movf	??___flmul,w
  3887  05EA  00F0               	movwf	__Umul8_16@multiplicand
  3888  05EB  0835               	movf	___flmul@a+1,w
  3889  05EC  120A  158A  2149  120A  118A  	fcall	__Umul8_16
  3890  05F1  0871               	movf	?__Umul8_16+1,w
  3891  05F2  1283               	bcf	3,5	;RP0=0, select bank0
  3892  05F3  1303               	bcf	3,6	;RP1=0, select bank0
  3893  05F4  00C9               	movwf	___flmul@temp+1
  3894  05F5  0870               	movf	?__Umul8_16,w
  3895  05F6  00C8               	movwf	___flmul@temp
  3896  05F7                     l2452:	
  3897  05F7  0848               	movf	___flmul@temp,w
  3898  05F8  00B8               	movwf	??___flmul
  3899  05F9  0849               	movf	___flmul@temp+1,w
  3900  05FA  00B9               	movwf	??___flmul+1
  3901  05FB  01BA               	clrf	??___flmul+2
  3902  05FC  01BB               	clrf	??___flmul+3
  3903  05FD  0838               	movf	??___flmul,w
  3904  05FE  07BE               	addwf	___flmul@grs,f
  3905  05FF  0839               	movf	??___flmul+1,w
  3906  0600  1103               	clrz
  3907  0601  1803               	skipnc
  3908  0602  3E01               	addlw	1
  3909  0603  1903               	skipnz
  3910  0604  2E06               	goto	u3231
  3911  0605  07BF               	addwf	___flmul@grs+1,f
  3912  0606                     u3231:	
  3913  0606  083A               	movf	??___flmul+2,w
  3914  0607  1103               	clrz
  3915  0608  1803               	skipnc
  3916  0609  3E01               	addlw	1
  3917  060A  1903               	skipnz
  3918  060B  2E0D               	goto	u3232
  3919  060C  07C0               	addwf	___flmul@grs+2,f
  3920  060D                     u3232:	
  3921  060D  083B               	movf	??___flmul+3,w
  3922  060E  1103               	clrz
  3923  060F  1803               	skipnc
  3924  0610  3E01               	addlw	1
  3925  0611  1903               	skipnz
  3926  0612  2E14               	goto	u3233
  3927  0613  07C1               	addwf	___flmul@grs+3,f
  3928  0614                     u3233:	
  3929  0614                     l2454:	
  3930  0614  3008               	movlw	8
  3931  0615  00B8               	movwf	??___flmul
  3932  0616                     u3245:	
  3933  0616  1003               	clrc
  3934  0617  0DBE               	rlf	___flmul@grs,f
  3935  0618  0DBF               	rlf	___flmul@grs+1,f
  3936  0619  0DC0               	rlf	___flmul@grs+2,f
  3937  061A  0DC1               	rlf	___flmul@grs+3,f
  3938  061B  0BB8               	decfsz	??___flmul,f
  3939  061C  2E16               	goto	u3245
  3940  061D  0830               	movf	___flmul@b,w
  3941  061E  00B8               	movwf	??___flmul
  3942  061F  0838               	movf	??___flmul,w
  3943  0620  00F0               	movwf	__Umul8_16@multiplicand
  3944  0621  0834               	movf	___flmul@a,w
  3945  0622  120A  158A  2149  120A  118A  	fcall	__Umul8_16
  3946  0627  0871               	movf	?__Umul8_16+1,w
  3947  0628  1283               	bcf	3,5	;RP0=0, select bank0
  3948  0629  1303               	bcf	3,6	;RP1=0, select bank0
  3949  062A  00C9               	movwf	___flmul@temp+1
  3950  062B  0870               	movf	?__Umul8_16,w
  3951  062C  00C8               	movwf	___flmul@temp
  3952  062D                     l2456:	
  3953  062D  0848               	movf	___flmul@temp,w
  3954  062E  00B8               	movwf	??___flmul
  3955  062F  0849               	movf	___flmul@temp+1,w
  3956  0630  00B9               	movwf	??___flmul+1
  3957  0631  01BA               	clrf	??___flmul+2
  3958  0632  01BB               	clrf	??___flmul+3
  3959  0633  0838               	movf	??___flmul,w
  3960  0634  07BE               	addwf	___flmul@grs,f
  3961  0635  0839               	movf	??___flmul+1,w
  3962  0636  1103               	clrz
  3963  0637  1803               	skipnc
  3964  0638  3E01               	addlw	1
  3965  0639  1903               	skipnz
  3966  063A  2E3C               	goto	u3251
  3967  063B  07BF               	addwf	___flmul@grs+1,f
  3968  063C                     u3251:	
  3969  063C  083A               	movf	??___flmul+2,w
  3970  063D  1103               	clrz
  3971  063E  1803               	skipnc
  3972  063F  3E01               	addlw	1
  3973  0640  1903               	skipnz
  3974  0641  2E43               	goto	u3252
  3975  0642  07C0               	addwf	___flmul@grs+2,f
  3976  0643                     u3252:	
  3977  0643  083B               	movf	??___flmul+3,w
  3978  0644  1103               	clrz
  3979  0645  1803               	skipnc
  3980  0646  3E01               	addlw	1
  3981  0647  1903               	skipnz
  3982  0648  2E4A               	goto	u3253
  3983  0649  07C1               	addwf	___flmul@grs+3,f
  3984  064A                     u3253:	
  3985  064A                     l2458:	
  3986  064A  0831               	movf	___flmul@b+1,w
  3987  064B  00B8               	movwf	??___flmul
  3988  064C  0838               	movf	??___flmul,w
  3989  064D  00F0               	movwf	__Umul8_16@multiplicand
  3990  064E  0836               	movf	___flmul@a+2,w
  3991  064F  120A  158A  2149  120A  118A  	fcall	__Umul8_16
  3992  0654  0871               	movf	?__Umul8_16+1,w
  3993  0655  1283               	bcf	3,5	;RP0=0, select bank0
  3994  0656  1303               	bcf	3,6	;RP1=0, select bank0
  3995  0657  00C9               	movwf	___flmul@temp+1
  3996  0658  0870               	movf	?__Umul8_16,w
  3997  0659  00C8               	movwf	___flmul@temp
  3998  065A  0848               	movf	___flmul@temp,w
  3999  065B  00B8               	movwf	??___flmul
  4000  065C  0849               	movf	___flmul@temp+1,w
  4001  065D  00B9               	movwf	??___flmul+1
  4002  065E  01BA               	clrf	??___flmul+2
  4003  065F  01BB               	clrf	??___flmul+3
  4004  0660  0838               	movf	??___flmul,w
  4005  0661  07C4               	addwf	___flmul@prod,f
  4006  0662  0839               	movf	??___flmul+1,w
  4007  0663  1103               	clrz
  4008  0664  1803               	skipnc
  4009  0665  3E01               	addlw	1
  4010  0666  1903               	skipnz
  4011  0667  2E69               	goto	u3261
  4012  0668  07C5               	addwf	___flmul@prod+1,f
  4013  0669                     u3261:	
  4014  0669  083A               	movf	??___flmul+2,w
  4015  066A  1103               	clrz
  4016  066B  1803               	skipnc
  4017  066C  3E01               	addlw	1
  4018  066D  1903               	skipnz
  4019  066E  2E70               	goto	u3262
  4020  066F  07C6               	addwf	___flmul@prod+2,f
  4021  0670                     u3262:	
  4022  0670  083B               	movf	??___flmul+3,w
  4023  0671  1103               	clrz
  4024  0672  1803               	skipnc
  4025  0673  3E01               	addlw	1
  4026  0674  1903               	skipnz
  4027  0675  2E77               	goto	u3263
  4028  0676  07C7               	addwf	___flmul@prod+3,f
  4029  0677                     u3263:	
  4030  0677                     l2460:	
  4031  0677  0832               	movf	___flmul@b+2,w
  4032  0678  00B8               	movwf	??___flmul
  4033  0679  0838               	movf	??___flmul,w
  4034  067A  00F0               	movwf	__Umul8_16@multiplicand
  4035  067B  0835               	movf	___flmul@a+1,w
  4036  067C  120A  158A  2149  120A  118A  	fcall	__Umul8_16
  4037  0681  0871               	movf	?__Umul8_16+1,w
  4038  0682  1283               	bcf	3,5	;RP0=0, select bank0
  4039  0683  1303               	bcf	3,6	;RP1=0, select bank0
  4040  0684  00C9               	movwf	___flmul@temp+1
  4041  0685  0870               	movf	?__Umul8_16,w
  4042  0686  00C8               	movwf	___flmul@temp
  4043  0687                     l2462:	
  4044  0687  0848               	movf	___flmul@temp,w
  4045  0688  00B8               	movwf	??___flmul
  4046  0689  0849               	movf	___flmul@temp+1,w
  4047  068A  00B9               	movwf	??___flmul+1
  4048  068B  01BA               	clrf	??___flmul+2
  4049  068C  01BB               	clrf	??___flmul+3
  4050  068D  0838               	movf	??___flmul,w
  4051  068E  07C4               	addwf	___flmul@prod,f
  4052  068F  0839               	movf	??___flmul+1,w
  4053  0690  1103               	clrz
  4054  0691  1803               	skipnc
  4055  0692  3E01               	addlw	1
  4056  0693  1903               	skipnz
  4057  0694  2E96               	goto	u3271
  4058  0695  07C5               	addwf	___flmul@prod+1,f
  4059  0696                     u3271:	
  4060  0696  083A               	movf	??___flmul+2,w
  4061  0697  1103               	clrz
  4062  0698  1803               	skipnc
  4063  0699  3E01               	addlw	1
  4064  069A  1903               	skipnz
  4065  069B  2E9D               	goto	u3272
  4066  069C  07C6               	addwf	___flmul@prod+2,f
  4067  069D                     u3272:	
  4068  069D  083B               	movf	??___flmul+3,w
  4069  069E  1103               	clrz
  4070  069F  1803               	skipnc
  4071  06A0  3E01               	addlw	1
  4072  06A1  1903               	skipnz
  4073  06A2  2EA4               	goto	u3273
  4074  06A3  07C7               	addwf	___flmul@prod+3,f
  4075  06A4                     u3273:	
  4076  06A4  0832               	movf	___flmul@b+2,w
  4077  06A5  00B8               	movwf	??___flmul
  4078  06A6  0838               	movf	??___flmul,w
  4079  06A7  00F0               	movwf	__Umul8_16@multiplicand
  4080  06A8  0836               	movf	___flmul@a+2,w
  4081  06A9  120A  158A  2149  120A  118A  	fcall	__Umul8_16
  4082  06AE  0871               	movf	?__Umul8_16+1,w
  4083  06AF  1283               	bcf	3,5	;RP0=0, select bank0
  4084  06B0  1303               	bcf	3,6	;RP1=0, select bank0
  4085  06B1  00C9               	movwf	___flmul@temp+1
  4086  06B2  0870               	movf	?__Umul8_16,w
  4087  06B3  00C8               	movwf	___flmul@temp
  4088  06B4                     l2464:	
  4089  06B4  0848               	movf	___flmul@temp,w
  4090  06B5  00B8               	movwf	??___flmul
  4091  06B6  0849               	movf	___flmul@temp+1,w
  4092  06B7  00B9               	movwf	??___flmul+1
  4093  06B8  01BA               	clrf	??___flmul+2
  4094  06B9  01BB               	clrf	??___flmul+3
  4095  06BA  3008               	movlw	8
  4096  06BB                     u3285:	
  4097  06BB  1003               	clrc
  4098  06BC  0DB8               	rlf	??___flmul,f
  4099  06BD  0DB9               	rlf	??___flmul+1,f
  4100  06BE  0DBA               	rlf	??___flmul+2,f
  4101  06BF  0DBB               	rlf	??___flmul+3,f
  4102  06C0                     u3280:	
  4103  06C0  3EFF               	addlw	-1
  4104  06C1  1D03               	skipz
  4105  06C2  2EBB               	goto	u3285
  4106  06C3  0838               	movf	??___flmul,w
  4107  06C4  07C4               	addwf	___flmul@prod,f
  4108  06C5  0839               	movf	??___flmul+1,w
  4109  06C6  1103               	clrz
  4110  06C7  1803               	skipnc
  4111  06C8  3E01               	addlw	1
  4112  06C9  1903               	skipnz
  4113  06CA  2ECC               	goto	u3291
  4114  06CB  07C5               	addwf	___flmul@prod+1,f
  4115  06CC                     u3291:	
  4116  06CC  083A               	movf	??___flmul+2,w
  4117  06CD  1103               	clrz
  4118  06CE  1803               	skipnc
  4119  06CF  3E01               	addlw	1
  4120  06D0  1903               	skipnz
  4121  06D1  2ED3               	goto	u3292
  4122  06D2  07C6               	addwf	___flmul@prod+2,f
  4123  06D3                     u3292:	
  4124  06D3  083B               	movf	??___flmul+3,w
  4125  06D4  1103               	clrz
  4126  06D5  1803               	skipnc
  4127  06D6  3E01               	addlw	1
  4128  06D7  1903               	skipnz
  4129  06D8  2EDA               	goto	u3293
  4130  06D9  07C7               	addwf	___flmul@prod+3,f
  4131  06DA                     u3293:	
  4132  06DA                     l2466:	
  4133  06DA  083E               	movf	___flmul@grs,w
  4134  06DB  00B8               	movwf	??___flmul
  4135  06DC  083F               	movf	___flmul@grs+1,w
  4136  06DD  00B9               	movwf	??___flmul+1
  4137  06DE  0840               	movf	___flmul@grs+2,w
  4138  06DF  00BA               	movwf	??___flmul+2
  4139  06E0  0841               	movf	___flmul@grs+3,w
  4140  06E1  00BB               	movwf	??___flmul+3
  4141  06E2  3018               	movlw	24
  4142  06E3                     u3305:	
  4143  06E3  1003               	clrc
  4144  06E4  0CBB               	rrf	??___flmul+3,f
  4145  06E5  0CBA               	rrf	??___flmul+2,f
  4146  06E6  0CB9               	rrf	??___flmul+1,f
  4147  06E7  0CB8               	rrf	??___flmul,f
  4148  06E8                     u3300:	
  4149  06E8  3EFF               	addlw	-1
  4150  06E9  1D03               	skipz
  4151  06EA  2EE3               	goto	u3305
  4152  06EB  0838               	movf	??___flmul,w
  4153  06EC  07C4               	addwf	___flmul@prod,f
  4154  06ED  0839               	movf	??___flmul+1,w
  4155  06EE  1103               	clrz
  4156  06EF  1803               	skipnc
  4157  06F0  3E01               	addlw	1
  4158  06F1  1903               	skipnz
  4159  06F2  2EF4               	goto	u3311
  4160  06F3  07C5               	addwf	___flmul@prod+1,f
  4161  06F4                     u3311:	
  4162  06F4  083A               	movf	??___flmul+2,w
  4163  06F5  1103               	clrz
  4164  06F6  1803               	skipnc
  4165  06F7  3E01               	addlw	1
  4166  06F8  1903               	skipnz
  4167  06F9  2EFB               	goto	u3312
  4168  06FA  07C6               	addwf	___flmul@prod+2,f
  4169  06FB                     u3312:	
  4170  06FB  083B               	movf	??___flmul+3,w
  4171  06FC  1103               	clrz
  4172  06FD  1803               	skipnc
  4173  06FE  3E01               	addlw	1
  4174  06FF  1903               	skipnz
  4175  0700  2F02               	goto	u3313
  4176  0701  07C7               	addwf	___flmul@prod+3,f
  4177  0702                     u3313:	
  4178  0702                     l2468:	
  4179  0702  3008               	movlw	8
  4180  0703  00B8               	movwf	??___flmul
  4181  0704                     u3325:	
  4182  0704  1003               	clrc
  4183  0705  0DBE               	rlf	___flmul@grs,f
  4184  0706  0DBF               	rlf	___flmul@grs+1,f
  4185  0707  0DC0               	rlf	___flmul@grs+2,f
  4186  0708  0DC1               	rlf	___flmul@grs+3,f
  4187  0709  0BB8               	decfsz	??___flmul,f
  4188  070A  2F04               	goto	u3325
  4189  070B                     l2470:	
  4190  070B  0843               	movf	___flmul@bexp,w
  4191  070C  0742               	addwf	___flmul@aexp,w
  4192  070D  00B8               	movwf	??___flmul
  4193  070E  01B9               	clrf	??___flmul+1
  4194  070F  0DB9               	rlf	??___flmul+1,f
  4195  0710  0838               	movf	??___flmul,w
  4196  0711  3E82               	addlw	130
  4197  0712  00C8               	movwf	___flmul@temp
  4198  0713  0839               	movf	??___flmul+1,w
  4199  0714  1803               	skipnc
  4200  0715  3E01               	addlw	1
  4201  0716  3EFF               	addlw	255
  4202  0717  00C9               	movwf	___flmul@temp+1
  4203  0718  2F36               	goto	l2482
  4204  0719                     l2472:	
  4205  0719  3001               	movlw	1
  4206  071A  00B8               	movwf	??___flmul
  4207  071B                     u3335:	
  4208  071B  1003               	clrc
  4209  071C  0DC4               	rlf	___flmul@prod,f
  4210  071D  0DC5               	rlf	___flmul@prod+1,f
  4211  071E  0DC6               	rlf	___flmul@prod+2,f
  4212  071F  0DC7               	rlf	___flmul@prod+3,f
  4213  0720  0BB8               	decfsz	??___flmul,f
  4214  0721  2F1B               	goto	u3335
  4215  0722                     l2474:	
  4216  0722  1FC1               	btfss	___flmul@grs+3,7
  4217  0723  2F25               	goto	u3341
  4218  0724  2F26               	goto	u3340
  4219  0725                     u3341:	
  4220  0725  2F27               	goto	l2478
  4221  0726                     u3340:	
  4222  0726                     l2476:	
  4223  0726  1444               	bsf	___flmul@prod,0
  4224  0727                     l2478:	
  4225  0727  3001               	movlw	1
  4226  0728  00B8               	movwf	??___flmul
  4227  0729                     u3355:	
  4228  0729  1003               	clrc
  4229  072A  0DBE               	rlf	___flmul@grs,f
  4230  072B  0DBF               	rlf	___flmul@grs+1,f
  4231  072C  0DC0               	rlf	___flmul@grs+2,f
  4232  072D  0DC1               	rlf	___flmul@grs+3,f
  4233  072E  0BB8               	decfsz	??___flmul,f
  4234  072F  2F29               	goto	u3355
  4235  0730                     l2480:	
  4236  0730  30FF               	movlw	255
  4237  0731  07C8               	addwf	___flmul@temp,f
  4238  0732  1803               	skipnc
  4239  0733  0AC9               	incf	___flmul@temp+1,f
  4240  0734  30FF               	movlw	255
  4241  0735  07C9               	addwf	___flmul@temp+1,f
  4242  0736                     l2482:	
  4243  0736  1FC6               	btfss	___flmul@prod+2,7
  4244  0737  2F39               	goto	u3361
  4245  0738  2F3A               	goto	u3360
  4246  0739                     u3361:	
  4247  0739  2F19               	goto	l2472
  4248  073A                     u3360:	
  4249  073A                     l2484:	
  4250  073A  01C2               	clrf	___flmul@aexp
  4251  073B                     l2486:	
  4252  073B  1FC1               	btfss	___flmul@grs+3,7
  4253  073C  2F3E               	goto	u3371
  4254  073D  2F3F               	goto	u3370
  4255  073E                     u3371:	
  4256  073E  2F5B               	goto	l2494
  4257  073F                     u3370:	
  4258  073F                     l2488:	
  4259  073F  30FF               	movlw	255
  4260  0740  053E               	andwf	___flmul@grs,w
  4261  0741  00B8               	movwf	??___flmul
  4262  0742  30FF               	movlw	255
  4263  0743  053F               	andwf	___flmul@grs+1,w
  4264  0744  00B9               	movwf	??___flmul+1
  4265  0745  30FF               	movlw	255
  4266  0746  0540               	andwf	___flmul@grs+2,w
  4267  0747  00BA               	movwf	??___flmul+2
  4268  0748  307F               	movlw	127
  4269  0749  0541               	andwf	___flmul@grs+3,w
  4270  074A  00BB               	movwf	??___flmul+3
  4271  074B  083B               	movf	??___flmul+3,w
  4272  074C  043A               	iorwf	??___flmul+2,w
  4273  074D  0439               	iorwf	??___flmul+1,w
  4274  074E  0438               	iorwf	??___flmul,w
  4275  074F  1903               	skipnz
  4276  0750  2F52               	goto	u3381
  4277  0751  2F53               	goto	u3380
  4278  0752                     u3381:	
  4279  0752  2F56               	goto	l667
  4280  0753                     u3380:	
  4281  0753                     l2490:	
  4282  0753  01C2               	clrf	___flmul@aexp
  4283  0754  0AC2               	incf	___flmul@aexp,f
  4284  0755  2F5B               	goto	l2494
  4285  0756                     l667:	
  4286  0756  1C44               	btfss	___flmul@prod,0
  4287  0757  2F59               	goto	u3391
  4288  0758  2F5A               	goto	u3390
  4289  0759                     u3391:	
  4290  0759  2F5B               	goto	l2494
  4291  075A                     u3390:	
  4292  075A  2F53               	goto	l2490
  4293  075B                     l2494:	
  4294  075B  0842               	movf	___flmul@aexp,w
  4295  075C  1903               	btfsc	3,2
  4296  075D  2F5F               	goto	u3401
  4297  075E  2F60               	goto	u3400
  4298  075F                     u3401:	
  4299  075F  2F91               	goto	l2504
  4300  0760                     u3400:	
  4301  0760                     l2496:	
  4302  0760  3001               	movlw	1
  4303  0761  07C4               	addwf	___flmul@prod,f
  4304  0762  3000               	movlw	0
  4305  0763  1803               	skipnc
  4306  0764  3001               	movlw	1
  4307  0765  07C5               	addwf	___flmul@prod+1,f
  4308  0766  3000               	movlw	0
  4309  0767  1803               	skipnc
  4310  0768  3001               	movlw	1
  4311  0769  07C6               	addwf	___flmul@prod+2,f
  4312  076A  3000               	movlw	0
  4313  076B  1803               	skipnc
  4314  076C  3001               	movlw	1
  4315  076D  07C7               	addwf	___flmul@prod+3,f
  4316  076E                     l2498:	
  4317  076E  1C47               	btfss	___flmul@prod+3,0
  4318  076F  2F71               	goto	u3411
  4319  0770  2F72               	goto	u3410
  4320  0771                     u3411:	
  4321  0771  2F91               	goto	l2504
  4322  0772                     u3410:	
  4323  0772                     l2500:	
  4324  0772  0844               	movf	___flmul@prod,w
  4325  0773  00B8               	movwf	??___flmul
  4326  0774  0845               	movf	___flmul@prod+1,w
  4327  0775  00B9               	movwf	??___flmul+1
  4328  0776  0846               	movf	___flmul@prod+2,w
  4329  0777  00BA               	movwf	??___flmul+2
  4330  0778  0847               	movf	___flmul@prod+3,w
  4331  0779  00BB               	movwf	??___flmul+3
  4332  077A  3001               	movlw	1
  4333  077B  00BC               	movwf	??___flmul+4
  4334  077C                     u3425:	
  4335  077C  0D3B               	rlf	??___flmul+3,w
  4336  077D  0CBB               	rrf	??___flmul+3,f
  4337  077E  0CBA               	rrf	??___flmul+2,f
  4338  077F  0CB9               	rrf	??___flmul+1,f
  4339  0780  0CB8               	rrf	??___flmul,f
  4340  0781                     u3420:	
  4341  0781  0BBC               	decfsz	??___flmul+4,f
  4342  0782  2F7C               	goto	u3425
  4343  0783  083B               	movf	??___flmul+3,w
  4344  0784  00C7               	movwf	___flmul@prod+3
  4345  0785  083A               	movf	??___flmul+2,w
  4346  0786  00C6               	movwf	___flmul@prod+2
  4347  0787  0839               	movf	??___flmul+1,w
  4348  0788  00C5               	movwf	___flmul@prod+1
  4349  0789  0838               	movf	??___flmul,w
  4350  078A  00C4               	movwf	___flmul@prod
  4351  078B                     l2502:	
  4352  078B  3001               	movlw	1
  4353  078C  07C8               	addwf	___flmul@temp,f
  4354  078D  1803               	skipnc
  4355  078E  0AC9               	incf	___flmul@temp+1,f
  4356  078F  3000               	movlw	0
  4357  0790  07C9               	addwf	___flmul@temp+1,f
  4358  0791                     l2504:	
  4359  0791  0849               	movf	___flmul@temp+1,w
  4360  0792  3A80               	xorlw	128
  4361  0793  00FF               	movwf	btemp+1
  4362  0794  3080               	movlw	128
  4363  0795  027F               	subwf	btemp+1,w
  4364  0796  1D03               	skipz
  4365  0797  2F9A               	goto	u3435
  4366  0798  30FF               	movlw	255
  4367  0799  0248               	subwf	___flmul@temp,w
  4368  079A                     u3435:	
  4369  079A  1C03               	skipc
  4370  079B  2F9D               	goto	u3431
  4371  079C  2F9E               	goto	u3430
  4372  079D                     u3431:	
  4373  079D  2FA9               	goto	l2508
  4374  079E                     u3430:	
  4375  079E                     l2506:	
  4376  079E  307F               	movlw	127
  4377  079F  1283               	bcf	3,5	;RP0=0, select bank0
  4378  07A0  1303               	bcf	3,6	;RP1=0, select bank0
  4379  07A1  00C7               	movwf	___flmul@prod+3
  4380  07A2  3080               	movlw	128
  4381  07A3  00C6               	movwf	___flmul@prod+2
  4382  07A4  3000               	movlw	0
  4383  07A5  00C5               	movwf	___flmul@prod+1
  4384  07A6  3000               	movlw	0
  4385  07A7  00C4               	movwf	___flmul@prod
  4386  07A8  2FDE               	goto	l673
  4387  07A9                     l2508:	
  4388  07A9  1283               	bcf	3,5	;RP0=0, select bank0
  4389  07AA  1303               	bcf	3,6	;RP1=0, select bank0
  4390  07AB  0849               	movf	___flmul@temp+1,w
  4391  07AC  3A80               	xorlw	128
  4392  07AD  00FF               	movwf	btemp+1
  4393  07AE  3080               	movlw	128
  4394  07AF  027F               	subwf	btemp+1,w
  4395  07B0  1D03               	skipz
  4396  07B1  2FB4               	goto	u3445
  4397  07B2  3001               	movlw	1
  4398  07B3  0248               	subwf	___flmul@temp,w
  4399  07B4                     u3445:	
  4400  07B4  1803               	skipnc
  4401  07B5  2FB7               	goto	u3441
  4402  07B6  2FB8               	goto	u3440
  4403  07B7                     u3441:	
  4404  07B7  2FC4               	goto	l2514
  4405  07B8                     u3440:	
  4406  07B8                     l2510:	
  4407  07B8  3000               	movlw	0
  4408  07B9  1283               	bcf	3,5	;RP0=0, select bank0
  4409  07BA  1303               	bcf	3,6	;RP1=0, select bank0
  4410  07BB  00C7               	movwf	___flmul@prod+3
  4411  07BC  3000               	movlw	0
  4412  07BD  00C6               	movwf	___flmul@prod+2
  4413  07BE  3000               	movlw	0
  4414  07BF  00C5               	movwf	___flmul@prod+1
  4415  07C0  3000               	movlw	0
  4416  07C1  00C4               	movwf	___flmul@prod
  4417  07C2                     l2512:	
  4418  07C2  01BD               	clrf	___flmul@sign
  4419  07C3  2FDE               	goto	l673
  4420  07C4                     l2514:	
  4421  07C4  1283               	bcf	3,5	;RP0=0, select bank0
  4422  07C5  1303               	bcf	3,6	;RP1=0, select bank0
  4423  07C6  0848               	movf	___flmul@temp,w
  4424  07C7  00B8               	movwf	??___flmul
  4425  07C8  0838               	movf	??___flmul,w
  4426  07C9  00C3               	movwf	___flmul@bexp
  4427  07CA  30FF               	movlw	255
  4428  07CB  05C4               	andwf	___flmul@prod,f
  4429  07CC  30FF               	movlw	255
  4430  07CD  05C5               	andwf	___flmul@prod+1,f
  4431  07CE  307F               	movlw	127
  4432  07CF  05C6               	andwf	___flmul@prod+2,f
  4433  07D0  3000               	movlw	0
  4434  07D1  05C7               	andwf	___flmul@prod+3,f
  4435  07D2                     l2516:	
  4436  07D2  1C43               	btfss	___flmul@bexp,0
  4437  07D3  2FD5               	goto	u3451
  4438  07D4  2FD6               	goto	u3450
  4439  07D5                     u3451:	
  4440  07D5  2FD7               	goto	l2520
  4441  07D6                     u3450:	
  4442  07D6                     l2518:	
  4443  07D6  17C6               	bsf	___flmul@prod+2,7
  4444  07D7                     l2520:	
  4445  07D7  0843               	movf	___flmul@bexp,w
  4446  07D8  00B8               	movwf	??___flmul
  4447  07D9  1003               	clrc
  4448  07DA  0C38               	rrf	??___flmul,w
  4449  07DB  00B9               	movwf	??___flmul+1
  4450  07DC  0839               	movf	??___flmul+1,w
  4451  07DD  00C7               	movwf	___flmul@prod+3
  4452  07DE                     l673:	
  4453  07DE  083D               	movf	___flmul@sign,w
  4454  07DF  00B8               	movwf	??___flmul
  4455  07E0  0838               	movf	??___flmul,w
  4456  07E1  04C7               	iorwf	___flmul@prod+3,f
  4457  07E2                     l2522:	
  4458  07E2  0847               	movf	___flmul@prod+3,w
  4459  07E3  00B3               	movwf	?___flmul+3
  4460  07E4  0846               	movf	___flmul@prod+2,w
  4461  07E5  00B2               	movwf	?___flmul+2
  4462  07E6  0845               	movf	___flmul@prod+1,w
  4463  07E7  00B1               	movwf	?___flmul+1
  4464  07E8  0844               	movf	___flmul@prod,w
  4465  07E9  00B0               	movwf	?___flmul
  4466  07EA                     l661:	
  4467  07EA  0008               	return
  4468  07EB                     __end_of___flmul:	
  4469                           
  4470                           	psect	text9
  4471  0949                     __ptext9:	
  4472 ;; *************** function __Umul8_16 *****************
  4473 ;; Defined at:
  4474 ;;		line 4 in file "C:\Program Files (x86)\Microchip\xc8\v2.10\pic\sources\c90\common\Umul8_16.c"
  4475 ;; Parameters:    Size  Location     Type
  4476 ;;  multiplier      1    wreg     unsigned char 
  4477 ;;  multiplicand    1    0[COMMON] unsigned char 
  4478 ;; Auto vars:     Size  Location     Type
  4479 ;;  multiplier      1    8[COMMON] unsigned char 
  4480 ;;  word_mpld       2    6[COMMON] unsigned int 
  4481 ;;  product         2    4[COMMON] unsigned int 
  4482 ;; Return value:  Size  Location     Type
  4483 ;;                  2    0[COMMON] unsigned int 
  4484 ;; Registers used:
  4485 ;;		wreg, status,2, status,0
  4486 ;; Tracked objects:
  4487 ;;		On entry : 0/0
  4488 ;;		On exit  : 0/0
  4489 ;;		Unchanged: 0/0
  4490 ;; Data sizes:     COMMON   BANK0   BANK1   BANK3   BANK2
  4491 ;;      Params:         2       0       0       0       0
  4492 ;;      Locals:         5       0       0       0       0
  4493 ;;      Temps:          2       0       0       0       0
  4494 ;;      Totals:         9       0       0       0       0
  4495 ;;Total ram usage:        9 bytes
  4496 ;; Hardware stack levels used:    1
  4497 ;; This function calls:
  4498 ;;		Nothing
  4499 ;; This function is called by:
  4500 ;;		___flmul
  4501 ;; This function uses a non-reentrant model
  4502 ;;
  4503                           
  4504                           
  4505                           ;psect for function __Umul8_16
  4506  0949                     __Umul8_16:	
  4507                           
  4508                           ;incstack = 0
  4509                           ; Regs used in __Umul8_16: [wreg+status,2+status,0]
  4510                           ;__Umul8_16@multiplier stored from wreg
  4511  0949  00F8               	movwf	__Umul8_16@multiplier
  4512  094A                     l2118:	
  4513  094A  01F4               	clrf	__Umul8_16@product
  4514  094B  01F5               	clrf	__Umul8_16@product+1
  4515  094C                     l2120:	
  4516  094C  0870               	movf	__Umul8_16@multiplicand,w
  4517  094D  00F2               	movwf	??__Umul8_16
  4518  094E  01F3               	clrf	??__Umul8_16+1
  4519  094F  0872               	movf	??__Umul8_16,w
  4520  0950  00F6               	movwf	__Umul8_16@word_mpld
  4521  0951  0873               	movf	??__Umul8_16+1,w
  4522  0952  00F7               	movwf	__Umul8_16@word_mpld+1
  4523  0953                     l2122:	
  4524  0953  1C78               	btfss	__Umul8_16@multiplier,0
  4525  0954  2956               	goto	u2641
  4526  0955  2957               	goto	u2640
  4527  0956                     u2641:	
  4528  0956  295D               	goto	l718
  4529  0957                     u2640:	
  4530  0957                     l2124:	
  4531  0957  0876               	movf	__Umul8_16@word_mpld,w
  4532  0958  07F4               	addwf	__Umul8_16@product,f
  4533  0959  1803               	skipnc
  4534  095A  0AF5               	incf	__Umul8_16@product+1,f
  4535  095B  0877               	movf	__Umul8_16@word_mpld+1,w
  4536  095C  07F5               	addwf	__Umul8_16@product+1,f
  4537  095D                     l718:	
  4538  095D  3001               	movlw	1
  4539  095E                     u2655:	
  4540  095E  1003               	clrc
  4541  095F  0DF6               	rlf	__Umul8_16@word_mpld,f
  4542  0960  0DF7               	rlf	__Umul8_16@word_mpld+1,f
  4543  0961  3EFF               	addlw	-1
  4544  0962  1D03               	skipz
  4545  0963  295E               	goto	u2655
  4546  0964  1003               	clrc
  4547  0965  0CF8               	rrf	__Umul8_16@multiplier,f
  4548  0966                     l2126:	
  4549  0966  0878               	movf	__Umul8_16@multiplier,w
  4550  0967  1D03               	btfss	3,2
  4551  0968  296A               	goto	u2661
  4552  0969  296B               	goto	u2660
  4553  096A                     u2661:	
  4554  096A  2953               	goto	l2122
  4555  096B                     u2660:	
  4556  096B                     l2128:	
  4557  096B  0875               	movf	__Umul8_16@product+1,w
  4558  096C  00F1               	movwf	?__Umul8_16+1
  4559  096D  0874               	movf	__Umul8_16@product,w
  4560  096E  00F0               	movwf	?__Umul8_16
  4561  096F                     l720:	
  4562  096F  0008               	return
  4563  0970                     __end_of__Umul8_16:	
  4564                           
  4565                           	psect	text10
  4566  000A                     __ptext10:	
  4567 ;; *************** function ___fldiv *****************
  4568 ;; Defined at:
  4569 ;;		line 8 in file "C:\Program Files (x86)\Microchip\xc8\v2.10\pic\sources\c90\common\sprcdiv.c"
  4570 ;; Parameters:    Size  Location     Type
  4571 ;;  a               4   42[BANK0 ] unsigned int 
  4572 ;;  b               4   46[BANK0 ] unsigned int 
  4573 ;; Auto vars:     Size  Location     Type
  4574 ;;  grs             4   62[BANK0 ] unsigned long 
  4575 ;;  rem             4   55[BANK0 ] unsigned long 
  4576 ;;  new_exp         2   60[BANK0 ] int 
  4577 ;;  aexp            1   67[BANK0 ] unsigned char 
  4578 ;;  bexp            1   66[BANK0 ] unsigned char 
  4579 ;;  sign            1   59[BANK0 ] unsigned char 
  4580 ;; Return value:  Size  Location     Type
  4581 ;;                  4   42[BANK0 ] unsigned char 
  4582 ;; Registers used:
  4583 ;;		wreg, status,2, status,0, btemp+1
  4584 ;; Tracked objects:
  4585 ;;		On entry : 0/0
  4586 ;;		On exit  : 0/0
  4587 ;;		Unchanged: 0/0
  4588 ;; Data sizes:     COMMON   BANK0   BANK1   BANK3   BANK2
  4589 ;;      Params:         0       8       0       0       0
  4590 ;;      Locals:         0      13       0       0       0
  4591 ;;      Temps:          0       5       0       0       0
  4592 ;;      Totals:         0      26       0       0       0
  4593 ;;Total ram usage:       26 bytes
  4594 ;; Hardware stack levels used:    1
  4595 ;; This function calls:
  4596 ;;		Nothing
  4597 ;; This function is called by:
  4598 ;;		_main
  4599 ;; This function uses a non-reentrant model
  4600 ;;
  4601                           
  4602                           
  4603                           ;psect for function ___fldiv
  4604  000A                     ___fldiv:	
  4605  000A                     l2244:	
  4606                           ;incstack = 0
  4607                           ; Regs used in ___fldiv: [wreg+status,2+status,0+btemp+1]
  4608                           
  4609  000A  1283               	bcf	3,5	;RP0=0, select bank0
  4610  000B  1303               	bcf	3,6	;RP1=0, select bank0
  4611  000C  0851               	movf	___fldiv@b+3,w
  4612  000D  3980               	andlw	128
  4613  000E  00D2               	movwf	??___fldiv
  4614  000F  0852               	movf	??___fldiv,w
  4615  0010  00DB               	movwf	___fldiv@sign
  4616  0011                     l2246:	
  4617  0011  0851               	movf	___fldiv@b+3,w
  4618  0012  00D2               	movwf	??___fldiv
  4619  0013  0752               	addwf	??___fldiv,w
  4620  0014  00D3               	movwf	??___fldiv+1
  4621  0015  0853               	movf	??___fldiv+1,w
  4622  0016  00E2               	movwf	___fldiv@bexp
  4623  0017                     l2248:	
  4624  0017  1FD0               	btfss	___fldiv@b+2,7
  4625  0018  281A               	goto	u2801
  4626  0019  281B               	goto	u2800
  4627  001A                     u2801:	
  4628  001A  281C               	goto	l2252
  4629  001B                     u2800:	
  4630  001B                     l2250:	
  4631  001B  1462               	bsf	___fldiv@bexp,0
  4632  001C                     l2252:	
  4633  001C  0862               	movf	___fldiv@bexp,w
  4634  001D  1903               	btfsc	3,2
  4635  001E  2820               	goto	u2811
  4636  001F  2821               	goto	u2810
  4637  0020                     u2811:	
  4638  0020  2831               	goto	l2262
  4639  0021                     u2810:	
  4640  0021                     l2254:	
  4641  0021  0A62               	incf	___fldiv@bexp,w
  4642  0022  1D03               	btfss	3,2
  4643  0023  2825               	goto	u2821
  4644  0024  2826               	goto	u2820
  4645  0025                     u2821:	
  4646  0025  282E               	goto	l2258
  4647  0026                     u2820:	
  4648  0026                     l2256:	
  4649  0026  3000               	movlw	0
  4650  0027  00D1               	movwf	___fldiv@b+3
  4651  0028  3000               	movlw	0
  4652  0029  00D0               	movwf	___fldiv@b+2
  4653  002A  3000               	movlw	0
  4654  002B  00CF               	movwf	___fldiv@b+1
  4655  002C  3000               	movlw	0
  4656  002D  00CE               	movwf	___fldiv@b
  4657  002E                     l2258:	
  4658  002E  17D0               	bsf	___fldiv@b+2,7
  4659  002F                     l2260:	
  4660  002F  01D1               	clrf	___fldiv@b+3
  4661  0030  2839               	goto	l2264
  4662  0031                     l2262:	
  4663  0031  3000               	movlw	0
  4664  0032  00D1               	movwf	___fldiv@b+3
  4665  0033  3000               	movlw	0
  4666  0034  00D0               	movwf	___fldiv@b+2
  4667  0035  3000               	movlw	0
  4668  0036  00CF               	movwf	___fldiv@b+1
  4669  0037  3000               	movlw	0
  4670  0038  00CE               	movwf	___fldiv@b
  4671  0039                     l2264:	
  4672  0039  084D               	movf	___fldiv@a+3,w
  4673  003A  3980               	andlw	128
  4674  003B  00D2               	movwf	??___fldiv
  4675  003C  0852               	movf	??___fldiv,w
  4676  003D  06DB               	xorwf	___fldiv@sign,f
  4677  003E                     l2266:	
  4678  003E  084D               	movf	___fldiv@a+3,w
  4679  003F  00D2               	movwf	??___fldiv
  4680  0040  0752               	addwf	??___fldiv,w
  4681  0041  00D3               	movwf	??___fldiv+1
  4682  0042  0853               	movf	??___fldiv+1,w
  4683  0043  00E3               	movwf	___fldiv@aexp
  4684  0044                     l2268:	
  4685  0044  1FCC               	btfss	___fldiv@a+2,7
  4686  0045  2847               	goto	u2831
  4687  0046  2848               	goto	u2830
  4688  0047                     u2831:	
  4689  0047  2849               	goto	l2272
  4690  0048                     u2830:	
  4691  0048                     l2270:	
  4692  0048  1463               	bsf	___fldiv@aexp,0
  4693  0049                     l2272:	
  4694  0049  0863               	movf	___fldiv@aexp,w
  4695  004A  1903               	btfsc	3,2
  4696  004B  284D               	goto	u2841
  4697  004C  284E               	goto	u2840
  4698  004D                     u2841:	
  4699  004D  285E               	goto	l2282
  4700  004E                     u2840:	
  4701  004E                     l2274:	
  4702  004E  0A63               	incf	___fldiv@aexp,w
  4703  004F  1D03               	btfss	3,2
  4704  0050  2852               	goto	u2851
  4705  0051  2853               	goto	u2850
  4706  0052                     u2851:	
  4707  0052  285B               	goto	l2278
  4708  0053                     u2850:	
  4709  0053                     l2276:	
  4710  0053  3000               	movlw	0
  4711  0054  00CD               	movwf	___fldiv@a+3
  4712  0055  3000               	movlw	0
  4713  0056  00CC               	movwf	___fldiv@a+2
  4714  0057  3000               	movlw	0
  4715  0058  00CB               	movwf	___fldiv@a+1
  4716  0059  3000               	movlw	0
  4717  005A  00CA               	movwf	___fldiv@a
  4718  005B                     l2278:	
  4719  005B  17CC               	bsf	___fldiv@a+2,7
  4720  005C                     l2280:	
  4721  005C  01CD               	clrf	___fldiv@a+3
  4722  005D  2866               	goto	l621
  4723  005E                     l2282:	
  4724  005E  3000               	movlw	0
  4725  005F  00CD               	movwf	___fldiv@a+3
  4726  0060  3000               	movlw	0
  4727  0061  00CC               	movwf	___fldiv@a+2
  4728  0062  3000               	movlw	0
  4729  0063  00CB               	movwf	___fldiv@a+1
  4730  0064  3000               	movlw	0
  4731  0065  00CA               	movwf	___fldiv@a
  4732  0066                     l621:	
  4733  0066  084D               	movf	___fldiv@a+3,w
  4734  0067  044C               	iorwf	___fldiv@a+2,w
  4735  0068  044B               	iorwf	___fldiv@a+1,w
  4736  0069  044A               	iorwf	___fldiv@a,w
  4737  006A  1D03               	skipz
  4738  006B  286D               	goto	u2861
  4739  006C  286E               	goto	u2860
  4740  006D                     u2861:	
  4741  006D  2887               	goto	l2292
  4742  006E                     u2860:	
  4743  006E                     l2284:	
  4744  006E  3000               	movlw	0
  4745  006F  00D1               	movwf	___fldiv@b+3
  4746  0070  3000               	movlw	0
  4747  0071  00D0               	movwf	___fldiv@b+2
  4748  0072  3000               	movlw	0
  4749  0073  00CF               	movwf	___fldiv@b+1
  4750  0074  3000               	movlw	0
  4751  0075  00CE               	movwf	___fldiv@b
  4752  0076  3080               	movlw	128
  4753  0077  04D0               	iorwf	___fldiv@b+2,f
  4754  0078  307F               	movlw	127
  4755  0079  04D1               	iorwf	___fldiv@b+3,f
  4756  007A                     l2286:	
  4757  007A  085B               	movf	___fldiv@sign,w
  4758  007B  00D2               	movwf	??___fldiv
  4759  007C  0852               	movf	??___fldiv,w
  4760  007D  04D1               	iorwf	___fldiv@b+3,f
  4761  007E                     l2288:	
  4762  007E  0851               	movf	___fldiv@b+3,w
  4763  007F  00CD               	movwf	?___fldiv+3
  4764  0080  0850               	movf	___fldiv@b+2,w
  4765  0081  00CC               	movwf	?___fldiv+2
  4766  0082  084F               	movf	___fldiv@b+1,w
  4767  0083  00CB               	movwf	?___fldiv+1
  4768  0084  084E               	movf	___fldiv@b,w
  4769  0085  00CA               	movwf	?___fldiv
  4770  0086  29E6               	goto	l623
  4771  0087                     l2292:	
  4772  0087  0862               	movf	___fldiv@bexp,w
  4773  0088  1D03               	btfss	3,2
  4774  0089  288B               	goto	u2871
  4775  008A  288C               	goto	u2870
  4776  008B                     u2871:	
  4777  008B  2895               	goto	l2298
  4778  008C                     u2870:	
  4779  008C                     l2294:	
  4780  008C  3000               	movlw	0
  4781  008D  00CD               	movwf	?___fldiv+3
  4782  008E  3000               	movlw	0
  4783  008F  00CC               	movwf	?___fldiv+2
  4784  0090  3000               	movlw	0
  4785  0091  00CB               	movwf	?___fldiv+1
  4786  0092  3000               	movlw	0
  4787  0093  00CA               	movwf	?___fldiv
  4788  0094  29E6               	goto	l623
  4789  0095                     l2298:	
  4790  0095  0862               	movf	___fldiv@bexp,w
  4791  0096  00D2               	movwf	??___fldiv
  4792  0097  01D3               	clrf	??___fldiv+1
  4793  0098  0853               	movf	??___fldiv+1,w
  4794  0099  00D5               	movwf	??___fldiv+3
  4795  009A  0863               	movf	___fldiv@aexp,w
  4796  009B  0252               	subwf	??___fldiv,w
  4797  009C  00D4               	movwf	??___fldiv+2
  4798  009D  1C03               	skipc
  4799  009E  03D5               	decf	??___fldiv+3,f
  4800  009F  0854               	movf	??___fldiv+2,w
  4801  00A0  3E7F               	addlw	127
  4802  00A1  00DC               	movwf	___fldiv@new_exp
  4803  00A2  0855               	movf	??___fldiv+3,w
  4804  00A3  1803               	skipnc
  4805  00A4  3E01               	addlw	1
  4806  00A5  3E00               	addlw	0
  4807  00A6  00DD               	movwf	___fldiv@new_exp+1
  4808  00A7                     l2300:	
  4809  00A7  0851               	movf	___fldiv@b+3,w
  4810  00A8  00DA               	movwf	___fldiv@rem+3
  4811  00A9  0850               	movf	___fldiv@b+2,w
  4812  00AA  00D9               	movwf	___fldiv@rem+2
  4813  00AB  084F               	movf	___fldiv@b+1,w
  4814  00AC  00D8               	movwf	___fldiv@rem+1
  4815  00AD  084E               	movf	___fldiv@b,w
  4816  00AE  00D7               	movwf	___fldiv@rem
  4817  00AF                     l2302:	
  4818  00AF  3000               	movlw	0
  4819  00B0  00D1               	movwf	___fldiv@b+3
  4820  00B1  3000               	movlw	0
  4821  00B2  00D0               	movwf	___fldiv@b+2
  4822  00B3  3000               	movlw	0
  4823  00B4  00CF               	movwf	___fldiv@b+1
  4824  00B5  3000               	movlw	0
  4825  00B6  00CE               	movwf	___fldiv@b
  4826  00B7                     l2304:	
  4827  00B7  3000               	movlw	0
  4828  00B8  00E1               	movwf	___fldiv@grs+3
  4829  00B9  3000               	movlw	0
  4830  00BA  00E0               	movwf	___fldiv@grs+2
  4831  00BB  3000               	movlw	0
  4832  00BC  00DF               	movwf	___fldiv@grs+1
  4833  00BD  3000               	movlw	0
  4834  00BE  00DE               	movwf	___fldiv@grs
  4835  00BF                     l2306:	
  4836  00BF  01E3               	clrf	___fldiv@aexp
  4837  00C0  290B               	goto	l2326
  4838  00C1                     l2308:	
  4839  00C1  0863               	movf	___fldiv@aexp,w
  4840  00C2  1903               	btfsc	3,2
  4841  00C3  28C5               	goto	u2881
  4842  00C4  28C6               	goto	u2880
  4843  00C5                     u2881:	
  4844  00C5  28E6               	goto	l2318
  4845  00C6                     u2880:	
  4846  00C6                     l2310:	
  4847  00C6  3001               	movlw	1
  4848  00C7  00D2               	movwf	??___fldiv
  4849  00C8                     u2895:	
  4850  00C8  1003               	clrc
  4851  00C9  0DD7               	rlf	___fldiv@rem,f
  4852  00CA  0DD8               	rlf	___fldiv@rem+1,f
  4853  00CB  0DD9               	rlf	___fldiv@rem+2,f
  4854  00CC  0DDA               	rlf	___fldiv@rem+3,f
  4855  00CD  0BD2               	decfsz	??___fldiv,f
  4856  00CE  28C8               	goto	u2895
  4857  00CF  3001               	movlw	1
  4858  00D0  00D2               	movwf	??___fldiv
  4859  00D1                     u2905:	
  4860  00D1  1003               	clrc
  4861  00D2  0DCE               	rlf	___fldiv@b,f
  4862  00D3  0DCF               	rlf	___fldiv@b+1,f
  4863  00D4  0DD0               	rlf	___fldiv@b+2,f
  4864  00D5  0DD1               	rlf	___fldiv@b+3,f
  4865  00D6  0BD2               	decfsz	??___fldiv,f
  4866  00D7  28D1               	goto	u2905
  4867  00D8                     l2312:	
  4868  00D8  1FE1               	btfss	___fldiv@grs+3,7
  4869  00D9  28DB               	goto	u2911
  4870  00DA  28DC               	goto	u2910
  4871  00DB                     u2911:	
  4872  00DB  28DD               	goto	l2316
  4873  00DC                     u2910:	
  4874  00DC                     l2314:	
  4875  00DC  144E               	bsf	___fldiv@b,0
  4876  00DD                     l2316:	
  4877  00DD  3001               	movlw	1
  4878  00DE  00D2               	movwf	??___fldiv
  4879  00DF                     u2925:	
  4880  00DF  1003               	clrc
  4881  00E0  0DDE               	rlf	___fldiv@grs,f
  4882  00E1  0DDF               	rlf	___fldiv@grs+1,f
  4883  00E2  0DE0               	rlf	___fldiv@grs+2,f
  4884  00E3  0DE1               	rlf	___fldiv@grs+3,f
  4885  00E4  0BD2               	decfsz	??___fldiv,f
  4886  00E5  28DF               	goto	u2925
  4887  00E6                     l2318:	
  4888  00E6  084D               	movf	___fldiv@a+3,w
  4889  00E7  025A               	subwf	___fldiv@rem+3,w
  4890  00E8  1D03               	skipz
  4891  00E9  28F4               	goto	u2935
  4892  00EA  084C               	movf	___fldiv@a+2,w
  4893  00EB  0259               	subwf	___fldiv@rem+2,w
  4894  00EC  1D03               	skipz
  4895  00ED  28F4               	goto	u2935
  4896  00EE  084B               	movf	___fldiv@a+1,w
  4897  00EF  0258               	subwf	___fldiv@rem+1,w
  4898  00F0  1D03               	skipz
  4899  00F1  28F4               	goto	u2935
  4900  00F2  084A               	movf	___fldiv@a,w
  4901  00F3  0257               	subwf	___fldiv@rem,w
  4902  00F4                     u2935:	
  4903  00F4  1C03               	skipc
  4904  00F5  28F7               	goto	u2931
  4905  00F6  28F8               	goto	u2930
  4906  00F7                     u2931:	
  4907  00F7  2907               	goto	l2324
  4908  00F8                     u2930:	
  4909  00F8                     l2320:	
  4910  00F8  1761               	bsf	___fldiv@grs+3,6
  4911  00F9                     l2322:	
  4912  00F9  084A               	movf	___fldiv@a,w
  4913  00FA  02D7               	subwf	___fldiv@rem,f
  4914  00FB  084B               	movf	___fldiv@a+1,w
  4915  00FC  1C03               	skipc
  4916  00FD  0F4B               	incfsz	___fldiv@a+1,w
  4917  00FE  02D8               	subwf	___fldiv@rem+1,f
  4918  00FF  084C               	movf	___fldiv@a+2,w
  4919  0100  1C03               	skipc
  4920  0101  0F4C               	incfsz	___fldiv@a+2,w
  4921  0102  02D9               	subwf	___fldiv@rem+2,f
  4922  0103  084D               	movf	___fldiv@a+3,w
  4923  0104  1C03               	skipc
  4924  0105  0F4D               	incfsz	___fldiv@a+3,w
  4925  0106  02DA               	subwf	___fldiv@rem+3,f
  4926  0107                     l2324:	
  4927  0107  3001               	movlw	1
  4928  0108  00D2               	movwf	??___fldiv
  4929  0109  0852               	movf	??___fldiv,w
  4930  010A  07E3               	addwf	___fldiv@aexp,f
  4931  010B                     l2326:	
  4932  010B  301A               	movlw	26
  4933  010C  0263               	subwf	___fldiv@aexp,w
  4934  010D  1C03               	skipc
  4935  010E  2910               	goto	u2941
  4936  010F  2911               	goto	u2940
  4937  0110                     u2941:	
  4938  0110  28C1               	goto	l2308
  4939  0111                     u2940:	
  4940  0111                     l2328:	
  4941  0111  085A               	movf	___fldiv@rem+3,w
  4942  0112  0459               	iorwf	___fldiv@rem+2,w
  4943  0113  0458               	iorwf	___fldiv@rem+1,w
  4944  0114  0457               	iorwf	___fldiv@rem,w
  4945  0115  1903               	skipnz
  4946  0116  2918               	goto	u2951
  4947  0117  2919               	goto	u2950
  4948  0118                     u2951:	
  4949  0118  2938               	goto	l2342
  4950  0119                     u2950:	
  4951  0119                     l2330:	
  4952  0119  145E               	bsf	___fldiv@grs,0
  4953  011A  2938               	goto	l2342
  4954  011B                     l2332:	
  4955  011B  3001               	movlw	1
  4956  011C  00D2               	movwf	??___fldiv
  4957  011D                     u2965:	
  4958  011D  1003               	clrc
  4959  011E  0DCE               	rlf	___fldiv@b,f
  4960  011F  0DCF               	rlf	___fldiv@b+1,f
  4961  0120  0DD0               	rlf	___fldiv@b+2,f
  4962  0121  0DD1               	rlf	___fldiv@b+3,f
  4963  0122  0BD2               	decfsz	??___fldiv,f
  4964  0123  291D               	goto	u2965
  4965  0124                     l2334:	
  4966  0124  1FE1               	btfss	___fldiv@grs+3,7
  4967  0125  2927               	goto	u2971
  4968  0126  2928               	goto	u2970
  4969  0127                     u2971:	
  4970  0127  2929               	goto	l2338
  4971  0128                     u2970:	
  4972  0128                     l2336:	
  4973  0128  144E               	bsf	___fldiv@b,0
  4974  0129                     l2338:	
  4975  0129  3001               	movlw	1
  4976  012A  00D2               	movwf	??___fldiv
  4977  012B                     u2985:	
  4978  012B  1003               	clrc
  4979  012C  0DDE               	rlf	___fldiv@grs,f
  4980  012D  0DDF               	rlf	___fldiv@grs+1,f
  4981  012E  0DE0               	rlf	___fldiv@grs+2,f
  4982  012F  0DE1               	rlf	___fldiv@grs+3,f
  4983  0130  0BD2               	decfsz	??___fldiv,f
  4984  0131  292B               	goto	u2985
  4985  0132                     l2340:	
  4986  0132  30FF               	movlw	255
  4987  0133  07DC               	addwf	___fldiv@new_exp,f
  4988  0134  1803               	skipnc
  4989  0135  0ADD               	incf	___fldiv@new_exp+1,f
  4990  0136  30FF               	movlw	255
  4991  0137  07DD               	addwf	___fldiv@new_exp+1,f
  4992  0138                     l2342:	
  4993  0138  1FD0               	btfss	___fldiv@b+2,7
  4994  0139  293B               	goto	u2991
  4995  013A  293C               	goto	u2990
  4996  013B                     u2991:	
  4997  013B  291B               	goto	l2332
  4998  013C                     u2990:	
  4999  013C                     l2344:	
  5000  013C  01E3               	clrf	___fldiv@aexp
  5001  013D                     l2346:	
  5002  013D  1FE1               	btfss	___fldiv@grs+3,7
  5003  013E  2940               	goto	u3001
  5004  013F  2941               	goto	u3000
  5005  0140                     u3001:	
  5006  0140  295D               	goto	l2354
  5007  0141                     u3000:	
  5008  0141                     l2348:	
  5009  0141  30FF               	movlw	255
  5010  0142  055E               	andwf	___fldiv@grs,w
  5011  0143  00D2               	movwf	??___fldiv
  5012  0144  30FF               	movlw	255
  5013  0145  055F               	andwf	___fldiv@grs+1,w
  5014  0146  00D3               	movwf	??___fldiv+1
  5015  0147  30FF               	movlw	255
  5016  0148  0560               	andwf	___fldiv@grs+2,w
  5017  0149  00D4               	movwf	??___fldiv+2
  5018  014A  307F               	movlw	127
  5019  014B  0561               	andwf	___fldiv@grs+3,w
  5020  014C  00D5               	movwf	??___fldiv+3
  5021  014D  0855               	movf	??___fldiv+3,w
  5022  014E  0454               	iorwf	??___fldiv+2,w
  5023  014F  0453               	iorwf	??___fldiv+1,w
  5024  0150  0452               	iorwf	??___fldiv,w
  5025  0151  1903               	skipnz
  5026  0152  2954               	goto	u3011
  5027  0153  2955               	goto	u3010
  5028  0154                     u3011:	
  5029  0154  2958               	goto	l637
  5030  0155                     u3010:	
  5031  0155                     l2350:	
  5032  0155  01E3               	clrf	___fldiv@aexp
  5033  0156  0AE3               	incf	___fldiv@aexp,f
  5034  0157  295D               	goto	l2354
  5035  0158                     l637:	
  5036  0158  1C4E               	btfss	___fldiv@b,0
  5037  0159  295B               	goto	u3021
  5038  015A  295C               	goto	u3020
  5039  015B                     u3021:	
  5040  015B  295D               	goto	l2354
  5041  015C                     u3020:	
  5042  015C  2955               	goto	l2350
  5043  015D                     l2354:	
  5044  015D  0863               	movf	___fldiv@aexp,w
  5045  015E  1903               	btfsc	3,2
  5046  015F  2961               	goto	u3031
  5047  0160  2962               	goto	u3030
  5048  0161                     u3031:	
  5049  0161  2993               	goto	l2364
  5050  0162                     u3030:	
  5051  0162                     l2356:	
  5052  0162  3001               	movlw	1
  5053  0163  07CE               	addwf	___fldiv@b,f
  5054  0164  3000               	movlw	0
  5055  0165  1803               	skipnc
  5056  0166  3001               	movlw	1
  5057  0167  07CF               	addwf	___fldiv@b+1,f
  5058  0168  3000               	movlw	0
  5059  0169  1803               	skipnc
  5060  016A  3001               	movlw	1
  5061  016B  07D0               	addwf	___fldiv@b+2,f
  5062  016C  3000               	movlw	0
  5063  016D  1803               	skipnc
  5064  016E  3001               	movlw	1
  5065  016F  07D1               	addwf	___fldiv@b+3,f
  5066  0170                     l2358:	
  5067  0170  1C51               	btfss	___fldiv@b+3,0
  5068  0171  2973               	goto	u3041
  5069  0172  2974               	goto	u3040
  5070  0173                     u3041:	
  5071  0173  2993               	goto	l2364
  5072  0174                     u3040:	
  5073  0174                     l2360:	
  5074  0174  084E               	movf	___fldiv@b,w
  5075  0175  00D2               	movwf	??___fldiv
  5076  0176  084F               	movf	___fldiv@b+1,w
  5077  0177  00D3               	movwf	??___fldiv+1
  5078  0178  0850               	movf	___fldiv@b+2,w
  5079  0179  00D4               	movwf	??___fldiv+2
  5080  017A  0851               	movf	___fldiv@b+3,w
  5081  017B  00D5               	movwf	??___fldiv+3
  5082  017C  3001               	movlw	1
  5083  017D  00D6               	movwf	??___fldiv+4
  5084  017E                     u3055:	
  5085  017E  0D55               	rlf	??___fldiv+3,w
  5086  017F  0CD5               	rrf	??___fldiv+3,f
  5087  0180  0CD4               	rrf	??___fldiv+2,f
  5088  0181  0CD3               	rrf	??___fldiv+1,f
  5089  0182  0CD2               	rrf	??___fldiv,f
  5090  0183                     u3050:	
  5091  0183  0BD6               	decfsz	??___fldiv+4,f
  5092  0184  297E               	goto	u3055
  5093  0185  0855               	movf	??___fldiv+3,w
  5094  0186  00D1               	movwf	___fldiv@b+3
  5095  0187  0854               	movf	??___fldiv+2,w
  5096  0188  00D0               	movwf	___fldiv@b+2
  5097  0189  0853               	movf	??___fldiv+1,w
  5098  018A  00CF               	movwf	___fldiv@b+1
  5099  018B  0852               	movf	??___fldiv,w
  5100  018C  00CE               	movwf	___fldiv@b
  5101  018D                     l2362:	
  5102  018D  3001               	movlw	1
  5103  018E  07DC               	addwf	___fldiv@new_exp,f
  5104  018F  1803               	skipnc
  5105  0190  0ADD               	incf	___fldiv@new_exp+1,f
  5106  0191  3000               	movlw	0
  5107  0192  07DD               	addwf	___fldiv@new_exp+1,f
  5108  0193                     l2364:	
  5109  0193  085D               	movf	___fldiv@new_exp+1,w
  5110  0194  3A80               	xorlw	128
  5111  0195  00FF               	movwf	btemp+1
  5112  0196  3080               	movlw	128
  5113  0197  027F               	subwf	btemp+1,w
  5114  0198  1D03               	skipz
  5115  0199  299C               	goto	u3065
  5116  019A  30FF               	movlw	255
  5117  019B  025C               	subwf	___fldiv@new_exp,w
  5118  019C                     u3065:	
  5119  019C  1C03               	skipc
  5120  019D  299F               	goto	u3061
  5121  019E  29A0               	goto	u3060
  5122  019F                     u3061:	
  5123  019F  29AE               	goto	l2368
  5124  01A0                     u3060:	
  5125  01A0                     l2366:	
  5126  01A0  30FF               	movlw	255
  5127  01A1  1283               	bcf	3,5	;RP0=0, select bank0
  5128  01A2  1303               	bcf	3,6	;RP1=0, select bank0
  5129  01A3  00DC               	movwf	___fldiv@new_exp
  5130  01A4  3000               	movlw	0
  5131  01A5  00DD               	movwf	___fldiv@new_exp+1
  5132  01A6  3000               	movlw	0
  5133  01A7  00D1               	movwf	___fldiv@b+3
  5134  01A8  3000               	movlw	0
  5135  01A9  00D0               	movwf	___fldiv@b+2
  5136  01AA  3000               	movlw	0
  5137  01AB  00CF               	movwf	___fldiv@b+1
  5138  01AC  3000               	movlw	0
  5139  01AD  00CE               	movwf	___fldiv@b
  5140  01AE                     l2368:	
  5141  01AE  1283               	bcf	3,5	;RP0=0, select bank0
  5142  01AF  1303               	bcf	3,6	;RP1=0, select bank0
  5143  01B0  085D               	movf	___fldiv@new_exp+1,w
  5144  01B1  3A80               	xorlw	128
  5145  01B2  00FF               	movwf	btemp+1
  5146  01B3  3080               	movlw	128
  5147  01B4  027F               	subwf	btemp+1,w
  5148  01B5  1D03               	skipz
  5149  01B6  29B9               	goto	u3075
  5150  01B7  3001               	movlw	1
  5151  01B8  025C               	subwf	___fldiv@new_exp,w
  5152  01B9                     u3075:	
  5153  01B9  1803               	skipnc
  5154  01BA  29BC               	goto	u3071
  5155  01BB  29BD               	goto	u3070
  5156  01BC                     u3071:	
  5157  01BC  29CA               	goto	l643
  5158  01BD                     u3070:	
  5159  01BD                     l2370:	
  5160  01BD  1283               	bcf	3,5	;RP0=0, select bank0
  5161  01BE  1303               	bcf	3,6	;RP1=0, select bank0
  5162  01BF  01DC               	clrf	___fldiv@new_exp
  5163  01C0  01DD               	clrf	___fldiv@new_exp+1
  5164  01C1                     l2372:	
  5165  01C1  3000               	movlw	0
  5166  01C2  00D1               	movwf	___fldiv@b+3
  5167  01C3  3000               	movlw	0
  5168  01C4  00D0               	movwf	___fldiv@b+2
  5169  01C5  3000               	movlw	0
  5170  01C6  00CF               	movwf	___fldiv@b+1
  5171  01C7  3000               	movlw	0
  5172  01C8  00CE               	movwf	___fldiv@b
  5173  01C9                     l2374:	
  5174  01C9  01DB               	clrf	___fldiv@sign
  5175  01CA                     l643:	
  5176  01CA  1283               	bcf	3,5	;RP0=0, select bank0
  5177  01CB  1303               	bcf	3,6	;RP1=0, select bank0
  5178  01CC  085C               	movf	___fldiv@new_exp,w
  5179  01CD  00D2               	movwf	??___fldiv
  5180  01CE  0852               	movf	??___fldiv,w
  5181  01CF  00E2               	movwf	___fldiv@bexp
  5182  01D0                     l2376:	
  5183  01D0  1C62               	btfss	___fldiv@bexp,0
  5184  01D1  29D3               	goto	u3081
  5185  01D2  29D4               	goto	u3080
  5186  01D3                     u3081:	
  5187  01D3  29D6               	goto	l2380
  5188  01D4                     u3080:	
  5189  01D4                     l2378:	
  5190  01D4  17D0               	bsf	___fldiv@b+2,7
  5191  01D5  29DA               	goto	l645
  5192  01D6                     l2380:	
  5193  01D6  307F               	movlw	127
  5194  01D7  00D2               	movwf	??___fldiv
  5195  01D8  0852               	movf	??___fldiv,w
  5196  01D9  05D0               	andwf	___fldiv@b+2,f
  5197  01DA                     l645:	
  5198  01DA  0862               	movf	___fldiv@bexp,w
  5199  01DB  00D2               	movwf	??___fldiv
  5200  01DC  1003               	clrc
  5201  01DD  0C52               	rrf	??___fldiv,w
  5202  01DE  00D3               	movwf	??___fldiv+1
  5203  01DF  0853               	movf	??___fldiv+1,w
  5204  01E0  00D1               	movwf	___fldiv@b+3
  5205  01E1  085B               	movf	___fldiv@sign,w
  5206  01E2  00D2               	movwf	??___fldiv
  5207  01E3  0852               	movf	??___fldiv,w
  5208  01E4  04D1               	iorwf	___fldiv@b+3,f
  5209  01E5  287E               	goto	l2288
  5210  01E6                     l623:	
  5211  01E6  0008               	return
  5212  01E7                     __end_of___fldiv:	
  5213                           
  5214                           	psect	text11
  5215  0899                     __ptext11:	
  5216 ;; *************** function _Lcd_Write_Number *****************
  5217 ;; Defined at:
  5218 ;;		line 72 in file "LCD8bits.c"
  5219 ;; Parameters:    Size  Location     Type
  5220 ;;  var             1    wreg     unsigned char 
  5221 ;; Auto vars:     Size  Location     Type
  5222 ;;  var             1   20[BANK0 ] unsigned char 
  5223 ;;  str             4   16[BANK0 ] unsigned char [4]
  5224 ;; Return value:  Size  Location     Type
  5225 ;;                  1    wreg      void 
  5226 ;; Registers used:
  5227 ;;		wreg, fsr0l, fsr0h, status,2, status,0, btemp+1, pclath, cstack
  5228 ;; Tracked objects:
  5229 ;;		On entry : 0/0
  5230 ;;		On exit  : 0/0
  5231 ;;		Unchanged: 0/0
  5232 ;; Data sizes:     COMMON   BANK0   BANK1   BANK3   BANK2
  5233 ;;      Params:         0       0       0       0       0
  5234 ;;      Locals:         0       5       0       0       0
  5235 ;;      Temps:          0       3       0       0       0
  5236 ;;      Totals:         0       8       0       0       0
  5237 ;;Total ram usage:        8 bytes
  5238 ;; Hardware stack levels used:    1
  5239 ;; Hardware stack levels required when called:    2
  5240 ;; This function calls:
  5241 ;;		_Lcd_Write_String
  5242 ;;		_sprintf
  5243 ;; This function is called by:
  5244 ;;		_main
  5245 ;; This function uses a non-reentrant model
  5246 ;;
  5247                           
  5248                           
  5249                           ;psect for function _Lcd_Write_Number
  5250  0899                     _Lcd_Write_Number:	
  5251                           
  5252                           ;incstack = 0
  5253                           ; Regs used in _Lcd_Write_Number: [wreg-fsr0h+status,2+status,0+btemp+1+pclath+cstack]
  5254                           ;Lcd_Write_Number@var stored from wreg
  5255  0899  1283               	bcf	3,5	;RP0=0, select bank0
  5256  089A  1303               	bcf	3,6	;RP1=0, select bank0
  5257  089B  00B4               	movwf	Lcd_Write_Number@var
  5258  089C                     l2200:	
  5259                           
  5260                           ;LCD8bits.c: 73:     char str[4];;LCD8bits.c: 74:     sprintf(str, "%d", var);
  5261  089C  3019               	movlw	(low ((STR_7-__stringbase)| (0+32768)))& (0+255)
  5262  089D  00AD               	movwf	??_Lcd_Write_Number
  5263  089E  082D               	movf	??_Lcd_Write_Number,w
  5264  089F  00A0               	movwf	sprintf@f
  5265  08A0  0834               	movf	Lcd_Write_Number@var,w
  5266  08A1  00AE               	movwf	??_Lcd_Write_Number+1
  5267  08A2  01AF               	clrf	??_Lcd_Write_Number+2
  5268  08A3  082E               	movf	??_Lcd_Write_Number+1,w
  5269  08A4  00A1               	movwf	?_sprintf+1
  5270  08A5  082F               	movf	??_Lcd_Write_Number+2,w
  5271  08A6  00A2               	movwf	?_sprintf+2
  5272  08A7  3030               	movlw	(low (Lcd_Write_Number@str| 0))& (0+255)
  5273  08A8  120A  158A  2480  120A  158A  	fcall	_sprintf
  5274                           
  5275                           ;LCD8bits.c: 75:     Lcd_Write_String(str);
  5276  08AD  3030               	movlw	(low (Lcd_Write_Number@str| 0))& (0+255)
  5277  08AE  00F2               	movwf	Lcd_Write_String@a
  5278  08AF  3000               	movlw	0
  5279  08B0  00F3               	movwf	Lcd_Write_String@a+1
  5280  08B1  120A  158A  2210  120A  158A  	fcall	_Lcd_Write_String
  5281  08B6                     l158:	
  5282  08B6  0008               	return
  5283  08B7                     __end_of_Lcd_Write_Number:	
  5284                           
  5285                           	psect	text12
  5286  0C80                     __ptext12:	
  5287 ;; *************** function _sprintf *****************
  5288 ;; Defined at:
  5289 ;;		line 505 in file "C:\Program Files (x86)\Microchip\xc8\v2.10\pic\sources\c90\common\doprnt.c"
  5290 ;; Parameters:    Size  Location     Type
  5291 ;;  sp              1    wreg     PTR unsigned char 
  5292 ;;		 -> Lcd_Write_Number@str(4), 
  5293 ;;  f               1    0[BANK0 ] PTR const unsigned char 
  5294 ;;		 -> STR_7(3), 
  5295 ;; Auto vars:     Size  Location     Type
  5296 ;;  sp              1   11[BANK0 ] PTR unsigned char 
  5297 ;;		 -> Lcd_Write_Number@str(4), 
  5298 ;;  tmpval          4    0        struct .
  5299 ;;  val             2    9[BANK0 ] unsigned int 
  5300 ;;  cp              2    0        PTR const unsigned char 
  5301 ;;  len             2    0        unsigned int 
  5302 ;;  c               1   12[BANK0 ] unsigned char 
  5303 ;;  prec            1    8[BANK0 ] char 
  5304 ;;  flag            1    7[BANK0 ] unsigned char 
  5305 ;;  ap              1    6[BANK0 ] PTR void [1]
  5306 ;;		 -> ?_sprintf(2), 
  5307 ;; Return value:  Size  Location     Type
  5308 ;;                  2    0[BANK0 ] int 
  5309 ;; Registers used:
  5310 ;;		wreg, fsr0l, fsr0h, status,2, status,0, btemp+1, pclath, cstack
  5311 ;; Tracked objects:
  5312 ;;		On entry : 0/0
  5313 ;;		On exit  : 0/0
  5314 ;;		Unchanged: 0/0
  5315 ;; Data sizes:     COMMON   BANK0   BANK1   BANK3   BANK2
  5316 ;;      Params:         0       3       0       0       0
  5317 ;;      Locals:         0       7       0       0       0
  5318 ;;      Temps:          0       3       0       0       0
  5319 ;;      Totals:         0      13       0       0       0
  5320 ;;Total ram usage:       13 bytes
  5321 ;; Hardware stack levels used:    1
  5322 ;; Hardware stack levels required when called:    1
  5323 ;; This function calls:
  5324 ;;		___lwdiv
  5325 ;;		___lwmod
  5326 ;; This function is called by:
  5327 ;;		_Lcd_Write_Number
  5328 ;; This function uses a non-reentrant model
  5329 ;;
  5330                           
  5331                           
  5332                           ;psect for function _sprintf
  5333  0C80                     _sprintf:	
  5334                           
  5335                           ;incstack = 0
  5336                           ; Regs used in _sprintf: [wreg-fsr0h+status,2+status,0+btemp+1+pclath+cstack]
  5337                           ;sprintf@sp stored from wreg
  5338  0C80  1283               	bcf	3,5	;RP0=0, select bank0
  5339  0C81  1303               	bcf	3,6	;RP1=0, select bank0
  5340  0C82  00AB               	movwf	sprintf@sp
  5341  0C83                     l1848:	
  5342                           
  5343                           ;C:\Program Files (x86)\Microchip\xc8\v2.10\pic\sources\c90\common\doprnt.c: 505: sprint
      +                          f(char * sp, const char * f, ...);C:\Program Files (x86)\Microchip\xc8\v2.10\pic\sources
      +                          \c90\common\doprnt.c: 506: {;C:\Program Files (x86)\Microchip\xc8\v2.10\pic\sources\c90\
      +                          common\doprnt.c: 507:  va_list ap;;C:\Program Files (x86)\Microchip\xc8\v2.10\pic\source
      +                          s\c90\common\doprnt.c: 512:  char c;;C:\Program Files (x86)\Microchip\xc8\v2.10\pic\sour
      +                          ces\c90\common\doprnt.c: 521:  signed char prec;;C:\Program Files (x86)\Microchip\xc8\v2
      +                          .10\pic\sources\c90\common\doprnt.c: 525:  unsigned char flag;
  5344  0C83  3021               	movlw	(low ((?_sprintf| 0+1)))& (0+255)
  5345  0C84  00A3               	movwf	??_sprintf
  5346  0C85  0823               	movf	??_sprintf,w
  5347  0C86  00A6               	movwf	sprintf@ap
  5348                           
  5349                           ;C:\Program Files (x86)\Microchip\xc8\v2.10\pic\sources\c90\common\doprnt.c: 553:  while
      +                          ((c = *f++)) {
  5350  0C87  2D51               	goto	l1900
  5351  0C88                     l1850:	
  5352                           
  5353                           ;C:\Program Files (x86)\Microchip\xc8\v2.10\pic\sources\c90\common\doprnt.c: 555:   if(c
      +                           != '%')
  5354  0C88  3025               	movlw	37
  5355  0C89  062C               	xorwf	sprintf@c,w
  5356  0C8A  1903               	btfsc	3,2
  5357  0C8B  2C8D               	goto	u2071
  5358  0C8C  2C8E               	goto	u2070
  5359  0C8D                     u2071:	
  5360  0C8D  2C9A               	goto	l1856
  5361  0C8E                     u2070:	
  5362  0C8E                     l1852:	
  5363                           
  5364                           ;C:\Program Files (x86)\Microchip\xc8\v2.10\pic\sources\c90\common\doprnt.c: 557:   {;C:
      +                          \Program Files (x86)\Microchip\xc8\v2.10\pic\sources\c90\common\doprnt.c: 558:    ((*sp+
      +                          + = (c)));
  5365  0C8E  082C               	movf	sprintf@c,w
  5366  0C8F  00A3               	movwf	??_sprintf
  5367  0C90  082B               	movf	sprintf@sp,w
  5368  0C91  0084               	movwf	4
  5369  0C92  0823               	movf	??_sprintf,w
  5370  0C93  1383               	bcf	3,7	;select IRP bank0
  5371  0C94  0080               	movwf	0
  5372  0C95                     l1854:	
  5373  0C95  3001               	movlw	1
  5374  0C96  00A3               	movwf	??_sprintf
  5375  0C97  0823               	movf	??_sprintf,w
  5376  0C98  07AB               	addwf	sprintf@sp,f
  5377                           
  5378                           ;C:\Program Files (x86)\Microchip\xc8\v2.10\pic\sources\c90\common\doprnt.c: 559:    con
      +                          tinue;
  5379  0C99  2D51               	goto	l1900
  5380  0C9A                     l1856:	
  5381                           
  5382                           ;C:\Program Files (x86)\Microchip\xc8\v2.10\pic\sources\c90\common\doprnt.c: 565:   flag
      +                           = 0;
  5383  0C9A  01A7               	clrf	sprintf@flag
  5384  0C9B                     l1860:	
  5385                           ;C:\Program Files (x86)\Microchip\xc8\v2.10\pic\sources\c90\common\doprnt.c: 661:   swit
      +                          ch(c = *f++) {
  5386                           
  5387  0C9B  3001               	movlw	1
  5388  0C9C  07A0               	addwf	sprintf@f,f
  5389  0C9D  30FF               	movlw	-1
  5390  0C9E  0720               	addwf	sprintf@f,w
  5391  0C9F  0084               	movwf	4
  5392  0CA0  120A  158A  200A  120A  158A  	fcall	stringdir
  5393  0CA5  00AC               	movwf	sprintf@c
  5394  0CA6  00A3               	movwf	??_sprintf
  5395  0CA7  01A4               	clrf	??_sprintf+1
  5396                           
  5397                           ; Switch on 2 bytes has been partitioned into a top level switch of size 1, and 1 sub-sw
      +                          itches
  5398                           ; Switch size 1, requested type "simple"
  5399                           ; Number of cases is 1, Range of values is 0 to 0
  5400                           ; switch strategies available:
  5401                           ; Name         Instructions Cycles
  5402                           ; simple_byte            4     3 (average)
  5403                           ; direct_byte           11     8 (fixed)
  5404                           ; jumptable            260     6 (fixed)
  5405                           ;	Chosen strategy is simple_byte
  5406  0CA8  0824               	movf	??_sprintf+1,w
  5407  0CA9  3A00               	xorlw	0	; case 0
  5408  0CAA  1903               	skipnz
  5409  0CAB  2CAD               	goto	l2680
  5410  0CAC  2D51               	goto	l1900
  5411  0CAD                     l2680:	
  5412                           
  5413                           ; Switch size 1, requested type "simple"
  5414                           ; Number of cases is 3, Range of values is 0 to 105
  5415                           ; switch strategies available:
  5416                           ; Name         Instructions Cycles
  5417                           ; simple_byte           10     6 (average)
  5418                           ; jumptable            260     6 (fixed)
  5419                           ;	Chosen strategy is simple_byte
  5420  0CAD  0823               	movf	??_sprintf,w
  5421  0CAE  3A00               	xorlw	0	; case 0
  5422  0CAF  1903               	skipnz
  5423  0CB0  2D63               	goto	l1902
  5424  0CB1  3A64               	xorlw	100	; case 100
  5425  0CB2  1903               	skipnz
  5426  0CB3  2CB8               	goto	l1862
  5427  0CB4  3A0D               	xorlw	13	; case 105
  5428  0CB5  1903               	skipnz
  5429  0CB6  2CB8               	goto	l1862
  5430  0CB7  2D51               	goto	l1900
  5431  0CB8                     l1862:	
  5432                           
  5433                           ;C:\Program Files (x86)\Microchip\xc8\v2.10\pic\sources\c90\common\doprnt.c: 1279:   {;C
      +                          :\Program Files (x86)\Microchip\xc8\v2.10\pic\sources\c90\common\doprnt.c: 1285:     val
      +                           = (unsigned int)(*(int *)__va_arg((*(int **)ap), (int)0));
  5434  0CB8  0826               	movf	sprintf@ap,w
  5435  0CB9  0084               	movwf	4
  5436  0CBA  1383               	bcf	3,7	;select IRP bank0
  5437  0CBB  0800               	movf	0,w
  5438  0CBC  00A9               	movwf	sprintf@val
  5439  0CBD  0A84               	incf	4,f
  5440  0CBE  0800               	movf	0,w
  5441  0CBF  00AA               	movwf	sprintf@val+1
  5442  0CC0                     l1864:	
  5443  0CC0  3002               	movlw	2
  5444  0CC1  00A3               	movwf	??_sprintf
  5445  0CC2  0823               	movf	??_sprintf,w
  5446  0CC3  07A6               	addwf	sprintf@ap,f
  5447  0CC4                     l1866:	
  5448                           
  5449                           ;C:\Program Files (x86)\Microchip\xc8\v2.10\pic\sources\c90\common\doprnt.c: 1287:    if
      +                          ((int)val < 0) {
  5450  0CC4  1FAA               	btfss	sprintf@val+1,7
  5451  0CC5  2CC7               	goto	u2081
  5452  0CC6  2CC8               	goto	u2080
  5453  0CC7                     u2081:	
  5454  0CC7  2CD1               	goto	l1872
  5455  0CC8                     u2080:	
  5456  0CC8                     l1868:	
  5457                           
  5458                           ;C:\Program Files (x86)\Microchip\xc8\v2.10\pic\sources\c90\common\doprnt.c: 1288:     f
      +                          lag |= 0x03;
  5459  0CC8  3003               	movlw	3
  5460  0CC9  00A3               	movwf	??_sprintf
  5461  0CCA  0823               	movf	??_sprintf,w
  5462  0CCB  04A7               	iorwf	sprintf@flag,f
  5463  0CCC                     l1870:	
  5464                           
  5465                           ;C:\Program Files (x86)\Microchip\xc8\v2.10\pic\sources\c90\common\doprnt.c: 1289:     v
      +                          al = -val;
  5466  0CCC  09A9               	comf	sprintf@val,f
  5467  0CCD  09AA               	comf	sprintf@val+1,f
  5468  0CCE  0AA9               	incf	sprintf@val,f
  5469  0CCF  1903               	skipnz
  5470  0CD0  0AAA               	incf	sprintf@val+1,f
  5471  0CD1                     l1872:	
  5472                           
  5473                           ;C:\Program Files (x86)\Microchip\xc8\v2.10\pic\sources\c90\common\doprnt.c: 1292:   };C
      +                          :\Program Files (x86)\Microchip\xc8\v2.10\pic\sources\c90\common\doprnt.c: 1331:    for(
      +                          c = 1 ; c != sizeof dpowers/sizeof dpowers[0] ; c++)
  5474  0CD1  01AC               	clrf	sprintf@c
  5475  0CD2  0AAC               	incf	sprintf@c,f
  5476  0CD3                     l1878:	
  5477                           
  5478                           ;C:\Program Files (x86)\Microchip\xc8\v2.10\pic\sources\c90\common\doprnt.c: 1332:     i
      +                          f(val < dpowers[c])
  5479  0CD3  082C               	movf	sprintf@c,w
  5480  0CD4  00A3               	movwf	??_sprintf
  5481  0CD5  0723               	addwf	??_sprintf,w
  5482  0CD6  3E01               	addlw	low ((_dpowers-__stringbase)| (0+32768))
  5483  0CD7  0084               	movwf	4
  5484  0CD8  120A  158A  200A  120A  158A  	fcall	stringdir
  5485  0CDD  00A4               	movwf	??_sprintf+1
  5486  0CDE  120A  158A  200A  120A  158A  	fcall	stringdir
  5487  0CE3  00A5               	movwf	??_sprintf+2
  5488  0CE4  0825               	movf	??_sprintf+2,w
  5489  0CE5  022A               	subwf	sprintf@val+1,w
  5490  0CE6  1D03               	skipz
  5491  0CE7  2CEA               	goto	u2095
  5492  0CE8  0824               	movf	??_sprintf+1,w
  5493  0CE9  0229               	subwf	sprintf@val,w
  5494  0CEA                     u2095:	
  5495  0CEA  1803               	skipnc
  5496  0CEB  2CED               	goto	u2091
  5497  0CEC  2CEE               	goto	u2090
  5498  0CED                     u2091:	
  5499  0CED  2CEF               	goto	l1882
  5500  0CEE                     u2090:	
  5501  0CEE  2CF9               	goto	l1884
  5502  0CEF                     l1882:	
  5503  0CEF  3001               	movlw	1
  5504  0CF0  00A3               	movwf	??_sprintf
  5505  0CF1  0823               	movf	??_sprintf,w
  5506  0CF2  07AC               	addwf	sprintf@c,f
  5507  0CF3  3005               	movlw	5
  5508  0CF4  062C               	xorwf	sprintf@c,w
  5509  0CF5  1D03               	btfss	3,2
  5510  0CF6  2CF8               	goto	u2101
  5511  0CF7  2CF9               	goto	u2100
  5512  0CF8                     u2101:	
  5513  0CF8  2CD3               	goto	l1878
  5514  0CF9                     u2100:	
  5515  0CF9                     l1884:	
  5516                           
  5517                           ;C:\Program Files (x86)\Microchip\xc8\v2.10\pic\sources\c90\common\doprnt.c: 1448:   {;C
      +                          :\Program Files (x86)\Microchip\xc8\v2.10\pic\sources\c90\common\doprnt.c: 1464:    if(f
      +                          lag & 0x03)
  5518  0CF9  0827               	movf	sprintf@flag,w
  5519  0CFA  3903               	andlw	3
  5520  0CFB  1903               	btfsc	3,2
  5521  0CFC  2CFE               	goto	u2111
  5522  0CFD  2CFF               	goto	u2110
  5523  0CFE                     u2111:	
  5524  0CFE  2D0A               	goto	l1890
  5525  0CFF                     u2110:	
  5526  0CFF                     l1886:	
  5527                           
  5528                           ;C:\Program Files (x86)\Microchip\xc8\v2.10\pic\sources\c90\common\doprnt.c: 1465:     (
      +                          (*sp++ = ('-')));
  5529  0CFF  302D               	movlw	45
  5530  0D00  00A3               	movwf	??_sprintf
  5531  0D01  082B               	movf	sprintf@sp,w
  5532  0D02  0084               	movwf	4
  5533  0D03  0823               	movf	??_sprintf,w
  5534  0D04  1383               	bcf	3,7	;select IRP bank0
  5535  0D05  0080               	movwf	0
  5536  0D06                     l1888:	
  5537  0D06  3001               	movlw	1
  5538  0D07  00A3               	movwf	??_sprintf
  5539  0D08  0823               	movf	??_sprintf,w
  5540  0D09  07AB               	addwf	sprintf@sp,f
  5541  0D0A                     l1890:	
  5542                           
  5543                           ;C:\Program Files (x86)\Microchip\xc8\v2.10\pic\sources\c90\common\doprnt.c: 1495:   };C
      +                          :\Program Files (x86)\Microchip\xc8\v2.10\pic\sources\c90\common\doprnt.c: 1498:   prec 
      +                          = c;
  5544  0D0A  082C               	movf	sprintf@c,w
  5545  0D0B  00A3               	movwf	??_sprintf
  5546  0D0C  0823               	movf	??_sprintf,w
  5547  0D0D  00A8               	movwf	sprintf@prec
  5548                           
  5549                           ;C:\Program Files (x86)\Microchip\xc8\v2.10\pic\sources\c90\common\doprnt.c: 1500:   whi
      +                          le(prec--) {
  5550  0D0E  2D48               	goto	l1898
  5551  0D0F                     l1892:	
  5552                           
  5553                           ;C:\Program Files (x86)\Microchip\xc8\v2.10\pic\sources\c90\common\doprnt.c: 1504:    {;
      +                          C:\Program Files (x86)\Microchip\xc8\v2.10\pic\sources\c90\common\doprnt.c: 1515:     c 
      +                          = (val / dpowers[(unsigned char)prec]) % 10 + '0';
  5554  0D0F  300A               	movlw	10
  5555  0D10  00F8               	movwf	___lwmod@divisor
  5556  0D11  3000               	movlw	0
  5557  0D12  00F9               	movwf	___lwmod@divisor+1
  5558  0D13  0828               	movf	sprintf@prec,w
  5559  0D14  00A3               	movwf	??_sprintf
  5560  0D15  0723               	addwf	??_sprintf,w
  5561  0D16  3E01               	addlw	low ((_dpowers-__stringbase)| (0+32768))
  5562  0D17  0084               	movwf	4
  5563  0D18  120A  158A  200A  120A  158A  	fcall	stringdir
  5564  0D1D  00F0               	movwf	___lwdiv@divisor
  5565  0D1E  120A  158A  200A  120A  158A  	fcall	stringdir
  5566  0D23  00F1               	movwf	___lwdiv@divisor+1
  5567  0D24  082A               	movf	sprintf@val+1,w
  5568  0D25  00F3               	movwf	___lwdiv@dividend+1
  5569  0D26  0829               	movf	sprintf@val,w
  5570  0D27  00F2               	movwf	___lwdiv@dividend
  5571  0D28  120A  158A  2252  120A  158A  	fcall	___lwdiv
  5572  0D2D  0871               	movf	?___lwdiv+1,w
  5573  0D2E  00FB               	movwf	___lwmod@dividend+1
  5574  0D2F  0870               	movf	?___lwdiv,w
  5575  0D30  00FA               	movwf	___lwmod@dividend
  5576  0D31  120A  158A  21D6  120A  158A  	fcall	___lwmod
  5577  0D36  0878               	movf	?___lwmod,w
  5578  0D37  3E30               	addlw	48
  5579  0D38  1283               	bcf	3,5	;RP0=0, select bank0
  5580  0D39  1303               	bcf	3,6	;RP1=0, select bank0
  5581  0D3A  00A4               	movwf	??_sprintf+1
  5582  0D3B  0824               	movf	??_sprintf+1,w
  5583  0D3C  00AC               	movwf	sprintf@c
  5584  0D3D                     l1894:	
  5585                           
  5586                           ;C:\Program Files (x86)\Microchip\xc8\v2.10\pic\sources\c90\common\doprnt.c: 1549:    };
      +                          C:\Program Files (x86)\Microchip\xc8\v2.10\pic\sources\c90\common\doprnt.c: 1550:    ((*
      +                          sp++ = (c)));
  5587  0D3D  082C               	movf	sprintf@c,w
  5588  0D3E  00A3               	movwf	??_sprintf
  5589  0D3F  082B               	movf	sprintf@sp,w
  5590  0D40  0084               	movwf	4
  5591  0D41  0823               	movf	??_sprintf,w
  5592  0D42  1383               	bcf	3,7	;select IRP bank0
  5593  0D43  0080               	movwf	0
  5594  0D44                     l1896:	
  5595  0D44  3001               	movlw	1
  5596  0D45  00A3               	movwf	??_sprintf
  5597  0D46  0823               	movf	??_sprintf,w
  5598  0D47  07AB               	addwf	sprintf@sp,f
  5599  0D48                     l1898:	
  5600                           
  5601                           ;C:\Program Files (x86)\Microchip\xc8\v2.10\pic\sources\c90\common\doprnt.c: 1500:   whi
      +                          le(prec--) {
  5602  0D48  30FF               	movlw	255
  5603  0D49  00A3               	movwf	??_sprintf
  5604  0D4A  0823               	movf	??_sprintf,w
  5605  0D4B  07A8               	addwf	sprintf@prec,f
  5606  0D4C  0A28               	incf	sprintf@prec,w
  5607  0D4D  1D03               	btfss	3,2
  5608  0D4E  2D50               	goto	u2121
  5609  0D4F  2D51               	goto	u2120
  5610  0D50                     u2121:	
  5611  0D50  2D0F               	goto	l1892
  5612  0D51                     u2120:	
  5613  0D51                     l1900:	
  5614                           
  5615                           ;C:\Program Files (x86)\Microchip\xc8\v2.10\pic\sources\c90\common\doprnt.c: 553:  while
      +                          ((c = *f++)) {
  5616  0D51  3001               	movlw	1
  5617  0D52  07A0               	addwf	sprintf@f,f
  5618  0D53  30FF               	movlw	-1
  5619  0D54  0720               	addwf	sprintf@f,w
  5620  0D55  0084               	movwf	4
  5621  0D56  120A  158A  200A  120A  158A  	fcall	stringdir
  5622  0D5B  00A3               	movwf	??_sprintf
  5623  0D5C  0823               	movf	??_sprintf,w
  5624  0D5D  00AC               	movwf	sprintf@c
  5625  0D5E  082C               	movf	sprintf@c,w
  5626  0D5F  1D03               	btfss	3,2
  5627  0D60  2D62               	goto	u2131
  5628  0D61  2D63               	goto	u2130
  5629  0D62                     u2131:	
  5630  0D62  2C88               	goto	l1850
  5631  0D63                     u2130:	
  5632  0D63                     l1902:	
  5633                           
  5634                           ;C:\Program Files (x86)\Microchip\xc8\v2.10\pic\sources\c90\common\doprnt.c: 1564:  *sp 
      +                          = 0;
  5635  0D63  082B               	movf	sprintf@sp,w
  5636  0D64  0084               	movwf	4
  5637  0D65  1383               	bcf	3,7	;select IRP bank0
  5638  0D66  0180               	clrf	0
  5639  0D67                     l268:	
  5640  0D67  0008               	return
  5641  0D68                     __end_of_sprintf:	
  5642                           
  5643                           	psect	text13
  5644  09D6                     __ptext13:	
  5645 ;; *************** function ___lwmod *****************
  5646 ;; Defined at:
  5647 ;;		line 5 in file "C:\Program Files (x86)\Microchip\xc8\v2.10\pic\sources\c90\common\lwmod.c"
  5648 ;; Parameters:    Size  Location     Type
  5649 ;;  divisor         2    8[COMMON] unsigned int 
  5650 ;;  dividend        2   10[COMMON] unsigned int 
  5651 ;; Auto vars:     Size  Location     Type
  5652 ;;  counter         1   13[COMMON] unsigned char 
  5653 ;; Return value:  Size  Location     Type
  5654 ;;                  2    8[COMMON] unsigned int 
  5655 ;; Registers used:
  5656 ;;		wreg, status,2, status,0
  5657 ;; Tracked objects:
  5658 ;;		On entry : 0/0
  5659 ;;		On exit  : 0/0
  5660 ;;		Unchanged: 0/0
  5661 ;; Data sizes:     COMMON   BANK0   BANK1   BANK3   BANK2
  5662 ;;      Params:         4       0       0       0       0
  5663 ;;      Locals:         1       0       0       0       0
  5664 ;;      Temps:          1       0       0       0       0
  5665 ;;      Totals:         6       0       0       0       0
  5666 ;;Total ram usage:        6 bytes
  5667 ;; Hardware stack levels used:    1
  5668 ;; This function calls:
  5669 ;;		Nothing
  5670 ;; This function is called by:
  5671 ;;		_sprintf
  5672 ;; This function uses a non-reentrant model
  5673 ;;
  5674                           
  5675                           
  5676                           ;psect for function ___lwmod
  5677  09D6                     ___lwmod:	
  5678  09D6                     l1794:	
  5679                           ;incstack = 0
  5680                           ; Regs used in ___lwmod: [wreg+status,2+status,0]
  5681                           
  5682  09D6  0878               	movf	___lwmod@divisor,w
  5683  09D7  0479               	iorwf	___lwmod@divisor+1,w
  5684  09D8  1903               	btfsc	3,2
  5685  09D9  29DB               	goto	u1951
  5686  09DA  29DC               	goto	u1950
  5687  09DB                     u1951:	
  5688  09DB  2A0B               	goto	l1812
  5689  09DC                     u1950:	
  5690  09DC                     l1796:	
  5691  09DC  01FD               	clrf	___lwmod@counter
  5692  09DD  0AFD               	incf	___lwmod@counter,f
  5693  09DE  29EA               	goto	l1802
  5694  09DF                     l1798:	
  5695  09DF  3001               	movlw	1
  5696  09E0                     u1965:	
  5697  09E0  1003               	clrc
  5698  09E1  0DF8               	rlf	___lwmod@divisor,f
  5699  09E2  0DF9               	rlf	___lwmod@divisor+1,f
  5700  09E3  3EFF               	addlw	-1
  5701  09E4  1D03               	skipz
  5702  09E5  29E0               	goto	u1965
  5703  09E6                     l1800:	
  5704  09E6  3001               	movlw	1
  5705  09E7  00FC               	movwf	??___lwmod
  5706  09E8  087C               	movf	??___lwmod,w
  5707  09E9  07FD               	addwf	___lwmod@counter,f
  5708  09EA                     l1802:	
  5709  09EA  1FF9               	btfss	___lwmod@divisor+1,7
  5710  09EB  29ED               	goto	u1971
  5711  09EC  29EE               	goto	u1970
  5712  09ED                     u1971:	
  5713  09ED  29DF               	goto	l1798
  5714  09EE                     u1970:	
  5715  09EE                     l1804:	
  5716  09EE  0879               	movf	___lwmod@divisor+1,w
  5717  09EF  027B               	subwf	___lwmod@dividend+1,w
  5718  09F0  1D03               	skipz
  5719  09F1  29F4               	goto	u1985
  5720  09F2  0878               	movf	___lwmod@divisor,w
  5721  09F3  027A               	subwf	___lwmod@dividend,w
  5722  09F4                     u1985:	
  5723  09F4  1C03               	skipc
  5724  09F5  29F7               	goto	u1981
  5725  09F6  29F8               	goto	u1980
  5726  09F7                     u1981:	
  5727  09F7  29FE               	goto	l1808
  5728  09F8                     u1980:	
  5729  09F8                     l1806:	
  5730  09F8  0878               	movf	___lwmod@divisor,w
  5731  09F9  02FA               	subwf	___lwmod@dividend,f
  5732  09FA  0879               	movf	___lwmod@divisor+1,w
  5733  09FB  1C03               	skipc
  5734  09FC  03FB               	decf	___lwmod@dividend+1,f
  5735  09FD  02FB               	subwf	___lwmod@dividend+1,f
  5736  09FE                     l1808:	
  5737  09FE  3001               	movlw	1
  5738  09FF                     u1995:	
  5739  09FF  1003               	clrc
  5740  0A00  0CF9               	rrf	___lwmod@divisor+1,f
  5741  0A01  0CF8               	rrf	___lwmod@divisor,f
  5742  0A02  3EFF               	addlw	-1
  5743  0A03  1D03               	skipz
  5744  0A04  29FF               	goto	u1995
  5745  0A05                     l1810:	
  5746  0A05  3001               	movlw	1
  5747  0A06  02FD               	subwf	___lwmod@counter,f
  5748  0A07  1D03               	btfss	3,2
  5749  0A08  2A0A               	goto	u2001
  5750  0A09  2A0B               	goto	u2000
  5751  0A0A                     u2001:	
  5752  0A0A  29EE               	goto	l1804
  5753  0A0B                     u2000:	
  5754  0A0B                     l1812:	
  5755  0A0B  087B               	movf	___lwmod@dividend+1,w
  5756  0A0C  00F9               	movwf	?___lwmod+1
  5757  0A0D  087A               	movf	___lwmod@dividend,w
  5758  0A0E  00F8               	movwf	?___lwmod
  5759  0A0F                     l554:	
  5760  0A0F  0008               	return
  5761  0A10                     __end_of___lwmod:	
  5762                           
  5763                           	psect	text14
  5764  0A52                     __ptext14:	
  5765 ;; *************** function ___lwdiv *****************
  5766 ;; Defined at:
  5767 ;;		line 5 in file "C:\Program Files (x86)\Microchip\xc8\v2.10\pic\sources\c90\common\lwdiv.c"
  5768 ;; Parameters:    Size  Location     Type
  5769 ;;  divisor         2    0[COMMON] unsigned int 
  5770 ;;  dividend        2    2[COMMON] unsigned int 
  5771 ;; Auto vars:     Size  Location     Type
  5772 ;;  quotient        2    5[COMMON] unsigned int 
  5773 ;;  counter         1    7[COMMON] unsigned char 
  5774 ;; Return value:  Size  Location     Type
  5775 ;;                  2    0[COMMON] unsigned int 
  5776 ;; Registers used:
  5777 ;;		wreg, status,2, status,0
  5778 ;; Tracked objects:
  5779 ;;		On entry : 0/0
  5780 ;;		On exit  : 0/0
  5781 ;;		Unchanged: 0/0
  5782 ;; Data sizes:     COMMON   BANK0   BANK1   BANK3   BANK2
  5783 ;;      Params:         4       0       0       0       0
  5784 ;;      Locals:         3       0       0       0       0
  5785 ;;      Temps:          1       0       0       0       0
  5786 ;;      Totals:         8       0       0       0       0
  5787 ;;Total ram usage:        8 bytes
  5788 ;; Hardware stack levels used:    1
  5789 ;; This function calls:
  5790 ;;		Nothing
  5791 ;; This function is called by:
  5792 ;;		_sprintf
  5793 ;; This function uses a non-reentrant model
  5794 ;;
  5795                           
  5796                           
  5797                           ;psect for function ___lwdiv
  5798  0A52                     ___lwdiv:	
  5799  0A52                     l1768:	
  5800                           ;incstack = 0
  5801                           ; Regs used in ___lwdiv: [wreg+status,2+status,0]
  5802                           
  5803  0A52  01F5               	clrf	___lwdiv@quotient
  5804  0A53  01F6               	clrf	___lwdiv@quotient+1
  5805  0A54                     l1770:	
  5806  0A54  0870               	movf	___lwdiv@divisor,w
  5807  0A55  0471               	iorwf	___lwdiv@divisor+1,w
  5808  0A56  1903               	btfsc	3,2
  5809  0A57  2A59               	goto	u1881
  5810  0A58  2A5A               	goto	u1880
  5811  0A59                     u1881:	
  5812  0A59  2A91               	goto	l1790
  5813  0A5A                     u1880:	
  5814  0A5A                     l1772:	
  5815  0A5A  01F7               	clrf	___lwdiv@counter
  5816  0A5B  0AF7               	incf	___lwdiv@counter,f
  5817  0A5C  2A68               	goto	l1778
  5818  0A5D                     l1774:	
  5819  0A5D  3001               	movlw	1
  5820  0A5E                     u1895:	
  5821  0A5E  1003               	clrc
  5822  0A5F  0DF0               	rlf	___lwdiv@divisor,f
  5823  0A60  0DF1               	rlf	___lwdiv@divisor+1,f
  5824  0A61  3EFF               	addlw	-1
  5825  0A62  1D03               	skipz
  5826  0A63  2A5E               	goto	u1895
  5827  0A64                     l1776:	
  5828  0A64  3001               	movlw	1
  5829  0A65  00F4               	movwf	??___lwdiv
  5830  0A66  0874               	movf	??___lwdiv,w
  5831  0A67  07F7               	addwf	___lwdiv@counter,f
  5832  0A68                     l1778:	
  5833  0A68  1FF1               	btfss	___lwdiv@divisor+1,7
  5834  0A69  2A6B               	goto	u1901
  5835  0A6A  2A6C               	goto	u1900
  5836  0A6B                     u1901:	
  5837  0A6B  2A5D               	goto	l1774
  5838  0A6C                     u1900:	
  5839  0A6C                     l1780:	
  5840  0A6C  3001               	movlw	1
  5841  0A6D                     u1915:	
  5842  0A6D  1003               	clrc
  5843  0A6E  0DF5               	rlf	___lwdiv@quotient,f
  5844  0A6F  0DF6               	rlf	___lwdiv@quotient+1,f
  5845  0A70  3EFF               	addlw	-1
  5846  0A71  1D03               	skipz
  5847  0A72  2A6D               	goto	u1915
  5848  0A73  0871               	movf	___lwdiv@divisor+1,w
  5849  0A74  0273               	subwf	___lwdiv@dividend+1,w
  5850  0A75  1D03               	skipz
  5851  0A76  2A79               	goto	u1925
  5852  0A77  0870               	movf	___lwdiv@divisor,w
  5853  0A78  0272               	subwf	___lwdiv@dividend,w
  5854  0A79                     u1925:	
  5855  0A79  1C03               	skipc
  5856  0A7A  2A7C               	goto	u1921
  5857  0A7B  2A7D               	goto	u1920
  5858  0A7C                     u1921:	
  5859  0A7C  2A84               	goto	l1786
  5860  0A7D                     u1920:	
  5861  0A7D                     l1782:	
  5862  0A7D  0870               	movf	___lwdiv@divisor,w
  5863  0A7E  02F2               	subwf	___lwdiv@dividend,f
  5864  0A7F  0871               	movf	___lwdiv@divisor+1,w
  5865  0A80  1C03               	skipc
  5866  0A81  03F3               	decf	___lwdiv@dividend+1,f
  5867  0A82  02F3               	subwf	___lwdiv@dividend+1,f
  5868  0A83                     l1784:	
  5869  0A83  1475               	bsf	___lwdiv@quotient,0
  5870  0A84                     l1786:	
  5871  0A84  3001               	movlw	1
  5872  0A85                     u1935:	
  5873  0A85  1003               	clrc
  5874  0A86  0CF1               	rrf	___lwdiv@divisor+1,f
  5875  0A87  0CF0               	rrf	___lwdiv@divisor,f
  5876  0A88  3EFF               	addlw	-1
  5877  0A89  1D03               	skipz
  5878  0A8A  2A85               	goto	u1935
  5879  0A8B                     l1788:	
  5880  0A8B  3001               	movlw	1
  5881  0A8C  02F7               	subwf	___lwdiv@counter,f
  5882  0A8D  1D03               	btfss	3,2
  5883  0A8E  2A90               	goto	u1941
  5884  0A8F  2A91               	goto	u1940
  5885  0A90                     u1941:	
  5886  0A90  2A6C               	goto	l1780
  5887  0A91                     u1940:	
  5888  0A91                     l1790:	
  5889  0A91  0876               	movf	___lwdiv@quotient+1,w
  5890  0A92  00F1               	movwf	?___lwdiv+1
  5891  0A93  0875               	movf	___lwdiv@quotient,w
  5892  0A94  00F0               	movwf	?___lwdiv
  5893  0A95                     l544:	
  5894  0A95  0008               	return
  5895  0A96                     __end_of___lwdiv:	
  5896                           
  5897                           	psect	text15
  5898  0A10                     __ptext15:	
  5899 ;; *************** function _Lcd_Write_String *****************
  5900 ;; Defined at:
  5901 ;;		line 65 in file "LCD8bits.c"
  5902 ;; Parameters:    Size  Location     Type
  5903 ;;  a               2    2[COMMON] PTR unsigned char 
  5904 ;;		 -> Lcd_Write_Number@str(4), STR_5(2), STR_3(5), STR_2(5), 
  5905 ;;		 -> STR_1(4), 
  5906 ;; Auto vars:     Size  Location     Type
  5907 ;;  i               2    7[COMMON] int 
  5908 ;; Return value:  Size  Location     Type
  5909 ;;                  1    wreg      void 
  5910 ;; Registers used:
  5911 ;;		wreg, fsr0l, fsr0h, status,2, status,0, btemp+1, pclath, cstack
  5912 ;; Tracked objects:
  5913 ;;		On entry : 0/0
  5914 ;;		On exit  : 0/0
  5915 ;;		Unchanged: 0/0
  5916 ;; Data sizes:     COMMON   BANK0   BANK1   BANK3   BANK2
  5917 ;;      Params:         2       0       0       0       0
  5918 ;;      Locals:         2       0       0       0       0
  5919 ;;      Temps:          3       0       0       0       0
  5920 ;;      Totals:         7       0       0       0       0
  5921 ;;Total ram usage:        7 bytes
  5922 ;; Hardware stack levels used:    1
  5923 ;; Hardware stack levels required when called:    1
  5924 ;; This function calls:
  5925 ;;		_Lcd_Write_Char
  5926 ;; This function is called by:
  5927 ;;		_main
  5928 ;;		_Lcd_Write_Number
  5929 ;; This function uses a non-reentrant model
  5930 ;;
  5931                           
  5932                           
  5933                           ;psect for function _Lcd_Write_String
  5934  0A10                     _Lcd_Write_String:	
  5935  0A10                     l1816:	
  5936                           ;incstack = 0
  5937                           ; Regs used in _Lcd_Write_String: [wreg-fsr0h+status,2+status,0+btemp+1+pclath+cstack]
  5938                           
  5939                           
  5940                           ;LCD8bits.c: 65: void Lcd_Write_String(char *a);LCD8bits.c: 66: {;LCD8bits.c: 67:  int i
      +                          ;;LCD8bits.c: 68:  for(i=0;a[i]!='\0';i++)
  5941  0A10  01F7               	clrf	Lcd_Write_String@i
  5942  0A11  01F8               	clrf	Lcd_Write_String@i+1
  5943  0A12  2A35               	goto	l1822
  5944  0A13                     l1818:	
  5945                           
  5946                           ;LCD8bits.c: 69:     Lcd_Write_Char(a[i]);
  5947  0A13  0877               	movf	Lcd_Write_String@i,w
  5948  0A14  0772               	addwf	Lcd_Write_String@a,w
  5949  0A15  00F5               	movwf	??_Lcd_Write_String+1
  5950  0A16  0873               	movf	Lcd_Write_String@a+1,w
  5951  0A17  00F4               	movwf	??_Lcd_Write_String
  5952  0A18  1803               	skipnc
  5953  0A19  0AF4               	incf	??_Lcd_Write_String,f
  5954  0A1A  1FF7               	btfss	Lcd_Write_String@i,7
  5955  0A1B  2A1D               	goto	u2010
  5956  0A1C  03F4               	decf	??_Lcd_Write_String,f
  5957  0A1D                     u2010:	
  5958  0A1D  0874               	movf	??_Lcd_Write_String,w
  5959  0A1E  00F6               	movwf	??_Lcd_Write_String+2
  5960  0A1F  0876               	movf	??_Lcd_Write_String+2,w
  5961  0A20  1283               	bcf	3,5	;RP0=0, select bank0
  5962  0A21  1303               	bcf	3,6	;RP1=0, select bank0
  5963  0A22  00FF               	movwf	btemp+1
  5964  0A23  0875               	movf	??_Lcd_Write_String+1,w
  5965  0A24  0084               	movwf	4
  5966  0A25  120A  158A  2000  120A  158A  	fcall	stringtab
  5967  0A2A  120A  158A  205C  120A  158A  	fcall	_Lcd_Write_Char
  5968  0A2F                     l1820:	
  5969  0A2F  3001               	movlw	1
  5970  0A30  07F7               	addwf	Lcd_Write_String@i,f
  5971  0A31  1803               	skipnc
  5972  0A32  0AF8               	incf	Lcd_Write_String@i+1,f
  5973  0A33  3000               	movlw	0
  5974  0A34  07F8               	addwf	Lcd_Write_String@i+1,f
  5975  0A35                     l1822:	
  5976  0A35  0877               	movf	Lcd_Write_String@i,w
  5977  0A36  0772               	addwf	Lcd_Write_String@a,w
  5978  0A37  00F5               	movwf	??_Lcd_Write_String+1
  5979  0A38  0873               	movf	Lcd_Write_String@a+1,w
  5980  0A39  00F4               	movwf	??_Lcd_Write_String
  5981  0A3A  1803               	skipnc
  5982  0A3B  0AF4               	incf	??_Lcd_Write_String,f
  5983  0A3C  1FF7               	btfss	Lcd_Write_String@i,7
  5984  0A3D  2A3F               	goto	u2020
  5985  0A3E  03F4               	decf	??_Lcd_Write_String,f
  5986  0A3F                     u2020:	
  5987  0A3F  0874               	movf	??_Lcd_Write_String,w
  5988  0A40  00F6               	movwf	??_Lcd_Write_String+2
  5989  0A41  0876               	movf	??_Lcd_Write_String+2,w
  5990  0A42  1283               	bcf	3,5	;RP0=0, select bank0
  5991  0A43  1303               	bcf	3,6	;RP1=0, select bank0
  5992  0A44  00FF               	movwf	btemp+1
  5993  0A45  0875               	movf	??_Lcd_Write_String+1,w
  5994  0A46  0084               	movwf	4
  5995  0A47  120A  158A  2000  120A  158A  	fcall	stringtab
  5996  0A4C  3A00               	xorlw	0
  5997  0A4D  1D03               	skipz
  5998  0A4E  2A50               	goto	u2031
  5999  0A4F  2A51               	goto	u2030
  6000  0A50                     u2031:	
  6001  0A50  2A13               	goto	l1818
  6002  0A51                     u2030:	
  6003  0A51                     l155:	
  6004  0A51  0008               	return
  6005  0A52                     __end_of_Lcd_Write_String:	
  6006                           
  6007                           	psect	text16
  6008  085C                     __ptext16:	
  6009 ;; *************** function _Lcd_Write_Char *****************
  6010 ;; Defined at:
  6011 ;;		line 56 in file "LCD8bits.c"
  6012 ;; Parameters:    Size  Location     Type
  6013 ;;  a               1    wreg     unsigned char 
  6014 ;; Auto vars:     Size  Location     Type
  6015 ;;  a               1    1[COMMON] unsigned char 
  6016 ;; Return value:  Size  Location     Type
  6017 ;;                  1    wreg      void 
  6018 ;; Registers used:
  6019 ;;		wreg
  6020 ;; Tracked objects:
  6021 ;;		On entry : 0/0
  6022 ;;		On exit  : 0/0
  6023 ;;		Unchanged: 0/0
  6024 ;; Data sizes:     COMMON   BANK0   BANK1   BANK3   BANK2
  6025 ;;      Params:         0       0       0       0       0
  6026 ;;      Locals:         1       0       0       0       0
  6027 ;;      Temps:          1       0       0       0       0
  6028 ;;      Totals:         2       0       0       0       0
  6029 ;;Total ram usage:        2 bytes
  6030 ;; Hardware stack levels used:    1
  6031 ;; This function calls:
  6032 ;;		Nothing
  6033 ;; This function is called by:
  6034 ;;		_main
  6035 ;;		_Lcd_Write_String
  6036 ;; This function uses a non-reentrant model
  6037 ;;
  6038                           
  6039                           
  6040                           ;psect for function _Lcd_Write_Char
  6041  085C                     _Lcd_Write_Char:	
  6042                           
  6043                           ;incstack = 0
  6044                           ; Regs used in _Lcd_Write_Char: [wreg]
  6045                           ;Lcd_Write_Char@a stored from wreg
  6046  085C  00F1               	movwf	Lcd_Write_Char@a
  6047  085D                     l1736:	
  6048                           
  6049                           ;LCD8bits.c: 56: void Lcd_Write_Char(char a);LCD8bits.c: 57: {;LCD8bits.c: 58:    PORTBb
      +                          its.RB6 = 1;
  6050  085D  1283               	bcf	3,5	;RP0=0, select bank0
  6051  085E  1303               	bcf	3,6	;RP1=0, select bank0
  6052  085F  1706               	bsf	6,6	;volatile
  6053  0860                     l1738:	
  6054                           
  6055                           ;LCD8bits.c: 59:    PORTD = a;
  6056  0860  0871               	movf	Lcd_Write_Char@a,w
  6057  0861  0088               	movwf	8	;volatile
  6058  0862                     l1740:	
  6059                           
  6060                           ;LCD8bits.c: 60:    PORTBbits.RB7 = 1;
  6061  0862  1786               	bsf	6,7	;volatile
  6062                           
  6063                           ;LCD8bits.c: 61:    _delay((unsigned long)((40)*(4000000/4000000.0)));
  6064  0863  300D               	movlw	13
  6065  0864  00F0               	movwf	??_Lcd_Write_Char
  6066  0865                     u3637:	
  6067  0865  0BF0               	decfsz	??_Lcd_Write_Char,f
  6068  0866  2865               	goto	u3637
  6069  0867                     l1742:	
  6070                           
  6071                           ;LCD8bits.c: 62:    PORTBbits.RB7 = 0;
  6072  0867  1283               	bcf	3,5	;RP0=0, select bank0
  6073  0868  1303               	bcf	3,6	;RP1=0, select bank0
  6074  0869  1386               	bcf	6,7	;volatile
  6075  086A                     l149:	
  6076  086A  0008               	return
  6077  086B                     __end_of_Lcd_Write_Char:	
  6078                           
  6079                           	psect	text17
  6080  08B7                     __ptext17:	
  6081 ;; *************** function _Lcd_Set_Cursor *****************
  6082 ;; Defined at:
  6083 ;;		line 24 in file "LCD8bits.c"
  6084 ;; Parameters:    Size  Location     Type
  6085 ;;  x               1    wreg     unsigned char 
  6086 ;;  y               1    3[COMMON] unsigned char 
  6087 ;; Auto vars:     Size  Location     Type
  6088 ;;  x               1    5[COMMON] unsigned char 
  6089 ;;  temp            1    6[COMMON] unsigned char 
  6090 ;; Return value:  Size  Location     Type
  6091 ;;                  1    wreg      void 
  6092 ;; Registers used:
  6093 ;;		wreg, status,2, status,0, pclath, cstack
  6094 ;; Tracked objects:
  6095 ;;		On entry : 0/0
  6096 ;;		On exit  : 0/0
  6097 ;;		Unchanged: 0/0
  6098 ;; Data sizes:     COMMON   BANK0   BANK1   BANK3   BANK2
  6099 ;;      Params:         1       0       0       0       0
  6100 ;;      Locals:         2       0       0       0       0
  6101 ;;      Temps:          1       0       0       0       0
  6102 ;;      Totals:         4       0       0       0       0
  6103 ;;Total ram usage:        4 bytes
  6104 ;; Hardware stack levels used:    1
  6105 ;; Hardware stack levels required when called:    1
  6106 ;; This function calls:
  6107 ;;		_Lcd_Cmd
  6108 ;; This function is called by:
  6109 ;;		_main
  6110 ;; This function uses a non-reentrant model
  6111 ;;
  6112                           
  6113                           
  6114                           ;psect for function _Lcd_Set_Cursor
  6115  08B7                     _Lcd_Set_Cursor:	
  6116                           
  6117                           ;incstack = 0
  6118                           ; Regs used in _Lcd_Set_Cursor: [wreg+status,2+status,0+pclath+cstack]
  6119                           ;Lcd_Set_Cursor@x stored from wreg
  6120  08B7  00F5               	movwf	Lcd_Set_Cursor@x
  6121  08B8                     l2160:	
  6122                           
  6123                           ;LCD8bits.c: 24: void Lcd_Set_Cursor(uint8_t x, uint8_t y);LCD8bits.c: 25: {;LCD8bits.c:
      +                           26:  char temp;;LCD8bits.c: 27:  if(x == 1)
  6124  08B8  0375               	decf	Lcd_Set_Cursor@x,w
  6125  08B9  1D03               	btfss	3,2
  6126  08BA  28BC               	goto	u2671
  6127  08BB  28BD               	goto	u2670
  6128  08BC                     u2671:	
  6129  08BC  28C9               	goto	l2166
  6130  08BD                     u2670:	
  6131  08BD                     l2162:	
  6132                           
  6133                           ;LCD8bits.c: 28:  {;LCD8bits.c: 29:    temp = 0x80 + y - 1;
  6134  08BD  0873               	movf	Lcd_Set_Cursor@y,w
  6135  08BE  3E7F               	addlw	127
  6136  08BF  00F4               	movwf	??_Lcd_Set_Cursor
  6137  08C0  0874               	movf	??_Lcd_Set_Cursor,w
  6138  08C1  00F6               	movwf	Lcd_Set_Cursor@temp
  6139  08C2                     l2164:	
  6140                           
  6141                           ;LCD8bits.c: 30:       Lcd_Cmd(temp);
  6142  08C2  0876               	movf	Lcd_Set_Cursor@temp,w
  6143  08C3  120A  158A  206B  120A  158A  	fcall	_Lcd_Cmd
  6144                           
  6145                           ;LCD8bits.c: 31:  }
  6146  08C8  28DA               	goto	l143
  6147  08C9                     l2166:	
  6148  08C9  3002               	movlw	2
  6149  08CA  0675               	xorwf	Lcd_Set_Cursor@x,w
  6150  08CB  1D03               	btfss	3,2
  6151  08CC  28CE               	goto	u2681
  6152  08CD  28CF               	goto	u2680
  6153  08CE                     u2681:	
  6154  08CE  28DA               	goto	l143
  6155  08CF                     u2680:	
  6156  08CF                     l2168:	
  6157                           
  6158                           ;LCD8bits.c: 33:  {;LCD8bits.c: 34:   temp = 0xC0 + y - 1;
  6159  08CF  0873               	movf	Lcd_Set_Cursor@y,w
  6160  08D0  3EBF               	addlw	191
  6161  08D1  00F4               	movwf	??_Lcd_Set_Cursor
  6162  08D2  0874               	movf	??_Lcd_Set_Cursor,w
  6163  08D3  00F6               	movwf	Lcd_Set_Cursor@temp
  6164  08D4                     l2170:	
  6165                           
  6166                           ;LCD8bits.c: 35:   Lcd_Cmd(temp);
  6167  08D4  0876               	movf	Lcd_Set_Cursor@temp,w
  6168  08D5  120A  158A  206B  120A  158A  	fcall	_Lcd_Cmd
  6169  08DA                     l143:	
  6170  08DA  0008               	return
  6171  08DB                     __end_of_Lcd_Set_Cursor:	
  6172                           
  6173                           	psect	text18
  6174  0A96                     __ptext18:	
  6175 ;; *************** function _Lcd_Init *****************
  6176 ;; Defined at:
  6177 ;;		line 39 in file "LCD8bits.c"
  6178 ;; Parameters:    Size  Location     Type
  6179 ;;		None
  6180 ;; Auto vars:     Size  Location     Type
  6181 ;;		None
  6182 ;; Return value:  Size  Location     Type
  6183 ;;                  1    wreg      void 
  6184 ;; Registers used:
  6185 ;;		wreg, status,2, status,0, pclath, cstack
  6186 ;; Tracked objects:
  6187 ;;		On entry : 0/0
  6188 ;;		On exit  : 0/0
  6189 ;;		Unchanged: 0/0
  6190 ;; Data sizes:     COMMON   BANK0   BANK1   BANK3   BANK2
  6191 ;;      Params:         0       0       0       0       0
  6192 ;;      Locals:         0       0       0       0       0
  6193 ;;      Temps:          2       0       0       0       0
  6194 ;;      Totals:         2       0       0       0       0
  6195 ;;Total ram usage:        2 bytes
  6196 ;; Hardware stack levels used:    1
  6197 ;; Hardware stack levels required when called:    1
  6198 ;; This function calls:
  6199 ;;		_Lcd_Cmd
  6200 ;; This function is called by:
  6201 ;;		_main
  6202 ;; This function uses a non-reentrant model
  6203 ;;
  6204                           
  6205                           
  6206                           ;psect for function _Lcd_Init
  6207  0A96                     _Lcd_Init:	
  6208  0A96                     l2140:	
  6209                           ;incstack = 0
  6210                           ; Regs used in _Lcd_Init: [wreg+status,2+status,0+pclath+cstack]
  6211                           
  6212                           
  6213                           ;LCD8bits.c: 41:   _delay((unsigned long)((15)*(4000000/4000.0)));
  6214  0A96  3014               	movlw	20
  6215  0A97  00F4               	movwf	??_Lcd_Init+1
  6216  0A98  3079               	movlw	121
  6217  0A99  00F3               	movwf	??_Lcd_Init
  6218  0A9A                     u3647:	
  6219  0A9A  0BF3               	decfsz	??_Lcd_Init,f
  6220  0A9B  2A9A               	goto	u3647
  6221  0A9C  0BF4               	decfsz	??_Lcd_Init+1,f
  6222  0A9D  2A9A               	goto	u3647
  6223  0A9E  2A9F               	nop2
  6224  0A9F                     l2142:	
  6225                           
  6226                           ;LCD8bits.c: 42:   Lcd_Cmd(0x030);
  6227  0A9F  3030               	movlw	48
  6228  0AA0  120A  158A  206B  120A  158A  	fcall	_Lcd_Cmd
  6229  0AA5                     l2144:	
  6230                           
  6231                           ;LCD8bits.c: 43:  _delay((unsigned long)((5)*(4000000/4000.0)));
  6232  0AA5  3007               	movlw	7
  6233  0AA6  00F4               	movwf	??_Lcd_Init+1
  6234  0AA7  307D               	movlw	125
  6235  0AA8  00F3               	movwf	??_Lcd_Init
  6236  0AA9                     u3657:	
  6237  0AA9  0BF3               	decfsz	??_Lcd_Init,f
  6238  0AAA  2AA9               	goto	u3657
  6239  0AAB  0BF4               	decfsz	??_Lcd_Init+1,f
  6240  0AAC  2AA9               	goto	u3657
  6241                           
  6242                           ;LCD8bits.c: 44:   Lcd_Cmd(0x030);
  6243  0AAD  3030               	movlw	48
  6244  0AAE  120A  158A  206B  120A  158A  	fcall	_Lcd_Cmd
  6245  0AB3                     l2146:	
  6246                           
  6247                           ;LCD8bits.c: 45:  _delay((unsigned long)((11)*(4000000/4000.0)));
  6248  0AB3  300F               	movlw	15
  6249  0AB4  00F4               	movwf	??_Lcd_Init+1
  6250  0AB5  3047               	movlw	71
  6251  0AB6  00F3               	movwf	??_Lcd_Init
  6252  0AB7                     u3667:	
  6253  0AB7  0BF3               	decfsz	??_Lcd_Init,f
  6254  0AB8  2AB7               	goto	u3667
  6255  0AB9  0BF4               	decfsz	??_Lcd_Init+1,f
  6256  0ABA  2AB7               	goto	u3667
  6257  0ABB  2ABC               	nop2
  6258  0ABC                     l2148:	
  6259                           
  6260                           ;LCD8bits.c: 46:   Lcd_Cmd(0x030);
  6261  0ABC  3030               	movlw	48
  6262  0ABD  120A  158A  206B  120A  158A  	fcall	_Lcd_Cmd
  6263                           
  6264                           ;LCD8bits.c: 47:   _delay((unsigned long)((160)*(4000000/4000.0)));
  6265  0AC2  30D0               	movlw	208
  6266  0AC3  00F4               	movwf	??_Lcd_Init+1
  6267  0AC4  30C9               	movlw	201
  6268  0AC5  00F3               	movwf	??_Lcd_Init
  6269  0AC6                     u3677:	
  6270  0AC6  0BF3               	decfsz	??_Lcd_Init,f
  6271  0AC7  2AC6               	goto	u3677
  6272  0AC8  0BF4               	decfsz	??_Lcd_Init+1,f
  6273  0AC9  2AC6               	goto	u3677
  6274  0ACA  2ACB               	nop2
  6275  0ACB                     l2150:	
  6276                           
  6277                           ;LCD8bits.c: 49:   Lcd_Cmd(0x38);
  6278  0ACB  3038               	movlw	56
  6279  0ACC  120A  158A  206B  120A  158A  	fcall	_Lcd_Cmd
  6280  0AD1                     l2152:	
  6281                           
  6282                           ;LCD8bits.c: 51:   Lcd_Cmd(0x01);
  6283  0AD1  3001               	movlw	1
  6284  0AD2  120A  158A  206B  120A  158A  	fcall	_Lcd_Cmd
  6285  0AD7                     l2154:	
  6286                           
  6287                           ;LCD8bits.c: 52:   Lcd_Cmd(0x06);
  6288  0AD7  3006               	movlw	6
  6289  0AD8  120A  158A  206B  120A  158A  	fcall	_Lcd_Cmd
  6290  0ADD                     l2156:	
  6291                           
  6292                           ;LCD8bits.c: 53:   Lcd_Cmd(0x0C);
  6293  0ADD  300C               	movlw	12
  6294  0ADE  120A  158A  206B  120A  158A  	fcall	_Lcd_Cmd
  6295  0AE3                     l146:	
  6296  0AE3  0008               	return
  6297  0AE4                     __end_of_Lcd_Init:	
  6298                           
  6299                           	psect	text19
  6300  084F                     __ptext19:	
  6301 ;; *************** function _Lcd_Clear *****************
  6302 ;; Defined at:
  6303 ;;		line 18 in file "LCD8bits.c"
  6304 ;; Parameters:    Size  Location     Type
  6305 ;;		None
  6306 ;; Auto vars:     Size  Location     Type
  6307 ;;		None
  6308 ;; Return value:  Size  Location     Type
  6309 ;;                  1    wreg      void 
  6310 ;; Registers used:
  6311 ;;		wreg, status,2, status,0, pclath, cstack
  6312 ;; Tracked objects:
  6313 ;;		On entry : 0/0
  6314 ;;		On exit  : 0/0
  6315 ;;		Unchanged: 0/0
  6316 ;; Data sizes:     COMMON   BANK0   BANK1   BANK3   BANK2
  6317 ;;      Params:         0       0       0       0       0
  6318 ;;      Locals:         0       0       0       0       0
  6319 ;;      Temps:          0       0       0       0       0
  6320 ;;      Totals:         0       0       0       0       0
  6321 ;;Total ram usage:        0 bytes
  6322 ;; Hardware stack levels used:    1
  6323 ;; Hardware stack levels required when called:    1
  6324 ;; This function calls:
  6325 ;;		_Lcd_Cmd
  6326 ;; This function is called by:
  6327 ;;		_main
  6328 ;; This function uses a non-reentrant model
  6329 ;;
  6330                           
  6331                           
  6332                           ;psect for function _Lcd_Clear
  6333  084F                     _Lcd_Clear:	
  6334  084F                     l2158:	
  6335                           ;incstack = 0
  6336                           ; Regs used in _Lcd_Clear: [wreg+status,2+status,0+pclath+cstack]
  6337                           
  6338                           
  6339                           ;LCD8bits.c: 20:  Lcd_Cmd(0);
  6340  084F  3000               	movlw	0
  6341  0850  120A  158A  206B  120A  158A  	fcall	_Lcd_Cmd
  6342                           
  6343                           ;LCD8bits.c: 21:  Lcd_Cmd(1);
  6344  0855  3001               	movlw	1
  6345  0856  120A  158A  206B  120A  158A  	fcall	_Lcd_Cmd
  6346  085B                     l137:	
  6347  085B  0008               	return
  6348  085C                     __end_of_Lcd_Clear:	
  6349                           
  6350                           	psect	text20
  6351  086B                     __ptext20:	
  6352 ;; *************** function _Lcd_Cmd *****************
  6353 ;; Defined at:
  6354 ;;		line 9 in file "LCD8bits.c"
  6355 ;; Parameters:    Size  Location     Type
  6356 ;;  z               1    wreg     unsigned char 
  6357 ;; Auto vars:     Size  Location     Type
  6358 ;;  z               1    2[COMMON] unsigned char 
  6359 ;; Return value:  Size  Location     Type
  6360 ;;                  1    wreg      void 
  6361 ;; Registers used:
  6362 ;;		wreg
  6363 ;; Tracked objects:
  6364 ;;		On entry : 0/0
  6365 ;;		On exit  : 0/0
  6366 ;;		Unchanged: 0/0
  6367 ;; Data sizes:     COMMON   BANK0   BANK1   BANK3   BANK2
  6368 ;;      Params:         0       0       0       0       0
  6369 ;;      Locals:         1       0       0       0       0
  6370 ;;      Temps:          2       0       0       0       0
  6371 ;;      Totals:         3       0       0       0       0
  6372 ;;Total ram usage:        3 bytes
  6373 ;; Hardware stack levels used:    1
  6374 ;; This function calls:
  6375 ;;		Nothing
  6376 ;; This function is called by:
  6377 ;;		_Lcd_Clear
  6378 ;;		_Lcd_Set_Cursor
  6379 ;;		_Lcd_Init
  6380 ;; This function uses a non-reentrant model
  6381 ;;
  6382                           
  6383                           
  6384                           ;psect for function _Lcd_Cmd
  6385  086B                     _Lcd_Cmd:	
  6386                           
  6387                           ;incstack = 0
  6388                           ; Regs used in _Lcd_Cmd: [wreg]
  6389                           ;Lcd_Cmd@z stored from wreg
  6390  086B  00F2               	movwf	Lcd_Cmd@z
  6391  086C                     l1840:	
  6392                           
  6393                           ;LCD8bits.c: 9: void Lcd_Cmd(uint8_t z);LCD8bits.c: 10: {;LCD8bits.c: 11:  PORTBbits.RB6
      +                           = 0;
  6394  086C  1283               	bcf	3,5	;RP0=0, select bank0
  6395  086D  1303               	bcf	3,6	;RP1=0, select bank0
  6396  086E  1306               	bcf	6,6	;volatile
  6397  086F                     l1842:	
  6398                           
  6399                           ;LCD8bits.c: 12:  PORTD = z;
  6400  086F  0872               	movf	Lcd_Cmd@z,w
  6401  0870  0088               	movwf	8	;volatile
  6402  0871                     l1844:	
  6403                           
  6404                           ;LCD8bits.c: 13:  PORTBbits.RB7 = 1;
  6405  0871  1786               	bsf	6,7	;volatile
  6406                           
  6407                           ;LCD8bits.c: 14:     _delay((unsigned long)((4)*(4000000/4000.0)));
  6408  0872  3006               	movlw	6
  6409  0873  00F1               	movwf	??_Lcd_Cmd+1
  6410  0874  3030               	movlw	48
  6411  0875  00F0               	movwf	??_Lcd_Cmd
  6412  0876                     u3687:	
  6413  0876  0BF0               	decfsz	??_Lcd_Cmd,f
  6414  0877  2876               	goto	u3687
  6415  0878  0BF1               	decfsz	??_Lcd_Cmd+1,f
  6416  0879  2876               	goto	u3687
  6417  087A  0000               	nop
  6418  087B                     l1846:	
  6419                           
  6420                           ;LCD8bits.c: 15:     PORTBbits.RB7 = 0;
  6421  087B  1283               	bcf	3,5	;RP0=0, select bank0
  6422  087C  1303               	bcf	3,6	;RP1=0, select bank0
  6423  087D  1386               	bcf	6,7	;volatile
  6424  087E                     l134:	
  6425  087E  0008               	return
  6426  087F                     __end_of_Lcd_Cmd:	
  6427                           
  6428                           	psect	text21
  6429  0838                     __ptext21:	
  6430 ;; *************** function _I2C_Master_Write *****************
  6431 ;; Defined at:
  6432 ;;		line 66 in file "I2C.c"
  6433 ;; Parameters:    Size  Location     Type
  6434 ;;  d               2    0[COMMON] unsigned int 
  6435 ;; Auto vars:     Size  Location     Type
  6436 ;;		None
  6437 ;; Return value:  Size  Location     Type
  6438 ;;                  1    wreg      void 
  6439 ;; Registers used:
  6440 ;;		wreg, status,2, status,0, pclath, cstack
  6441 ;; Tracked objects:
  6442 ;;		On entry : 0/0
  6443 ;;		On exit  : 0/0
  6444 ;;		Unchanged: 0/0
  6445 ;; Data sizes:     COMMON   BANK0   BANK1   BANK3   BANK2
  6446 ;;      Params:         2       0       0       0       0
  6447 ;;      Locals:         0       0       0       0       0
  6448 ;;      Temps:          0       0       0       0       0
  6449 ;;      Totals:         2       0       0       0       0
  6450 ;;Total ram usage:        2 bytes
  6451 ;; Hardware stack levels used:    1
  6452 ;; Hardware stack levels required when called:    1
  6453 ;; This function calls:
  6454 ;;		_I2C_Master_Wait
  6455 ;; This function is called by:
  6456 ;;		_main
  6457 ;; This function uses a non-reentrant model
  6458 ;;
  6459                           
  6460                           
  6461                           ;psect for function _I2C_Master_Write
  6462  0838                     _I2C_Master_Write:	
  6463  0838                     l2176:	
  6464                           ;incstack = 0
  6465                           ; Regs used in _I2C_Master_Write: [wreg+status,2+status,0+pclath+cstack]
  6466                           
  6467                           
  6468                           ;I2C.c: 66: void I2C_Master_Write(unsigned d);I2C.c: 67: {;I2C.c: 68:     I2C_Master_Wai
      +                          t();
  6469  0838  120A  158A  2042  120A  158A  	fcall	_I2C_Master_Wait
  6470  083D                     l2178:	
  6471                           
  6472                           ;I2C.c: 69:     SSPBUF = d;
  6473  083D  0870               	movf	I2C_Master_Write@d,w
  6474  083E  1283               	bcf	3,5	;RP0=0, select bank0
  6475  083F  1303               	bcf	3,6	;RP1=0, select bank0
  6476  0840  0093               	movwf	19	;volatile
  6477  0841                     l115:	
  6478  0841  0008               	return
  6479  0842                     __end_of_I2C_Master_Write:	
  6480                           
  6481                           	psect	text22
  6482  17F7                     __ptext22:	
  6483 ;; *************** function _I2C_Master_Stop *****************
  6484 ;; Defined at:
  6485 ;;		line 56 in file "I2C.c"
  6486 ;; Parameters:    Size  Location     Type
  6487 ;;		None
  6488 ;; Auto vars:     Size  Location     Type
  6489 ;;		None
  6490 ;; Return value:  Size  Location     Type
  6491 ;;                  1    wreg      void 
  6492 ;; Registers used:
  6493 ;;		wreg, status,2, status,0, pclath, cstack
  6494 ;; Tracked objects:
  6495 ;;		On entry : 0/0
  6496 ;;		On exit  : 0/0
  6497 ;;		Unchanged: 0/0
  6498 ;; Data sizes:     COMMON   BANK0   BANK1   BANK3   BANK2
  6499 ;;      Params:         0       0       0       0       0
  6500 ;;      Locals:         0       0       0       0       0
  6501 ;;      Temps:          0       0       0       0       0
  6502 ;;      Totals:         0       0       0       0       0
  6503 ;;Total ram usage:        0 bytes
  6504 ;; Hardware stack levels used:    1
  6505 ;; Hardware stack levels required when called:    1
  6506 ;; This function calls:
  6507 ;;		_I2C_Master_Wait
  6508 ;; This function is called by:
  6509 ;;		_main
  6510 ;; This function uses a non-reentrant model
  6511 ;;
  6512                           
  6513                           
  6514                           ;psect for function _I2C_Master_Stop
  6515  17F7                     _I2C_Master_Stop:	
  6516  17F7                     l2196:	
  6517                           ;incstack = 0
  6518                           ; Regs used in _I2C_Master_Stop: [wreg+status,2+status,0+pclath+cstack]
  6519                           
  6520                           
  6521                           ;I2C.c: 58:     I2C_Master_Wait();
  6522  17F7  120A  158A  2042  160A  118A  	fcall	_I2C_Master_Wait
  6523  17FC                     l2198:	
  6524                           
  6525                           ;I2C.c: 59:     SSPCON2bits.PEN = 1;
  6526  17FC  1683               	bsf	3,5	;RP0=1, select bank1
  6527  17FD  1303               	bcf	3,6	;RP1=0, select bank1
  6528  17FE  1511               	bsf	17,2	;volatile
  6529  17FF                     l112:	
  6530  17FF  0008               	return
  6531  1800                     __end_of_I2C_Master_Stop:	
  6532                           
  6533                           	psect	text23
  6534  17EE                     __ptext23:	
  6535 ;; *************** function _I2C_Master_Start *****************
  6536 ;; Defined at:
  6537 ;;		line 40 in file "I2C.c"
  6538 ;; Parameters:    Size  Location     Type
  6539 ;;		None
  6540 ;; Auto vars:     Size  Location     Type
  6541 ;;		None
  6542 ;; Return value:  Size  Location     Type
  6543 ;;                  1    wreg      void 
  6544 ;; Registers used:
  6545 ;;		wreg, status,2, status,0, pclath, cstack
  6546 ;; Tracked objects:
  6547 ;;		On entry : 0/0
  6548 ;;		On exit  : 0/0
  6549 ;;		Unchanged: 0/0
  6550 ;; Data sizes:     COMMON   BANK0   BANK1   BANK3   BANK2
  6551 ;;      Params:         0       0       0       0       0
  6552 ;;      Locals:         0       0       0       0       0
  6553 ;;      Temps:          0       0       0       0       0
  6554 ;;      Totals:         0       0       0       0       0
  6555 ;;Total ram usage:        0 bytes
  6556 ;; Hardware stack levels used:    1
  6557 ;; Hardware stack levels required when called:    1
  6558 ;; This function calls:
  6559 ;;		_I2C_Master_Wait
  6560 ;; This function is called by:
  6561 ;;		_main
  6562 ;; This function uses a non-reentrant model
  6563 ;;
  6564                           
  6565                           
  6566                           ;psect for function _I2C_Master_Start
  6567  17EE                     _I2C_Master_Start:	
  6568  17EE                     l2172:	
  6569                           ;incstack = 0
  6570                           ; Regs used in _I2C_Master_Start: [wreg+status,2+status,0+pclath+cstack]
  6571                           
  6572                           
  6573                           ;I2C.c: 42:     I2C_Master_Wait();
  6574  17EE  120A  158A  2042  160A  118A  	fcall	_I2C_Master_Wait
  6575  17F3                     l2174:	
  6576                           
  6577                           ;I2C.c: 43:     SSPCON2bits.SEN = 1;
  6578  17F3  1683               	bsf	3,5	;RP0=1, select bank1
  6579  17F4  1303               	bcf	3,6	;RP1=0, select bank1
  6580  17F5  1411               	bsf	17,0	;volatile
  6581  17F6                     l106:	
  6582  17F6  0008               	return
  6583  17F7                     __end_of_I2C_Master_Start:	
  6584                           
  6585                           	psect	text24
  6586  0970                     __ptext24:	
  6587 ;; *************** function _I2C_Master_Read *****************
  6588 ;; Defined at:
  6589 ;;		line 75 in file "I2C.c"
  6590 ;; Parameters:    Size  Location     Type
  6591 ;;  a               2    0[COMMON] unsigned short 
  6592 ;; Auto vars:     Size  Location     Type
  6593 ;;  temp            2    4[COMMON] unsigned short 
  6594 ;; Return value:  Size  Location     Type
  6595 ;;                  2    0[COMMON] unsigned short 
  6596 ;; Registers used:
  6597 ;;		wreg, status,2, status,0, pclath, cstack
  6598 ;; Tracked objects:
  6599 ;;		On entry : 0/0
  6600 ;;		On exit  : 0/0
  6601 ;;		Unchanged: 0/0
  6602 ;; Data sizes:     COMMON   BANK0   BANK1   BANK3   BANK2
  6603 ;;      Params:         2       0       0       0       0
  6604 ;;      Locals:         2       0       0       0       0
  6605 ;;      Temps:          2       0       0       0       0
  6606 ;;      Totals:         6       0       0       0       0
  6607 ;;Total ram usage:        6 bytes
  6608 ;; Hardware stack levels used:    1
  6609 ;; Hardware stack levels required when called:    1
  6610 ;; This function calls:
  6611 ;;		_I2C_Master_Wait
  6612 ;; This function is called by:
  6613 ;;		_main
  6614 ;; This function uses a non-reentrant model
  6615 ;;
  6616                           
  6617                           
  6618                           ;psect for function _I2C_Master_Read
  6619  0970                     _I2C_Master_Read:	
  6620  0970                     l2180:	
  6621                           ;incstack = 0
  6622                           ; Regs used in _I2C_Master_Read: [wreg+status,2+status,0+pclath+cstack]
  6623                           
  6624                           
  6625                           ;I2C.c: 75: unsigned short I2C_Master_Read(unsigned short a);I2C.c: 76: {;I2C.c: 77:    
      +                           unsigned short temp;;I2C.c: 78:     I2C_Master_Wait();
  6626  0970  120A  158A  2042  120A  158A  	fcall	_I2C_Master_Wait
  6627  0975                     l2182:	
  6628                           
  6629                           ;I2C.c: 79:     SSPCON2bits.RCEN = 1;
  6630  0975  1683               	bsf	3,5	;RP0=1, select bank1
  6631  0976  1303               	bcf	3,6	;RP1=0, select bank1
  6632  0977  1591               	bsf	17,3	;volatile
  6633                           
  6634                           ;I2C.c: 80:     I2C_Master_Wait();
  6635  0978  120A  158A  2042  120A  158A  	fcall	_I2C_Master_Wait
  6636  097D                     l2184:	
  6637                           
  6638                           ;I2C.c: 81:     temp = SSPBUF;
  6639  097D  1283               	bcf	3,5	;RP0=0, select bank0
  6640  097E  1303               	bcf	3,6	;RP1=0, select bank0
  6641  097F  0813               	movf	19,w	;volatile
  6642  0980  00F2               	movwf	??_I2C_Master_Read
  6643  0981  01F3               	clrf	??_I2C_Master_Read+1
  6644  0982  0872               	movf	??_I2C_Master_Read,w
  6645  0983  00F4               	movwf	I2C_Master_Read@temp
  6646  0984  0873               	movf	??_I2C_Master_Read+1,w
  6647  0985  00F5               	movwf	I2C_Master_Read@temp+1
  6648  0986                     l2186:	
  6649                           
  6650                           ;I2C.c: 82:     I2C_Master_Wait();
  6651  0986  120A  158A  2042  120A  158A  	fcall	_I2C_Master_Wait
  6652  098B                     l2188:	
  6653                           
  6654                           ;I2C.c: 83:     if(a == 1){
  6655  098B  0370               	decf	I2C_Master_Read@a,w
  6656  098C  0471               	iorwf	I2C_Master_Read@a+1,w
  6657  098D  1D03               	btfss	3,2
  6658  098E  2990               	goto	u2691
  6659  098F  2991               	goto	u2690
  6660  0990                     u2691:	
  6661  0990  2995               	goto	l118
  6662  0991                     u2690:	
  6663  0991                     l2190:	
  6664                           
  6665                           ;I2C.c: 84:         SSPCON2bits.ACKDT = 0;
  6666  0991  1683               	bsf	3,5	;RP0=1, select bank1
  6667  0992  1303               	bcf	3,6	;RP1=0, select bank1
  6668  0993  1291               	bcf	17,5	;volatile
  6669                           
  6670                           ;I2C.c: 85:     }else{
  6671  0994  2998               	goto	l119
  6672  0995                     l118:	
  6673                           
  6674                           ;I2C.c: 86:         SSPCON2bits.ACKDT = 1;
  6675  0995  1683               	bsf	3,5	;RP0=1, select bank1
  6676  0996  1303               	bcf	3,6	;RP1=0, select bank1
  6677  0997  1691               	bsf	17,5	;volatile
  6678  0998                     l119:	
  6679                           ;I2C.c: 87:     }
  6680                           
  6681                           
  6682                           ;I2C.c: 88:     SSPCON2bits.ACKEN = 1;
  6683  0998  1611               	bsf	17,4	;volatile
  6684  0999                     l2192:	
  6685                           
  6686                           ;I2C.c: 89:     return temp;
  6687  0999  0875               	movf	I2C_Master_Read@temp+1,w
  6688  099A  00F1               	movwf	?_I2C_Master_Read+1
  6689  099B  0874               	movf	I2C_Master_Read@temp,w
  6690  099C  00F0               	movwf	?_I2C_Master_Read
  6691  099D                     l120:	
  6692  099D  0008               	return
  6693  099E                     __end_of_I2C_Master_Read:	
  6694                           
  6695                           	psect	text25
  6696  0842                     __ptext25:	
  6697 ;; *************** function _I2C_Master_Wait *****************
  6698 ;; Defined at:
  6699 ;;		line 33 in file "I2C.c"
  6700 ;; Parameters:    Size  Location     Type
  6701 ;;		None
  6702 ;; Auto vars:     Size  Location     Type
  6703 ;;		None
  6704 ;; Return value:  Size  Location     Type
  6705 ;;                  1    wreg      void 
  6706 ;; Registers used:
  6707 ;;		wreg, status,2
  6708 ;; Tracked objects:
  6709 ;;		On entry : 0/0
  6710 ;;		On exit  : 0/0
  6711 ;;		Unchanged: 0/0
  6712 ;; Data sizes:     COMMON   BANK0   BANK1   BANK3   BANK2
  6713 ;;      Params:         0       0       0       0       0
  6714 ;;      Locals:         0       0       0       0       0
  6715 ;;      Temps:          0       0       0       0       0
  6716 ;;      Totals:         0       0       0       0       0
  6717 ;;Total ram usage:        0 bytes
  6718 ;; Hardware stack levels used:    1
  6719 ;; This function calls:
  6720 ;;		Nothing
  6721 ;; This function is called by:
  6722 ;;		_I2C_Master_Start
  6723 ;;		_I2C_Master_Stop
  6724 ;;		_I2C_Master_Write
  6725 ;;		_I2C_Master_Read
  6726 ;;		_I2C_Master_RepeatedStart
  6727 ;; This function uses a non-reentrant model
  6728 ;;
  6729                           
  6730                           
  6731                           ;psect for function _I2C_Master_Wait
  6732  0842                     _I2C_Master_Wait:	
  6733  0842                     l1836:	
  6734                           ;incstack = 0
  6735                           ; Regs used in _I2C_Master_Wait: [wreg+status,2]
  6736                           
  6737  0842                     l100:	
  6738                           ;I2C.c: 35:     while ((SSPSTAT & 0x04) || (SSPCON2 & 0x1F));
  6739                           
  6740  0842  1683               	bsf	3,5	;RP0=1, select bank1
  6741  0843  1303               	bcf	3,6	;RP1=0, select bank1
  6742  0844  1914               	btfsc	20,2	;volatile
  6743  0845  2847               	goto	u2051
  6744  0846  2848               	goto	u2050
  6745  0847                     u2051:	
  6746  0847  2842               	goto	l100
  6747  0848                     u2050:	
  6748  0848                     l1838:	
  6749  0848  0811               	movf	17,w	;volatile
  6750  0849  391F               	andlw	31
  6751  084A  1D03               	btfss	3,2
  6752  084B  284D               	goto	u2061
  6753  084C  284E               	goto	u2060
  6754  084D                     u2061:	
  6755  084D  2842               	goto	l100
  6756  084E                     u2060:	
  6757  084E                     l103:	
  6758  084E  0008               	return
  6759  084F                     __end_of_I2C_Master_Wait:	
  6760                           
  6761                           	psect	text26
  6762  0924                     __ptext26:	
  6763 ;; *************** function _BCD *****************
  6764 ;; Defined at:
  6765 ;;		line 51 in file "I2CM.c"
  6766 ;; Parameters:    Size  Location     Type
  6767 ;;  to_convert      2    6[COMMON] int 
  6768 ;; Auto vars:     Size  Location     Type
  6769 ;;		None
  6770 ;; Return value:  Size  Location     Type
  6771 ;;                  2    6[COMMON] int 
  6772 ;; Registers used:
  6773 ;;		wreg, status,2, status,0, pclath, cstack
  6774 ;; Tracked objects:
  6775 ;;		On entry : 0/0
  6776 ;;		On exit  : 0/0
  6777 ;;		Unchanged: 0/0
  6778 ;; Data sizes:     COMMON   BANK0   BANK1   BANK3   BANK2
  6779 ;;      Params:         2       0       0       0       0
  6780 ;;      Locals:         0       0       0       0       0
  6781 ;;      Temps:          2       0       0       0       0
  6782 ;;      Totals:         4       0       0       0       0
  6783 ;;Total ram usage:        4 bytes
  6784 ;; Hardware stack levels used:    1
  6785 ;; Hardware stack levels required when called:    1
  6786 ;; This function calls:
  6787 ;;		___wmul
  6788 ;; This function is called by:
  6789 ;;		_main
  6790 ;; This function uses a non-reentrant model
  6791 ;;
  6792                           
  6793                           
  6794                           ;psect for function _BCD
  6795  0924                     _BCD:	
  6796  0924                     l2132:	
  6797                           ;incstack = 0
  6798                           ; Regs used in _BCD: [wreg+status,2+status,0+pclath+cstack]
  6799                           
  6800                           
  6801                           ;I2CM.c: 51: int BCD(int to_convert);I2CM.c: 52: {;I2CM.c: 53:    return (to_convert >> 
      +                          4) * 10 + (to_convert & 0x0F);
  6802  0924  300F               	movlw	15
  6803  0925  0576               	andwf	BCD@to_convert,w
  6804  0926  00F8               	movwf	??_BCD
  6805  0927  3000               	movlw	0
  6806  0928  0577               	andwf	BCD@to_convert+1,w
  6807  0929  00F9               	movwf	??_BCD+1
  6808  092A  0E76               	swapf	BCD@to_convert,w
  6809  092B  390F               	andlw	15
  6810  092C  00F0               	movwf	___wmul@multiplier
  6811  092D  0E77               	swapf	BCD@to_convert+1,w
  6812  092E  39F0               	andlw	240
  6813  092F  04F0               	iorwf	___wmul@multiplier,f
  6814  0930  0E77               	swapf	BCD@to_convert+1,w
  6815  0931  390F               	andlw	15
  6816  0932  00F1               	movwf	___wmul@multiplier+1
  6817  0933  30F0               	movlw	240
  6818  0934  1DF1               	btfss	___wmul@multiplier+1,3
  6819  0935  3000               	movlw	0
  6820  0936  04F1               	iorwf	___wmul@multiplier+1,f
  6821  0937  300A               	movlw	10
  6822  0938  00F2               	movwf	___wmul@multiplicand
  6823  0939  3000               	movlw	0
  6824  093A  00F3               	movwf	___wmul@multiplicand+1
  6825  093B  120A  158A  20FF  120A  158A  	fcall	___wmul
  6826  0940  0878               	movf	??_BCD,w
  6827  0941  0770               	addwf	?___wmul,w
  6828  0942  00F6               	movwf	?_BCD
  6829  0943  0879               	movf	??_BCD+1,w
  6830  0944  1803               	skipnc
  6831  0945  0A79               	incf	??_BCD+1,w
  6832  0946  0771               	addwf	?___wmul+1,w
  6833  0947  00F7               	movwf	?_BCD+1
  6834  0948                     l55:	
  6835  0948  0008               	return
  6836  0949                     __end_of_BCD:	
  6837                           
  6838                           	psect	text27
  6839  08FF                     __ptext27:	
  6840 ;; *************** function ___wmul *****************
  6841 ;; Defined at:
  6842 ;;		line 15 in file "C:\Program Files (x86)\Microchip\xc8\v2.10\pic\sources\c90\common\Umul16.c"
  6843 ;; Parameters:    Size  Location     Type
  6844 ;;  multiplier      2    0[COMMON] unsigned int 
  6845 ;;  multiplicand    2    2[COMMON] unsigned int 
  6846 ;; Auto vars:     Size  Location     Type
  6847 ;;  product         2    4[COMMON] unsigned int 
  6848 ;; Return value:  Size  Location     Type
  6849 ;;                  2    0[COMMON] unsigned int 
  6850 ;; Registers used:
  6851 ;;		wreg, status,2, status,0
  6852 ;; Tracked objects:
  6853 ;;		On entry : 0/0
  6854 ;;		On exit  : 0/0
  6855 ;;		Unchanged: 0/0
  6856 ;; Data sizes:     COMMON   BANK0   BANK1   BANK3   BANK2
  6857 ;;      Params:         4       0       0       0       0
  6858 ;;      Locals:         2       0       0       0       0
  6859 ;;      Temps:          0       0       0       0       0
  6860 ;;      Totals:         6       0       0       0       0
  6861 ;;Total ram usage:        6 bytes
  6862 ;; Hardware stack levels used:    1
  6863 ;; This function calls:
  6864 ;;		Nothing
  6865 ;; This function is called by:
  6866 ;;		_BCD
  6867 ;; This function uses a non-reentrant model
  6868 ;;
  6869                           
  6870                           
  6871                           ;psect for function ___wmul
  6872  08FF                     ___wmul:	
  6873  08FF                     l1910:	
  6874                           ;incstack = 0
  6875                           ; Regs used in ___wmul: [wreg+status,2+status,0]
  6876                           
  6877  08FF  01F4               	clrf	___wmul@product
  6878  0900  01F5               	clrf	___wmul@product+1
  6879  0901                     l1912:	
  6880  0901  1C70               	btfss	___wmul@multiplier,0
  6881  0902  2904               	goto	u2141
  6882  0903  2905               	goto	u2140
  6883  0904                     u2141:	
  6884  0904  290B               	goto	l272
  6885  0905                     u2140:	
  6886  0905                     l1914:	
  6887  0905  0872               	movf	___wmul@multiplicand,w
  6888  0906  07F4               	addwf	___wmul@product,f
  6889  0907  1803               	skipnc
  6890  0908  0AF5               	incf	___wmul@product+1,f
  6891  0909  0873               	movf	___wmul@multiplicand+1,w
  6892  090A  07F5               	addwf	___wmul@product+1,f
  6893  090B                     l272:	
  6894  090B  3001               	movlw	1
  6895  090C                     u2155:	
  6896  090C  1003               	clrc
  6897  090D  0DF2               	rlf	___wmul@multiplicand,f
  6898  090E  0DF3               	rlf	___wmul@multiplicand+1,f
  6899  090F  3EFF               	addlw	-1
  6900  0910  1D03               	skipz
  6901  0911  290C               	goto	u2155
  6902  0912                     l1916:	
  6903  0912  3001               	movlw	1
  6904  0913                     u2165:	
  6905  0913  1003               	clrc
  6906  0914  0CF1               	rrf	___wmul@multiplier+1,f
  6907  0915  0CF0               	rrf	___wmul@multiplier,f
  6908  0916  3EFF               	addlw	-1
  6909  0917  1D03               	skipz
  6910  0918  2913               	goto	u2165
  6911  0919                     l1918:	
  6912  0919  0870               	movf	___wmul@multiplier,w
  6913  091A  0471               	iorwf	___wmul@multiplier+1,w
  6914  091B  1D03               	btfss	3,2
  6915  091C  291E               	goto	u2171
  6916  091D  291F               	goto	u2170
  6917  091E                     u2171:	
  6918  091E  2901               	goto	l1912
  6919  091F                     u2170:	
  6920  091F                     l1920:	
  6921  091F  0875               	movf	___wmul@product+1,w
  6922  0920  00F1               	movwf	?___wmul+1
  6923  0921  0874               	movf	___wmul@product,w
  6924  0922  00F0               	movwf	?___wmul
  6925  0923                     l274:	
  6926  0923  0008               	return
  6927  0924                     __end_of___wmul:	
  6928  007E                     btemp	set	126	;btemp
  6929  007E                     wtemp0	set	126


Data Sizes:
    Strings     23
    Constant    10
    Data        0
    BSS         13
    Persistent  0
    Stack       0

Auto Spaces:
    Space          Size  Autos    Used
    COMMON           14     14      14
    BANK0            80     72      77
    BANK1            80      0       8
    BANK3            96      0       0
    BANK2            96      0       0

Pointer List with Targets:

    sprintf@f	PTR const unsigned char  size(1) Largest target is 3
		 -> STR_7(CODE[3]), 

    sprintf@sp	PTR unsigned char  size(1) Largest target is 4
		 -> Lcd_Write_Number@str(BANK0[4]), 

    sprintf@ap	PTR void [1] size(1) Largest target is 2
		 -> ?_sprintf(BANK0[2]), 

    Lcd_Write_String@a	PTR unsigned char  size(2) Largest target is 5
		 -> Lcd_Write_Number@str(BANK0[4]), STR_5(CODE[2]), STR_3(CODE[5]), STR_2(CODE[5]), 
		 -> STR_1(CODE[4]), 


Critical Paths under _main in COMMON

    _main->___xxtofl
    _I2C_Master_Init->___lldiv
    ___xxtofl->_I2C_Master_Read
    ___flsub->___xxtofl
    ___flmul->___xxtofl
    _sprintf->___lwmod
    ___lwmod->___lwdiv
    _Lcd_Write_String->_Lcd_Write_Char
    _Lcd_Set_Cursor->_Lcd_Cmd
    _Lcd_Init->_Lcd_Cmd
    _Lcd_Clear->_Lcd_Cmd
    _BCD->_I2C_Master_Read
    _BCD->___wmul

Critical Paths under _main in BANK0

    _main->___fldiv
    _setup->_I2C_Master_Init
    ___flsub->___fladd
    ___flmul->___flsub
    ___fldiv->___flmul
    _Lcd_Write_Number->_sprintf

Critical Paths under _main in BANK1

    None.

Critical Paths under _main in BANK3

    None.

Critical Paths under _main in BANK2

    None.

Call Graph Tables:

 ---------------------------------------------------------------------------------
 (Depth) Function   	        Calls       Base Space   Used Autos Params    Refs
 ---------------------------------------------------------------------------------
 (0) _main                                                 4     4      0   11886
                                             68 BANK0      4     4      0
                                _BCD
                    _I2C_Master_Read
                   _I2C_Master_Start
                    _I2C_Master_Stop
                   _I2C_Master_Write
                          _Lcd_Clear
                           _Lcd_Init
                     _Lcd_Set_Cursor
                     _Lcd_Write_Char
                   _Lcd_Write_Number
                   _Lcd_Write_String
                            ___fldiv
                            ___flmul
                            ___flsub
                            ___fltol
                           ___xxtofl
                              _setup
 ---------------------------------------------------------------------------------
 (1) _setup                                                0     0      0     412
                    _I2C_Master_Init
 ---------------------------------------------------------------------------------
 (2) _I2C_Master_Init                                      8     4      4     412
                                              0 BANK0      8     4      4
                            ___lldiv
 ---------------------------------------------------------------------------------
 (3) ___lldiv                                             14     6      8     314
                                              0 COMMON    14     6      8
 ---------------------------------------------------------------------------------
 (1) ___xxtofl                                            14    10      4     474
                                              6 COMMON     8     4      4
                                              0 BANK0      6     6      0
                    _I2C_Master_Read (ARG)
 ---------------------------------------------------------------------------------
 (1) ___fltol                                             11     7      4     381
                                              0 COMMON    11     7      4
 ---------------------------------------------------------------------------------
 (1) ___flsub                                              8     0      8    2333
                                              8 BANK0      8     0      8
                            ___fladd
                           ___xxtofl (ARG)
 ---------------------------------------------------------------------------------
 (2) ___fladd                                             20    12      8    2136
                                              0 COMMON    12     4      8
                                              0 BANK0      8     8      0
 ---------------------------------------------------------------------------------
 (1) ___flmul                                             26    18      8    2569
                                             16 BANK0     26    18      8
                          __Umul8_16
                            ___flsub (ARG)
                           ___xxtofl (ARG)
 ---------------------------------------------------------------------------------
 (2) __Umul8_16                                            9     7      2     799
                                              0 COMMON     9     7      2
 ---------------------------------------------------------------------------------
 (1) ___fldiv                                             26    18      8    1273
                                             42 BANK0     26    18      8
                            ___flmul (ARG)
 ---------------------------------------------------------------------------------
 (1) _Lcd_Write_Number                                     8     8      0    1779
                                             13 BANK0      8     8      0
                   _Lcd_Write_String
                            _sprintf
 ---------------------------------------------------------------------------------
 (2) _sprintf                                             21    18      3    1211
                                              0 BANK0     13    10      3
                            ___lwdiv
                            ___lwmod
 ---------------------------------------------------------------------------------
 (3) ___lwmod                                              6     2      4     311
                                              8 COMMON     6     2      4
                            ___lwdiv (ARG)
 ---------------------------------------------------------------------------------
 (3) ___lwdiv                                              8     4      4     314
                                              0 COMMON     8     4      4
 ---------------------------------------------------------------------------------
 (1) _Lcd_Write_String                                     7     5      2     492
                                              2 COMMON     7     5      2
                     _Lcd_Write_Char
 ---------------------------------------------------------------------------------
 (2) _Lcd_Write_Char                                       2     2      0      22
                                              0 COMMON     2     2      0
 ---------------------------------------------------------------------------------
 (1) _Lcd_Set_Cursor                                       4     3      1     688
                                              3 COMMON     4     3      1
                            _Lcd_Cmd
 ---------------------------------------------------------------------------------
 (1) _Lcd_Init                                             2     2      0      22
                                              3 COMMON     2     2      0
                            _Lcd_Cmd
 ---------------------------------------------------------------------------------
 (1) _Lcd_Clear                                            0     0      0      22
                            _Lcd_Cmd
 ---------------------------------------------------------------------------------
 (2) _Lcd_Cmd                                              3     3      0      22
                                              0 COMMON     3     3      0
 ---------------------------------------------------------------------------------
 (1) _I2C_Master_Write                                     2     0      2     554
                                              0 COMMON     2     0      2
                    _I2C_Master_Wait
 ---------------------------------------------------------------------------------
 (1) _I2C_Master_Stop                                      0     0      0       0
                    _I2C_Master_Wait
 ---------------------------------------------------------------------------------
 (1) _I2C_Master_Start                                     0     0      0       0
                    _I2C_Master_Wait
 ---------------------------------------------------------------------------------
 (1) _I2C_Master_Read                                      6     4      2     425
                                              0 COMMON     6     4      2
                    _I2C_Master_Wait
 ---------------------------------------------------------------------------------
 (2) _I2C_Master_Wait                                      0     0      0       0
 ---------------------------------------------------------------------------------
 (1) _BCD                                                  4     2      2     440
                                              6 COMMON     4     2      2
                    _I2C_Master_Read (ARG)
                             ___wmul
 ---------------------------------------------------------------------------------
 (2) ___wmul                                               6     2      4     244
                                              0 COMMON     6     2      4
 ---------------------------------------------------------------------------------
 Estimated maximum stack depth 3
 ---------------------------------------------------------------------------------

 Call Graph Graphs:

 _main (ROOT)
   _BCD
     _I2C_Master_Read (ARG)
       _I2C_Master_Wait
     ___wmul (ARG)
   _I2C_Master_Read
     _I2C_Master_Wait
   _I2C_Master_Start
     _I2C_Master_Wait
   _I2C_Master_Stop
     _I2C_Master_Wait
   _I2C_Master_Write
     _I2C_Master_Wait
   _Lcd_Clear
     _Lcd_Cmd
   _Lcd_Init
     _Lcd_Cmd
   _Lcd_Set_Cursor
     _Lcd_Cmd
   _Lcd_Write_Char
   _Lcd_Write_Number
     _Lcd_Write_String
       _Lcd_Write_Char
     _sprintf
       ___lwdiv
       ___lwmod
         ___lwdiv (ARG)
   _Lcd_Write_String
     _Lcd_Write_Char
   ___fldiv
     ___flmul (ARG)
       __Umul8_16
       ___flsub (ARG)
         ___fladd
         ___xxtofl (ARG)
           _I2C_Master_Read (ARG)
             _I2C_Master_Wait
       ___xxtofl (ARG)
         _I2C_Master_Read (ARG)
           _I2C_Master_Wait
   ___flmul
     __Umul8_16
     ___flsub (ARG)
       ___fladd
       ___xxtofl (ARG)
         _I2C_Master_Read (ARG)
           _I2C_Master_Wait
     ___xxtofl (ARG)
       _I2C_Master_Read (ARG)
         _I2C_Master_Wait
   ___flsub
     ___fladd
     ___xxtofl (ARG)
       _I2C_Master_Read (ARG)
         _I2C_Master_Wait
   ___fltol
   ___xxtofl
     _I2C_Master_Read (ARG)
       _I2C_Master_Wait
   _setup
     _I2C_Master_Init
       ___lldiv

 Address spaces:
Name               Size   Autos  Total    Cost      Usage
BITCOMMON            E      0       0       0        0.0%
EEDATA             100      0       0       0        0.0%
NULL                 0      0       0       0        0.0%
CODE                 0      0       0       0        0.0%
COMMON               E      E       E       1      100.0%
BITSFR0              0      0       0       1        0.0%
SFR0                 0      0       0       1        0.0%
BITSFR1              0      0       0       2        0.0%
SFR1                 0      0       0       2        0.0%
STACK                0      0       0       2        0.0%
ABS                  0      0      63       3        0.0%
BITBANK0            50      0       0       4        0.0%
BITSFR3              0      0       0       4        0.0%
SFR3                 0      0       0       4        0.0%
BANK0               50     48      4D       5       96.3%
BITSFR2              0      0       0       5        0.0%
SFR2                 0      0       0       5        0.0%
BITBANK1            50      0       0       6        0.0%
BANK1               50      0       8       7       10.0%
BITBANK3            60      0       0       8        0.0%
BANK3               60      0       0       9        0.0%
BITBANK2            60      0       0      10        0.0%
BANK2               60      0       0      11        0.0%
DATA                 0      0      63      12        0.0%


Microchip Technology PIC Macro Assembler V2.10 build 88905656 
Symbol Table                                                                                   Wed Feb 26 12:24:52 2020

             ___fldiv@aexp 0063               ___fldiv@bexp 0062                          pc 0002  
             ___fldiv@sign 005B                __CFG_CP$OFF 0000                         l60 0231  
                       l55 0948                         l68 0898                         l97 09D5  
                       fsr 0004        ___wmul@multiplicand 0072        __Umul8_16@word_mpld 0076  
                      l100 0842                        l103 084E                        l120 099D  
                      l112 17FF                        l106 17F6                        l115 0841  
                      l118 0995                        l134 087E                        l119 0998  
                      l143 08DA                        l137 085B                        l146 0AE3  
                      l155 0A51                        l308 0B49                        l149 086A  
                      l158 08B6                        l272 090B                        l274 0923  
                      _BCD 0924                        l611 08FE                        l268 0D67  
                      l621 0066                        l701 0C7F                        l623 01E6  
                      l607 0FF1                        l544 0A95                        l720 096F  
                      l608 0FFF                        l712 0C49                        l465 0BAE  
                      l713 0C55                        l705 0C2D                        l554 0A0F  
                      l458 0BC3                        l643 01CA                        l571 0E49  
                      l468 0BC3                        l645 01DA                        l637 0158  
                      l661 07EA                        l565 0DCB                        l718 095D  
                      l590 0F6B                        l673 07DE                        l569 0E74  
                      l586 0F45                        l578 0FFF                        l667 0756  
                      l596 0F8D                        l599 0FCD                        l699 0BE8  
                      _GIE 005F               __CFG_CPD$OFF 0000                        fsr0 0004  
                      indf 0000               ___flmul@aexp 0042               ___flmul@bexp 0043  
             ___flmul@sign 003D               ___flmul@temp 0048               ___flmul@prod 0044  
                     ?_BCD 0076               __CFG_LVP$OFF 0000               ___fltol@exp1 007A  
                     l2000 0E11                       l2010 0E58                       l2002 0E15  
                     l2100 0FD2                       l2012 0E5A                       l2020 0E6E  
                     l2004 0E16                       l2110 0FE9                       l2102 0FD7  
                     l2030 0E9D                       l2022 0E78                       l2014 0E5E  
                     l2006 0E2D                       l2200 089C                       l2120 094C  
                     l2112 0FEB                       l2104 0FDF                       l2040 0EB6  
                     l2032 0EA1                       l2024 0E7D                       l2016 0E5F  
                     l2008 0E4D                       l2122 0953                       l2114 0FFA  
                     l2106 0FE4                       l2050 0F1D                       l2042 0EB7  
                     l2034 0EA5                       l2018 0E6A                       l2210 0B73  
                     l2202 0B4A                       l2132 0924                       l2140 0A96  
                     l2300 00A7                       l2124 0957                       l2116 0FFE  
                     l2108 0FE5                       l2060 0F52                       l2052 0F23  
                     l2044 0EC2                       l2036 0EB0                       l2028 0E86  
                     l2212 0B74                       l2204 0B55                       l2150 0ACB  
                     l2142 0A9F                       l2310 00C6                       l2302 00AF  
                     l2126 0966                       l2118 094A                       l2070 0F6F  
                     l2054 0F28                       l2038 0EB2                       l2046 0EC7  
                     l2214 0B7C                       l2152 0AD1                       l2144 0AA5  
                     l2160 08B8                       l2320 00F8                       l2312 00D8  
                     l2304 00B7                       l2128 096B                       l2400 04AE  
                     l2072 0F72                       l2064 0F5B                       l2048 0EDD  
                     l2056 0F37                       l2080 0F7F                       l2240 08DF  
                     l2232 0BA3                       l2224 0B8A                       l2216 0B7E  
                     l2208 0B5E                       l2136 087F                       l2154 0AD7  
                     l2146 0AB3                       l2170 08D4                       l2162 08BD  
                     l2330 0119                       l2322 00F9                       l2314 00DC  
                     l2306 00BF                       l2250 001B                       l2410 04C7  
                     l2402 04B0                       l2090 0F92                       l2082 0F80  
                     l2074 0F74                       l2066 0F66                       l2058 0F4D  
                     l2234 0BB3                       l2218 0B82                       l2226 0B9C  
                     l2138 088B                       l2180 0970                       l2172 17EE  
                     l2156 0ADD                       l2148 0ABC                       l2164 08C2  
                     l2340 0132                       l2332 011B                       l2324 0107  
                     l2316 00DD                       l2308 00C1                       l2260 002F  
                     l2252 001C                       l2244 000A                       l2500 0772  
                     l2420 04DC                       l2412 04C8                       l2404 04B8  
                     l2092 0F97                       l2084 0F84                       l2076 0F79  
                     l2068 0F6A                       l2236 0BB8                       l2190 0991  
                     l2182 0975                       l2174 17F3                       l2158 084F  
                     l2166 08C9                       l2350 0155                       l2334 0124  
                     l2342 0138                       l2318 00E6                       l2326 010B  
                     l2270 0048                       l2254 0021                       l2262 0031  
                     l2246 0011                       l2510 07B8                       l2502 078B  
                     l2430 04F7                       l2422 04E4                       l2414 04CD  
                     l2406 04BD                       l2094 0FA5                       l2086 0F8A  
                     l2078 0F7B                       l2238 08DB                       l2192 0999  
                     l2184 097D                       l2176 0838                       l2168 08CF  
                     l1800 09E6                       l2360 0174                       l2344 013C  
                     l2336 0128                       l2328 0111                       l2280 005C  
                     l2272 0049                       l2264 0039                       l2256 0026  
                     l2248 0017                       l2520 07D7                       l2512 07C2  
                     l2504 0791                       l2440 0579                       l2432 0507  
                     l2424 04E9                       l2416 04D2                       l2408 04C3  
                     l2096 0FA9                       l2600 038E                       l2186 0986  
                     l2178 083D                       l1810 0A05                       l1802 09EA  
                     l2370 01BD                       l2362 018D                       l2354 015D  
                     l2346 013D                       l2338 0129                       l2274 004E  
                     l2282 005E                       l2266 003E                       l2258 002E  
                     l2522 07E2                       l2514 07C4                       l2506 079E  
                     l2450 05E7                       l2442 0595                       l2434 0514  
                     l2426 04EE                       l2418 04DA                       l2098 0FC9  
                     l2530 0BD0                       l2610 03B6                       l2602 0396  
                     l2188 098B                       l2196 17F7                       l1740 0862  
                     l1820 0A2F                       l1804 09EE                       l1812 0A0B  
                     l1900 0D51                       l2380 01D6                       l2372 01C1  
                     l2356 0162                       l2364 0193                       l2348 0141  
                     l2284 006E                       l2292 0087                       l2276 0053  
                     l2268 0044                       l2516 07D2                       l2508 07A9  
                     l2460 0677                       l2452 05F7                       l2444 05B1  
                     l2436 0531                       l2540 0BFE                       l2532 0BE0  
                     l2620 03DF                       l2612 03BF                       l2604 039C  
                     l1910 08FF                       l2198 17FC                       l1742 0867  
                     l1822 0A35                       l1806 09F8                       l1902 0D63  
                     l2374 01C9                       l2366 01A0                       l2358 0170  
                     l2294 008C                       l2286 007A                       l2278 005B  
                     l2518 07D6                       l2470 070B                       l2462 0687  
                     l2454 0614                       l2446 05BA                       l2438 054D  
                     l2390 0497                       l2550 0C34                       l2542 0C0B  
                     l2534 0BF0                       l2526 0BC7                       l1750 0B04  
                     l1830 09D2                       l2630 0403                       l2622 03E8  
                     l2614 03C8                       l2606 03A4                       l1920 091F  
                     l1912 0901                       l1840 086C                       l1736 085D  
                     l1816 0A10                       l1808 09FE                       l2376 01D0  
                     l2368 01AE                       l2288 007E                       l2480 0730  
                     l2472 0719                       l2464 06B4                       l2456 062D  
                     l2448 05CA                       l2392 049B                       l2560 0C6D  
                     l2552 0C3F                       l2544 0C12                       l2528 0BCC  
                     l1760 0B32                       l1752 0B08                       l1744 0AE4  
                     l1832 09D3                       l1824 099E                       l2640 0444  
                     l2632 041A                       l2624 03F0                       l2616 03D2  
                     l2608 03AC                       l1914 0905                       l1842 086F  
                     l1738 0860                       l1818 0A13                       l1770 0A54  
                     l1850 0C88                       l2378 01D4                       l2298 0095  
                     l2490 0753                       l2474 0722                       l2482 0736  
                     l2466 06DA                       l2458 064A                       l2394 049C  
                     l2386 048A                       l1930 0D79                       l2562 0C72  
                     l2554 0C43                       l2546 0C16                       l2538 0BF9  
                     l1762 0B3B                       l1754 0B11                       l1746 0AF4  
                     l1834 09D4                       l1826 09A2                       l2650 0464  
                     l2642 0449                       l2634 041F                       l2626 03F5  
                     l2618 03DA                       l2570 01E7                       l1916 0912  
                     l1836 0842                       l1844 0871                       l1780 0A6C  
                     l1772 0A5A                       l1860 0C9B                       l1852 0C8E  
                     l2484 073A                       l2476 0726                       l2468 0702  
                     l2396 04A1                       l2388 0491                       l1940 0D8D  
                     l1932 0D7A                       l1924 0D68                       l2564 0C76  
                     l2556 0C4D                       l2548 0C24                       l1756 0B23  
                     l1748 0AF7                       l1764 0B41                       l1828 09A5  
                     l2652 0478                       l2644 044E                       l2636 0424  
                     l2628 03FA                       l2580 026C                       l2572 01FE  
                     l1918 0919                       l1838 0848                       l1846 087B  
                     l1782 0A7D                       l1774 0A5D                       l1790 0A91  
                     l1870 0CCC                       l1862 0CB8                       l1854 0C95  
                     l2494 075B                       l2486 073B                       l2478 0727  
                     l2398 04A6                       l1950 0DA3                       l1934 0D7F  
                     l1942 0D8F                       l1926 0D6F                       l2566 0C77  
                     l2558 0C57                       l1758 0B31                       l2654 047E  
                     l2646 0457                       l2638 042D                       l2590 0297  
                     l2582 0276                       l2574 0207                       l1784 0A83  
                     l1776 0A64                       l1768 0A52                       l1872 0CD1  
                     l1864 0CC0                       l2680 0CAD                       l1856 0C9A  
                     l1848 0C83                       l2496 0760                       l2488 073F  
                     l1960 0DB8                       l1952 0DA9                       l1944 0D97  
                     l1936 0D84                       l1928 0D75                       l2648 045F  
                     l2592 02A1                       l2584 027B                       l2576 021C  
                     l1786 0A84                       l1778 0A68                       l1794 09D6  
                     l1890 0D0A                       l1882 0CEF                       l1866 0CC4  
                     l2498 076E                       l1970 0DD5                       l1962 0DC0  
                     l1954 0DAD                       l1946 0D9C                       l1938 0D8C  
                     l2594 02F7                       l2586 0284                       l2578 0228  
                     l1788 0A8B                       l1796 09DC                       l1892 0D0F  
                     l1884 0CF9                       l1868 0CC8                       l1980 0DE9  
                     l1972 0DD9                       l1964 0DC1                       l1956 0DAE  
                     l1948 0DA2                       l2596 0373                       l2588 0292  
                     l1798 09DF                       l1894 0D3D                       l1886 0CFF  
                     l1878 0CD3                       l1990 0DFD                       l1982 0DED  
                     l1974 0DDD                       l1958 0DB3                       l1966 0DC3  
                     l2598 0386                       l1896 0D44                       l1888 0D06  
                     l1992 0E01                       l1984 0DF1                       l1976 0DE1  
                     l1968 0DD1                       l1898 0D48                       l1994 0E05  
                     l1986 0DF5                       l1978 0DE5                       l1996 0E09  
                     l1988 0DF9                       l1998 0E0D                       STR_1 0824  
                     STR_2 081F                       STR_3 081A                       STR_4 082B  
                     STR_5 082D                       STR_6 082F                       STR_7 0828  
                     u2000 0A0B                       u2001 0A0A                       u2010 0A1D  
                     u2020 0A3F                       u2100 0CF9                       u2101 0CF8  
                     u2030 0A51                       u2110 0CFF                       u2031 0A50  
                     u2111 0CFE                       u2120 0D51                       u3000 0141  
                     u2200 0D84                       u2040 09B5                       u2121 0D50  
                     u3001 0140                       u2201 0D83                       u2050 0848  
                     u2130 0D63                       u3010 0155                       u2210 0DA2  
                     u2051 0847                       u2131 0D62                       u3011 0154  
                     u2211 0DA1                       u2140 0905                       u2060 084E  
                     u3020 015C                       u3100 04A1                       u2300 0E4D  
                     u2220 0DAD                       u2141 0904                       u2061 084D  
                     u3021 015B                       u3101 04A0                       u2301 0E4C  
                     u2221 0DAC                       u2045 09B0                       u2070 0C8E  
                     u3030 0162                       u3110 04A6                       u2310 0E5E  
                     u2230 0DB3                       u2071 0C8D                       u3031 0161  
                     u3111 04A5                       u2311 0E5D                       u2231 0DB2  
                     u2080 0CC8                       u3040 0174                       u3120 04C7  
                     u2240 0DB8                       u2081 0CC7                       u3041 0173  
                     u3201 05A3                       u3121 04C6                       u2241 0DB7  
                     u2170 091F                       u2090 0CEE                       u3050 0183  
                     u3202 05AA                       u3130 04CD                       u2410 0EDD  
                     u2330 0E74                       u2250 0DD1                       u2171 091E  
                     u2155 090C                       u2091 0CED                       u3203 05B1  
                     u3131 04CC                       u2411 0EDC                       u2331 0E73  
                     u2251 0DD0                       u3060 01A0                       u3300 06E8  
                     u3140 04D2                       u2500 0F79                       u2340 0E78  
                     u2260 0DD5                       u2180 0D79                       u2165 0913  
                     u3061 019F                       u3221 05D9                       u3141 04D1  
                     u2501 0F78                       u2421 0EF6                       u2413 0ED9  
                     u2405 0EBB                       u2341 0E77                       u2325 0E63  
                     u2261 0DD4                       u2181 0D78                       u3070 01BD  
                     u3222 05E0                       u3150 04E9                       u2510 0F7F  
                     u2430 0F0A                       u2422 0EF7                       u2350 0E7D  
                     u2270 0E2D                       u2190 0D7F                       u2095 0CEA  
                     u3071 01BC                       u3055 017E                       u3311 06F4  
                     u3231 0606                       u3223 05E7                       u3215 05B3  
                     u3151 04E8                       u2511 0F7E                       u2431 0F0B  
                     u2423 0EFC                       u2351 0E7C                       u2271 0E2C  
                     u2191 0D7E                       u3080 01D4                       u3400 0760  
                     u3312 06FB                       u3232 060D                       u3160 04EE  
                     u2600 0FD7                       u2520 0F84                       u2440 0F28  
                     u2432 0F10                       u2424 0EFD                       u2280 0E36  
                     u3081 01D3                       u3065 019C                       u3401 075F  
                     u3313 0702                       u3305 06E3                       u3233 0614  
                     u3161 04ED                       u2601 0FD6                       u2521 0F83  
                     u2441 0F27                       u2433 0F11                       u2425 0F02  
                     u2361 0E8F                       u2281 0E34                       u3410 0772  
                     u3090 049B                       u2610 0FE4                       u2530 0F8A  
                     u2450 0F4D                       u2426 0F03                       u2370 0EA1  
                     u2362 0E96                       u2290 0E37                       u1810 0AF4  
                     u3075 01B9                       u3411 0771                       u3251 063C  
                     u3171 053F                       u3091 049A                       u2611 0FE3  
                     u2531 0F89                       u2451 0F4C                       u2371 0EA0  
                     u2363 0E9D                       u2275 0E29                       u1811 0AF3  
                     u1900 0A6C                       u3420 0781                       u3340 0726  
                     u3252 0643                       u3172 0546                       u2620 0FE9  
                     u2540 0F91                       u2460 0F52                       u2380 0EA5  
                     u2700 0B55                       u3500 0C11                       u1901 0A6B  
                     u3341 0725                       u3325 0704                       u3261 0669  
                     u3253 064A                       u3245 0616                       u3181 055B  
                     u3173 054D                       u2621 0FE8                       u2541 0F90  
                     u2461 0F51                       u2381 0EA4                       u2701 0B54  
                     u3501 0C10                       u3430 079E                       u3262 0670  
                     u3182 0562                       u2630 0FFE                       u2550 0F97  
                     u2390 0EB6                       u2710 0B6C                       u1830 0B08  
                     u3431 079D                       u3335 071B                       u3271 0696  
                     u3263 0677                       u3191 0587                       u3183 0569  
                     u2631 0FFD                       u2551 0F96                       u2391 0EB5  
                     u1831 0B07                       u1920 0A7D                       u2800 001B  
                     u2640 0957                       u3440 07B8                       u3360 073A  
                     u3280 06C0                       u3272 069D                       u3192 058E  
                     u2560 0FA9                       u2480 0F6A                       u2720 0B82  
                     u3520 0C33                       u3600 03AC                       u1921 0A7C  
                     u2801 001A                       u2641 0956                       u3441 07B7  
                     u3425 077C                       u3361 0739                       u3273 06A4  
                     u3193 0595                       u2561 0FA8                       u2481 0F69  
                     u2721 0B81                       u3521 0C32                       u1825 0AF9  
                     u3601 03AB                       u2810 0021                       u3450 07D6  
                     u3370 073F                       u2570 0FBA                       u2490 0F6F  
                     u2730 0B89                       u1850 0B23                       u1915 0A6D  
                     u2811 0020                       u3451 07D5                       u3435 079A  
                     u3371 073E                       u3355 0729                       u3291 06CC  
                     u2491 0F6E                       u2475 0F5F                       u2731 0B88  
                     u2715 0B67                       u3515 0C25                       u1851 0B22  
                     u1940 0A91                       u2820 0026                       u2660 096B  
                     u3380 0753                       u3292 06D3                       u2580 0FC9  
                     u3540 0C43                       u3460 0BCC                       u1941 0A90  
                     u1925 0A79                       u2821 0025                       u2661 096A  
                     u3445 07B4                       u3381 0752                       u3293 06DA  
                     u3285 06BB                       u2581 0FC8                       u3541 0C42  
                     u3461 0BCB                       u1845 0B0A                       u2670 08BD  
                     u1950 09DC                       u2910 00DC                       u2830 0048  
                     u3390 075A                       u2590 0FD2                       u2750 0B9B  
                     u3550 0C49                       u3470 0BD0                       u1870 0B41  
                     u2671 08BC                       u1935 0A85                       u1951 09DB  
                     u2911 00DB                       u2831 0047                       u2655 095E  
                     u3391 0759                       u2591 0FD1                       u2575 0FB5  
                     u2751 0B9A                       u3551 0C48                       u3535 0C38  
                     u3471 0BCF                       u1871 0B40                       u1855 0B1F  
                     u2680 08CF                       u1880 0A5A                       u2840 004E  
                     u2760 0BA2                       u3560 0C4D                       u3480 0BF0  
                     u2681 08CE                       u1881 0A59                       u2905 00D1  
                     u2841 004D                       u2761 0BA1                       u2745 0B8B  
                     u3561 0C4C                       u3481 0BEF                       u1865 0B33  
                     u3617 0272                       u2690 0991                       u1970 09EE  
                     u2930 00F8                       u2850 0053                       u3570 0C62  
                     u2691 0990                       u1971 09ED                       u2931 00F7  
                     u2851 0052                       u3627 029D                       _PEIE 005E  
                     u1980 09F8                       u2940 0111                       u2860 006E  
                     u2780 0BB3                       u3580 0C72                       u3637 0865  
                     u1981 09F7                       u1965 09E0                       u2941 0110  
                     u2925 00DF                       u2861 006D                       u2781 0BB2  
                     u3581 0C71                       u2950 0119                       u2870 008C  
                     u2790 0BB8                       u3590 0C76                       u3647 0A9A  
                     u1895 0A5E                       u2951 0118                       u2935 00F4  
                     u2871 008B                       u2791 0BB7                       u2775 0BA5  
                     u3591 0C75                       u3575 0C5D                       u3495 0C03  
                     u2880 00C6                       u3657 0AA9                       u1985 09F4  
                     u2881 00C5                       u2970 0128                       u3667 0AB7  
                     u1995 09FF                       u2971 0127                       u3677 0AC6  
                     u2965 011D                       u2990 013C                       u3687 0876  
                     u2991 013B                       u2895 00C8                       u2985 012B  
        ?_Lcd_Write_Number 0070               __CFG_WRT$OFF 0000                       _adc1 00A4  
                     _dec1 006A          ?_Lcd_Write_String 0072                       _ent1 006B  
                     _main 01E7                       btemp 007E         ??_Lcd_Write_Number 002D  
                     start 0000         ??_Lcd_Write_String 0074              __CFG_IESO$OFF 0000  
          ___fldiv@new_exp 005C            __end_of_Lcd_Cmd 087F                      ??_BCD 0078  
         ?_I2C_Master_Init 0020           ?_I2C_Master_Read 0070           ?_I2C_Master_Wait 0070  
         ?_I2C_Master_Stop 0070              ___fltol@sign1 0079            __end_of___fladd 1000  
                    ?_main 0070            __end_of___fldiv 01E7              __CFG_WDTE$OFF 0000  
          __end_of___flmul 07EB            __end_of___flsub 08FF            __end_of___fltol 0BC4  
                    _ANSEL 0188            __end_of___lldiv 0B4A            __end_of___lwdiv 0A96  
          __end_of___lwmod 0A10                      _PORTB 0006                      _PORTD 0008  
  __size_of_Lcd_Set_Cursor 0024                      _TRISB 0086                      _TRISD 0088  
                    _SSPIE 0463                      _SSPIF 0063             __CFG_FCMEN$OFF 0000  
                    _deci1 00A0            __end_of_dpowers 081A                      _setup 087F  
           __CFG_BOREN$OFF 0000                      pclath 000A                      status 0003  
                    wtemp0 007E            __end_of_sprintf 0D68           __end_of_Lcd_Init 0AE4  
           __CFG_MCLRE$OFF 0000            __initialization 07EB               __end_of_main 048A  
                   ??_main 0064         __size_of_Lcd_Clear 000D          ?_I2C_Master_Start 0070  
        ?_I2C_Master_Write 0070         ??_I2C_Master_Start 0070         ??_I2C_Master_Write 0072  
                   ?_setup 0070                     _ANSELH 0189                  ??_Lcd_Cmd 0070  
  __size_of_Lcd_Write_Char 000F                     _SSPADD 0093                     _TRISC3 043B  
                   _TRISC4 043C                     _SSPCON 0014                     _SSPBUF 0013  
         __end_of___xxtofl 0C80             __CFG_PWRTE$OFF 0000                  ??___fladd 0020  
                   ___wmul 08FF                  ??___fldiv 0052                  ??___flmul 0038  
                ??___flsub 007E                  ??___fltol 0074                  ??___lldiv 0078  
                ??___lwdiv 0074                  ??___lwmod 007C         __size_of__Umul8_16 0027  
                ??_sprintf 0023            Lcd_Set_Cursor@x 0075            Lcd_Set_Cursor@y 0073  
             ___xxtofl@arg 0022               ___xxtofl@exp 0021               ___xxtofl@val 0076  
  __end_of__initialization 07FC          __end_of_Lcd_Clear 085C                 ___fltol@f1 0070  
           __pcstackCOMMON 0070              __end_of_setup 0899             _Lcd_Set_Cursor 08B7  
                ?_Lcd_Init 0070                    ??_setup 007E                 __pbssBANK0 0068  
               __pbssBANK1 00A0          __end_of__Umul8_16 0970                 __pmaintext 01E7  
                  ?___wmul 0070  __size_of_Lcd_Write_Number 001E  __size_of_Lcd_Write_String 0042  
   __end_of_Lcd_Set_Cursor 08DB                  ?___xxtofl 0076                 ??_Lcd_Init 0073  
                  _SSPCON2 0091                    _SSPSTAT 0094                 __stringtab 0800  
           _Lcd_Write_Char 085C                    _Lcd_Cmd 086B                    ___fladd 0D68  
                  ___fldiv 000A                    ___flmul 048A                    ___flsub 08DB  
                  ___fltol 0B4A                    ___lldiv 0AE4            __size_of___wmul 0025  
                  ___lwdiv 0A52                    ___lwmod 09D6            ?_Lcd_Set_Cursor 0073  
                  __ptext1 087F                    __ptext2 099E                    __ptext3 0AE4  
                  __ptext4 0BC4                    __ptext5 0B4A                    __ptext6 08DB  
                  __ptext7 0D68                    __ptext8 048A                    __ptext9 0949  
             __size_of_BCD 0025                    _dpowers 0810                 ??___xxtofl 007A  
                  _minutos 0068   __size_of_I2C_Master_Init 0038   __size_of_I2C_Master_Read 002E  
 __size_of_I2C_Master_Wait 000D   __size_of_I2C_Master_Stop 0009                    _sprintf 0C80  
   __end_of_Lcd_Write_Char 086B       end_of_initialization 07FC  __size_of_I2C_Master_Start 0009  
__size_of_I2C_Master_Write 000A            ___lldiv@divisor 0070            ___lldiv@counter 007D  
         I2C_Master_Init@c 0020           I2C_Master_Read@a 0070             _pvtoelquelolea 006C  
                _PORTBbits 0006                ___fladd@grs 007B              ___xxtofl@sign 0020  
                _TRISCbits 0087                ___fldiv@grs 005E                ___fldiv@rem 0057  
          ?_Lcd_Write_Char 0070          Lcd_Write_String@a 0072          Lcd_Write_String@i 0077  
              ___flmul@grs 003E                  _Lcd_Clear 084F           _Lcd_Write_Number 0899  
           __end_of___wmul 0924           _Lcd_Write_String 0A10        start_initialization 07EB  
              __end_of_BCD 0949          __size_of_Lcd_Init 004E          ??_I2C_Master_Init 0024  
        ??_I2C_Master_Read 0072          ??_I2C_Master_Wait 0070          ??_I2C_Master_Stop 0070  
 __CFG_FOSC$INTRC_NOCLKOUT 0000                 ?_Lcd_Clear 0070                   ??___wmul 0074  
                __Umul8_16 0949            Lcd_Write_Char@a 0071                  ___fladd@a 0074  
                ___fladd@b 0070                  ___fldiv@a 004A                  ___fldiv@b 004E  
                ___flmul@a 0034                  ___flmul@b 0030                  ___flsub@a 0028  
                ___flsub@b 002C                  ___latbits 0002              __pcstackBANK0 0020  
        __size_of___xxtofl 00BC                   ?_Lcd_Cmd 0070                sprintf@flag 0027  
              sprintf@prec 0028           _I2C_Master_Start 17EE           _I2C_Master_Write 0838  
         ___lwdiv@dividend 0072           ??_Lcd_Set_Cursor 0074                   ?___fladd 0070  
                 ?___fldiv 004A                   ?___flmul 0030                   ?___flsub 0028  
                 ?___fltol 0070                   ?___lldiv 0070                 ?__Umul8_16 0070  
                 ?___lwdiv 0070                   ?___lwmod 0078                  __pstrings 0800  
         ___lwdiv@quotient 0075                   ?_sprintf 0020             __size_of_setup 001A  
           ___wmul@product 0074                   Lcd_Cmd@z 0072              BCD@to_convert 0076  
              ??_Lcd_Clear 0073                __stringbase 080F          ___wmul@multiplier 0070  
         ??_Lcd_Write_Char 0070                   _Lcd_Init 0A96        I2C_Master_Read@temp 0074  
 __end_of_Lcd_Write_Number 08B7   __end_of_Lcd_Write_String 0A52           __size_of_Lcd_Cmd 0014  
              ??__Umul8_16 0072           __size_of___fladd 0298           __size_of___fldiv 01DD  
         __size_of___flmul 0361           __size_of___flsub 0024           __size_of___fltol 007A  
         __size_of___lldiv 0066           __size_of___lwdiv 0044           __size_of___lwmod 003A  
       __end_of__stringtab 0810                 sprintf@val 0029            _I2C_Master_Init 099E  
          _I2C_Master_Read 0970                   ___xxtofl 0BC4            _I2C_Master_Wait 0842  
          _I2C_Master_Stop 17F7            ___lwdiv@divisor 0070            ___lwdiv@counter 0077  
                 __ptext10 000A                   __ptext11 0899                   __ptext20 086B  
                 __ptext12 0C80                   __ptext21 0838                   __ptext13 09D6  
                 __ptext22 17F7                   __ptext14 0A52                   __ptext23 17EE  
                 __ptext15 0A10                   __ptext24 0970                   __ptext16 085C  
                 __ptext25 0842                   __ptext17 08B7                   __ptext26 0924  
                 __ptext18 0A96                   __ptext27 08FF                   __ptext19 084F  
        __CFG_BOR4V$BOR40V 0000           __size_of_sprintf 00E8              __size_of_main 02A3  
                 _segundos 0069   __end_of_I2C_Master_Start 17F7   __end_of_I2C_Master_Write 0842  
                sprintf@ap 0026                  sprintf@sp 002B           ___lwmod@dividend 007A  
         ___lldiv@dividend 0074                  stringcode 080A    __end_of_I2C_Master_Init 09D6  
  __end_of_I2C_Master_Read 099E    __end_of_I2C_Master_Wait 084F    __end_of_I2C_Master_Stop 1800  
       Lcd_Set_Cursor@temp 0076     __Umul8_16@multiplicand 0070                   sprintf@c 002C  
                 sprintf@f 0020           ___lldiv@quotient 0079          I2C_Master_Write@d 0070  
          ___lwmod@divisor 0078            ___lwmod@counter 007D                   stringdir 080A  
                 stringtab 0800                _SSPCON2bits 0091              ___fladd@signs 0078  
             ___fladd@aexp 0079               ___fladd@bexp 007A       __Umul8_16@multiplier 0078  
      Lcd_Write_Number@var 0034        Lcd_Write_Number@str 0030          __Umul8_16@product 0074  
